
/root/specdoctor/Fuzzer/specdoctor/output/triggers/t3_U2S_ATTACKER_4141403670_MEM_BR_0x80600034_0x806000a4_bge_110.riscv:     file format elf64-littleriscv


Disassembly of section .text:

0000000080000000 <_start>:
    80000000:	0600006f          	j	80000060 <handle_reset>

0000000080000004 <nmi_vector>:
    80000004:	0000006f          	j	80000004 <nmi_vector>

0000000080000008 <mtvec_handler>:
    80000008:	00100513          	li	a0,1
    8000000c:	03f51513          	slli	a0,a0,0x3f
    80000010:	00b50513          	addi	a0,a0,11
    80000014:	342022f3          	csrr	t0,mcause
    80000018:	00551463          	bne	a0,t0,80000020 <mtvec_handler+0x18>
    8000001c:	3440006f          	j	80000360 <xcpt>
    80000020:	00300193          	li	gp,3
    80000024:	00005517          	auipc	a0,0x5
    80000028:	fdc50513          	addi	a0,a0,-36 # 80005000 <tohost>
    8000002c:	00000013          	nop
    80000030:	00353023          	sd	gp,0(a0)
    80000034:	ffdff06f          	j	80000030 <mtvec_handler+0x28>

0000000080000038 <stvec_handler>:
    80000038:	00800513          	li	a0,8
    8000003c:	142022f3          	csrr	t0,scause
    80000040:	00100193          	li	gp,1
    80000044:	00550463          	beq	a0,t0,8000004c <stvec_handler+0x14>
    80000048:	00300193          	li	gp,3
    8000004c:	00005517          	auipc	a0,0x5
    80000050:	fb450513          	addi	a0,a0,-76 # 80005000 <tohost>
    80000054:	00000013          	nop
    80000058:	00353023          	sd	gp,0(a0)
    8000005c:	ffdff06f          	j	80000058 <stvec_handler+0x20>

0000000080000060 <handle_reset>:
    80000060:	3a005073          	csrwi	pmpcfg0,0
    80000064:	30005073          	csrwi	mstatus,0
    80000068:	00000093          	li	ra,0
    8000006c:	00000113          	li	sp,0
    80000070:	00000193          	li	gp,0
    80000074:	00000213          	li	tp,0
    80000078:	00000293          	li	t0,0
    8000007c:	00000313          	li	t1,0
    80000080:	00000393          	li	t2,0
    80000084:	00000413          	li	s0,0
    80000088:	00000493          	li	s1,0
    8000008c:	00000513          	li	a0,0
    80000090:	00000593          	li	a1,0
    80000094:	00000613          	li	a2,0
    80000098:	00000693          	li	a3,0
    8000009c:	00000713          	li	a4,0
    800000a0:	00000793          	li	a5,0
    800000a4:	00000813          	li	a6,0
    800000a8:	00000893          	li	a7,0
    800000ac:	00000913          	li	s2,0
    800000b0:	00000993          	li	s3,0
    800000b4:	00000a13          	li	s4,0
    800000b8:	00000a93          	li	s5,0
    800000bc:	00000b13          	li	s6,0
    800000c0:	00000b93          	li	s7,0
    800000c4:	00000c13          	li	s8,0
    800000c8:	00000c93          	li	s9,0
    800000cc:	00000d13          	li	s10,0
    800000d0:	00000d93          	li	s11,0
    800000d4:	00000e13          	li	t3,0
    800000d8:	00000e93          	li	t4,0
    800000dc:	00000f13          	li	t5,0
    800000e0:	00000f93          	li	t6,0
    800000e4:	00006537          	lui	a0,0x6
    800000e8:	30052073          	csrs	mstatus,a0
    800000ec:	00305073          	csrwi	fcsr,0
    800000f0:	d2207053          	fcvt.d.l	ft0,zero
    800000f4:	d22070d3          	fcvt.d.l	ft1,zero
    800000f8:	d2207153          	fcvt.d.l	ft2,zero
    800000fc:	d22071d3          	fcvt.d.l	ft3,zero
    80000100:	d2207253          	fcvt.d.l	ft4,zero
    80000104:	d22072d3          	fcvt.d.l	ft5,zero
    80000108:	d2207353          	fcvt.d.l	ft6,zero
    8000010c:	d22073d3          	fcvt.d.l	ft7,zero
    80000110:	d2207453          	fcvt.d.l	fs0,zero
    80000114:	d22074d3          	fcvt.d.l	fs1,zero
    80000118:	d2207553          	fcvt.d.l	fa0,zero
    8000011c:	d22075d3          	fcvt.d.l	fa1,zero
    80000120:	d2207653          	fcvt.d.l	fa2,zero
    80000124:	d22076d3          	fcvt.d.l	fa3,zero
    80000128:	d2207753          	fcvt.d.l	fa4,zero
    8000012c:	d22077d3          	fcvt.d.l	fa5,zero
    80000130:	d2207853          	fcvt.d.l	fa6,zero
    80000134:	d22078d3          	fcvt.d.l	fa7,zero
    80000138:	d2207953          	fcvt.d.l	fs2,zero
    8000013c:	d22079d3          	fcvt.d.l	fs3,zero
    80000140:	d2207a53          	fcvt.d.l	fs4,zero
    80000144:	d2207ad3          	fcvt.d.l	fs5,zero
    80000148:	d2207b53          	fcvt.d.l	fs6,zero
    8000014c:	d2207bd3          	fcvt.d.l	fs7,zero
    80000150:	d2207c53          	fcvt.d.l	fs8,zero
    80000154:	d2207cd3          	fcvt.d.l	fs9,zero
    80000158:	d2207d53          	fcvt.d.l	fs10,zero
    8000015c:	d2207dd3          	fcvt.d.l	fs11,zero
    80000160:	d2207e53          	fcvt.d.l	ft8,zero
    80000164:	d2207ed3          	fcvt.d.l	ft9,zero
    80000168:	d2207f53          	fcvt.d.l	ft10,zero
    8000016c:	d2207fd3          	fcvt.d.l	ft11,zero
    80000170:	00000297          	auipc	t0,0x0
    80000174:	e9828293          	addi	t0,t0,-360 # 80000008 <mtvec_handler>
    80000178:	30529073          	csrw	mtvec,t0
    8000017c:	00000297          	auipc	t0,0x0
    80000180:	ebc28293          	addi	t0,t0,-324 # 80000038 <stvec_handler>
    80000184:	10529073          	csrw	stvec,t0
    80000188:	00006117          	auipc	sp,0x6
    8000018c:	f0010113          	addi	sp,sp,-256 # 80006088 <_end+0x1000>
    80000190:	228000ef          	jal	ra,800003b8 <pmp_boot>
    80000194:	2c8000ef          	jal	ra,8000045c <vm_boot>
    80000198:	00100513          	li	a0,1
    8000019c:	30652073          	csrs	mcounteren,a0
    800001a0:	08000513          	li	a0,128
    800001a4:	30052073          	csrs	mstatus,a0
    800001a8:	00001537          	lui	a0,0x1
    800001ac:	8005051b          	addiw	a0,a0,-2048
    800001b0:	30452073          	csrs	mie,a0
    800001b4:	00000013          	nop
    800001b8:	00000013          	nop
    800001bc:	00000013          	nop
    800001c0:	00000013          	nop
    800001c4:	00000013          	nop
    800001c8:	00000013          	nop
    800001cc:	00000013          	nop
    800001d0:	00000013          	nop
    800001d4:	00000013          	nop

00000000800001d8 <pfx>:
    800001d8:	3f8b7b13          	andi	s6,s6,1016
    800001dc:	00604997          	auipc	s3,0x604
    800001e0:	e2498993          	addi	s3,s3,-476 # 80604000 <data2>
    800001e4:	013b0b33          	add	s6,s6,s3
    800001e8:	018b3007          	fld	ft0,24(s6)

00000000800001ec <pfx.bb0.l1>:
    800001ec:	3f8afa93          	andi	s5,s5,1016
    800001f0:	00602a17          	auipc	s4,0x602
    800001f4:	e10a0a13          	addi	s4,s4,-496 # 80602000 <data>
    800001f8:	014a8ab3          	add	s5,s5,s4
    800001fc:	018ab087          	fld	ft1,24(s5)

0000000080000200 <pfx.bb0.l2>:
    80000200:	3f8a7a13          	andi	s4,s4,1016
    80000204:	00609b17          	auipc	s6,0x609
    80000208:	dfcb0b13          	addi	s6,s6,-516 # 80609000 <data7>
    8000020c:	016a0a33          	add	s4,s4,s6
    80000210:	010a3107          	fld	ft2,16(s4)

0000000080000214 <pfx.bb0.l3>:
    80000214:	3f897913          	andi	s2,s2,1016
    80000218:	00608997          	auipc	s3,0x608
    8000021c:	de898993          	addi	s3,s3,-536 # 80608000 <data6>
    80000220:	01390933          	add	s2,s2,s3
    80000224:	00093187          	fld	ft3,0(s2)

0000000080000228 <pfx.bb0.l4>:
    80000228:	3f8afa93          	andi	s5,s5,1016
    8000022c:	00604997          	auipc	s3,0x604
    80000230:	dd498993          	addi	s3,s3,-556 # 80604000 <data2>
    80000234:	013a8ab3          	add	s5,s5,s3
    80000238:	018ab207          	fld	ft4,24(s5)

000000008000023c <pfx.bb0.l5>:
    8000023c:	3f8afa93          	andi	s5,s5,1016
    80000240:	00606a17          	auipc	s4,0x606
    80000244:	dc0a0a13          	addi	s4,s4,-576 # 80606000 <data4>
    80000248:	014a8ab3          	add	s5,s5,s4
    8000024c:	018ab287          	fld	ft5,24(s5)

0000000080000250 <pfx.bb0.l6>:
    80000250:	3f8b7b13          	andi	s6,s6,1016
    80000254:	00602a17          	auipc	s4,0x602
    80000258:	daca0a13          	addi	s4,s4,-596 # 80602000 <data>
    8000025c:	014b0b33          	add	s6,s6,s4
    80000260:	010b3307          	fld	ft6,16(s6)

0000000080000264 <pfx.bb0.l7>:
    80000264:	3f89f993          	andi	s3,s3,1016
    80000268:	00606917          	auipc	s2,0x606
    8000026c:	d9890913          	addi	s2,s2,-616 # 80606000 <data4>
    80000270:	012989b3          	add	s3,s3,s2
    80000274:	0089b387          	fld	ft7,8(s3)

0000000080000278 <pfx.bb0.l8>:
    80000278:	3f8a7a13          	andi	s4,s4,1016
    8000027c:	00608917          	auipc	s2,0x608
    80000280:	d8490913          	addi	s2,s2,-636 # 80608000 <data6>
    80000284:	012a0a33          	add	s4,s4,s2
    80000288:	000a3407          	fld	fs0,0(s4)

000000008000028c <pfx.bb0.l9>:
    8000028c:	3f897913          	andi	s2,s2,1016
    80000290:	00602a17          	auipc	s4,0x602
    80000294:	d70a0a13          	addi	s4,s4,-656 # 80602000 <data>
    80000298:	01490933          	add	s2,s2,s4
    8000029c:	00893487          	fld	fs1,8(s2)

00000000800002a0 <pfx.bb0.l10>:
    800002a0:	75f00913          	li	s2,1887

00000000800002a4 <pfx.bb0.l11>:
    800002a4:	6eb00993          	li	s3,1771

00000000800002a8 <pfx.bb0.l12>:
    800002a8:	28800a13          	li	s4,648

00000000800002ac <pfx.bb0.l13>:
    800002ac:	2a200a93          	li	s5,674

00000000800002b0 <pfx.bb0.l14>:
    800002b0:	3aa00b13          	li	s6,938

00000000800002b4 <pfx.bb0.l15>:
    800002b4:	21f00b93          	li	s7,543

00000000800002b8 <pfx.bb0.l16>:
    800002b8:	23100c13          	li	s8,561

00000000800002bc <pfx.bb0.l17>:
    800002bc:	1d500c93          	li	s9,469

00000000800002c0 <pfx.bb0.l18>:
    800002c0:	3ff00d13          	li	s10,1023

00000000800002c4 <pfx.bb0.l19>:
    800002c4:	5fa00d93          	li	s11,1530

00000000800002c8 <pfx.exit>:
    800002c8:	00100f13          	li	t5,1
    800002cc:	00002537          	lui	a0,0x2
    800002d0:	8005051b          	addiw	a0,a0,-2048
    800002d4:	30053073          	csrc	mstatus,a0
    800002d8:	00200297          	auipc	t0,0x200
    800002dc:	d2828293          	addi	t0,t0,-728 # 80200000 <pre_attack0>
    800002e0:	34129073          	csrw	mepc,t0
    800002e4:	30200073          	mret

00000000800002e8 <recv_end_m>:
    800002e8:	c0002ef3          	rdcycle	t4
    800002ec:	41ce8e33          	sub	t3,t4,t3
    800002f0:	00005597          	auipc	a1,0x5
    800002f4:	d9058593          	addi	a1,a1,-624 # 80005080 <timing>
    800002f8:	01c5b023          	sd	t3,0(a1)
    800002fc:	00100193          	li	gp,1
    80000300:	00900593          	li	a1,9
    80000304:	342022f3          	csrr	t0,mcause
    80000308:	00558463          	beq	a1,t0,80000310 <recv_end_m+0x28>
    8000030c:	00300193          	li	gp,3
    80000310:	00005517          	auipc	a0,0x5
    80000314:	cf050513          	addi	a0,a0,-784 # 80005000 <tohost>
    80000318:	00000013          	nop
    8000031c:	00353023          	sd	gp,0(a0)
    80000320:	ffdff06f          	j	8000031c <recv_end_m+0x34>

0000000080000324 <recv_end_s>:
    80000324:	c0002ef3          	rdcycle	t4
    80000328:	41ce8e33          	sub	t3,t4,t3
    8000032c:	00005597          	auipc	a1,0x5
    80000330:	d5458593          	addi	a1,a1,-684 # 80005080 <timing>
    80000334:	01c5b023          	sd	t3,0(a1)
    80000338:	00100193          	li	gp,1
    8000033c:	00800593          	li	a1,8
    80000340:	142022f3          	csrr	t0,scause
    80000344:	00558463          	beq	a1,t0,8000034c <recv_end_s+0x28>
    80000348:	00300193          	li	gp,3
    8000034c:	00005517          	auipc	a0,0x5
    80000350:	cb450513          	addi	a0,a0,-844 # 80005000 <tohost>
    80000354:	00000013          	nop
    80000358:	00353023          	sd	gp,0(a0)
    8000035c:	ffdff06f          	j	80000358 <recv_end_s+0x34>

0000000080000360 <xcpt>:
    80000360:	08000513          	li	a0,128
    80000364:	30053073          	csrc	mstatus,a0
    80000368:	00001537          	lui	a0,0x1
    8000036c:	8005051b          	addiw	a0,a0,-2048
    80000370:	30453073          	csrc	mie,a0
    80000374:	00000517          	auipc	a0,0x0
    80000378:	f7450513          	addi	a0,a0,-140 # 800002e8 <recv_end_m>
    8000037c:	30551073          	csrw	mtvec,a0
    80000380:	00000517          	auipc	a0,0x0
    80000384:	fa450513          	addi	a0,a0,-92 # 80000324 <recv_end_s>
    80000388:	10551073          	csrw	stvec,a0
    8000038c:	00000013          	nop
    80000390:	00000013          	nop
    80000394:	00000013          	nop
    80000398:	c0002e73          	rdcycle	t3
    8000039c:	00002537          	lui	a0,0x2
    800003a0:	8005051b          	addiw	a0,a0,-2048
    800003a4:	30053073          	csrc	mstatus,a0
    800003a8:	00800297          	auipc	t0,0x800
    800003ac:	c5828293          	addi	t0,t0,-936 # 80800000 <receive>
    800003b0:	34129073          	csrw	mepc,t0
    800003b4:	30200073          	mret

00000000800003b8 <pmp_boot>:
    800003b8:	fe010113          	addi	sp,sp,-32
    800003bc:	00813c23          	sd	s0,24(sp)
    800003c0:	02010413          	addi	s0,sp,32
    800003c4:	01f00793          	li	a5,31
    800003c8:	fef43423          	sd	a5,-24(s0)
    800003cc:	fff00793          	li	a5,-1
    800003d0:	00b7d793          	srli	a5,a5,0xb
    800003d4:	fef43023          	sd	a5,-32(s0)
    800003d8:	fe843783          	ld	a5,-24(s0)
    800003dc:	fe043703          	ld	a4,-32(s0)
    800003e0:	00000297          	auipc	t0,0x0
    800003e4:	01c28293          	addi	t0,t0,28 # 800003fc <pmp_boot+0x44>
    800003e8:	305292f3          	csrrw	t0,mtvec,t0
    800003ec:	3b771073          	csrw	pmpaddr7,a4
    800003f0:	00078513          	mv	a0,a5
    800003f4:	03851513          	slli	a0,a0,0x38
    800003f8:	3a051073          	csrw	pmpcfg0,a0
    800003fc:	30529073          	csrw	mtvec,t0
    80000400:	00000013          	nop
    80000404:	01813403          	ld	s0,24(sp)
    80000408:	02010113          	addi	sp,sp,32
    8000040c:	00008067          	ret

0000000080000410 <lfsr63>:
    80000410:	fd010113          	addi	sp,sp,-48
    80000414:	02813423          	sd	s0,40(sp)
    80000418:	03010413          	addi	s0,sp,48
    8000041c:	fca43c23          	sd	a0,-40(s0)
    80000420:	fd843783          	ld	a5,-40(s0)
    80000424:	0017d713          	srli	a4,a5,0x1
    80000428:	fd843783          	ld	a5,-40(s0)
    8000042c:	00f747b3          	xor	a5,a4,a5
    80000430:	0017f793          	andi	a5,a5,1
    80000434:	fef43423          	sd	a5,-24(s0)
    80000438:	fd843783          	ld	a5,-40(s0)
    8000043c:	0017d713          	srli	a4,a5,0x1
    80000440:	fe843783          	ld	a5,-24(s0)
    80000444:	03e79793          	slli	a5,a5,0x3e
    80000448:	00f767b3          	or	a5,a4,a5
    8000044c:	00078513          	mv	a0,a5
    80000450:	02813403          	ld	s0,40(sp)
    80000454:	03010113          	addi	sp,sp,48
    80000458:	00008067          	ret

000000008000045c <vm_boot>:
    8000045c:	fd010113          	addi	sp,sp,-48
    80000460:	02113423          	sd	ra,40(sp)
    80000464:	02813023          	sd	s0,32(sp)
    80000468:	03010413          	addi	s0,sp,48
    8000046c:	00002797          	auipc	a5,0x2
    80000470:	b9478793          	addi	a5,a5,-1132 # 80002000 <pt+0x1000>
    80000474:	00c7d793          	srli	a5,a5,0xc
    80000478:	00a79793          	slli	a5,a5,0xa
    8000047c:	0017e713          	ori	a4,a5,1
    80000480:	00001797          	auipc	a5,0x1
    80000484:	b8078793          	addi	a5,a5,-1152 # 80001000 <pt>
    80000488:	00e7b823          	sd	a4,16(a5)
    8000048c:	00001717          	auipc	a4,0x1
    80000490:	b7470713          	addi	a4,a4,-1164 # 80001000 <pt>
    80000494:	000017b7          	lui	a5,0x1
    80000498:	00f707b3          	add	a5,a4,a5
    8000049c:	20000737          	lui	a4,0x20000
    800004a0:	0cf70713          	addi	a4,a4,207 # 200000cf <_start-0x5fffff31>
    800004a4:	00e7b023          	sd	a4,0(a5) # 1000 <_start-0x7ffff000>
    800004a8:	00200797          	auipc	a5,0x200
    800004ac:	b5878793          	addi	a5,a5,-1192 # 80200000 <pre_attack0>
    800004b0:	00c7d793          	srli	a5,a5,0xc
    800004b4:	00a79713          	slli	a4,a5,0xa
    800004b8:	00200797          	auipc	a5,0x200
    800004bc:	b4878793          	addi	a5,a5,-1208 # 80200000 <pre_attack0>
    800004c0:	0157d793          	srli	a5,a5,0x15
    800004c4:	1ff7f793          	andi	a5,a5,511
    800004c8:	0db76713          	ori	a4,a4,219
    800004cc:	00001697          	auipc	a3,0x1
    800004d0:	b3468693          	addi	a3,a3,-1228 # 80001000 <pt>
    800004d4:	20078793          	addi	a5,a5,512
    800004d8:	00379793          	slli	a5,a5,0x3
    800004dc:	00f687b3          	add	a5,a3,a5
    800004e0:	00e7b023          	sd	a4,0(a5)
    800004e4:	00400797          	auipc	a5,0x400
    800004e8:	b1c78793          	addi	a5,a5,-1252 # 80400000 <pre_attack1>
    800004ec:	00c7d793          	srli	a5,a5,0xc
    800004f0:	00a79713          	slli	a4,a5,0xa
    800004f4:	00400797          	auipc	a5,0x400
    800004f8:	b0c78793          	addi	a5,a5,-1268 # 80400000 <pre_attack1>
    800004fc:	0157d793          	srli	a5,a5,0x15
    80000500:	1ff7f793          	andi	a5,a5,511
    80000504:	0db76713          	ori	a4,a4,219
    80000508:	00001697          	auipc	a3,0x1
    8000050c:	af868693          	addi	a3,a3,-1288 # 80001000 <pt>
    80000510:	20078793          	addi	a5,a5,512
    80000514:	00379793          	slli	a5,a5,0x3
    80000518:	00f687b3          	add	a5,a3,a5
    8000051c:	00e7b023          	sd	a4,0(a5)
    80000520:	00003797          	auipc	a5,0x3
    80000524:	ae078793          	addi	a5,a5,-1312 # 80003000 <pt+0x2000>
    80000528:	00c7d793          	srli	a5,a5,0xc
    8000052c:	00a79713          	slli	a4,a5,0xa
    80000530:	00600797          	auipc	a5,0x600
    80000534:	ad078793          	addi	a5,a5,-1328 # 80600000 <attack>
    80000538:	0157d793          	srli	a5,a5,0x15
    8000053c:	1ff7f793          	andi	a5,a5,511
    80000540:	00176713          	ori	a4,a4,1
    80000544:	00001697          	auipc	a3,0x1
    80000548:	abc68693          	addi	a3,a3,-1348 # 80001000 <pt>
    8000054c:	20078793          	addi	a5,a5,512
    80000550:	00379793          	slli	a5,a5,0x3
    80000554:	00f687b3          	add	a5,a3,a5
    80000558:	00e7b023          	sd	a4,0(a5)
    8000055c:	00800797          	auipc	a5,0x800
    80000560:	aa478793          	addi	a5,a5,-1372 # 80800000 <receive>
    80000564:	00c7d793          	srli	a5,a5,0xc
    80000568:	00a79713          	slli	a4,a5,0xa
    8000056c:	00800797          	auipc	a5,0x800
    80000570:	a9478793          	addi	a5,a5,-1388 # 80800000 <receive>
    80000574:	0157d793          	srli	a5,a5,0x15
    80000578:	1ff7f793          	andi	a5,a5,511
    8000057c:	0db76713          	ori	a4,a4,219
    80000580:	00001697          	auipc	a3,0x1
    80000584:	a8068693          	addi	a3,a3,-1408 # 80001000 <pt>
    80000588:	20078793          	addi	a5,a5,512
    8000058c:	00379793          	slli	a5,a5,0x3
    80000590:	00f687b3          	add	a5,a3,a5
    80000594:	00e7b023          	sd	a4,0(a5)
    80000598:	00004797          	auipc	a5,0x4
    8000059c:	a6878793          	addi	a5,a5,-1432 # 80004000 <pt+0x3000>
    800005a0:	00c7d793          	srli	a5,a5,0xc
    800005a4:	00a79713          	slli	a4,a5,0xa
    800005a8:	00600697          	auipc	a3,0x600
    800005ac:	a5868693          	addi	a3,a3,-1448 # 80600000 <attack>
    800005b0:	004007b7          	lui	a5,0x400
    800005b4:	00f687b3          	add	a5,a3,a5
    800005b8:	0157d793          	srli	a5,a5,0x15
    800005bc:	1ff7f793          	andi	a5,a5,511
    800005c0:	00176713          	ori	a4,a4,1
    800005c4:	00001697          	auipc	a3,0x1
    800005c8:	a3c68693          	addi	a3,a3,-1476 # 80001000 <pt>
    800005cc:	20078793          	addi	a5,a5,512 # 400200 <_start-0x7fbffe00>
    800005d0:	00379793          	slli	a5,a5,0x3
    800005d4:	00f687b3          	add	a5,a3,a5
    800005d8:	00e7b023          	sd	a4,0(a5)
    800005dc:	00c00797          	auipc	a5,0xc00
    800005e0:	a2478793          	addi	a5,a5,-1500 # 80c00000 <secret>
    800005e4:	00c7d793          	srli	a5,a5,0xc
    800005e8:	00a79713          	slli	a4,a5,0xa
    800005ec:	00c00797          	auipc	a5,0xc00
    800005f0:	a1478793          	addi	a5,a5,-1516 # 80c00000 <secret>
    800005f4:	0157d793          	srli	a5,a5,0x15
    800005f8:	1ff7f793          	andi	a5,a5,511
    800005fc:	0c776713          	ori	a4,a4,199
    80000600:	00001697          	auipc	a3,0x1
    80000604:	a0068693          	addi	a3,a3,-1536 # 80001000 <pt>
    80000608:	20078793          	addi	a5,a5,512
    8000060c:	00379793          	slli	a5,a5,0x3
    80000610:	00f687b3          	add	a5,a3,a5
    80000614:	00e7b023          	sd	a4,0(a5)
    80000618:	7b6c67b7          	lui	a5,0x7b6c6
    8000061c:	70b78793          	addi	a5,a5,1803 # 7b6c670b <_start-0x49398f5>
    80000620:	00179793          	slli	a5,a5,0x1
    80000624:	fef43423          	sd	a5,-24(s0)
    80000628:	fe843503          	ld	a0,-24(s0)
    8000062c:	124000ef          	jal	ra,80000750 <config>
    80000630:	00800793          	li	a5,8
    80000634:	fef43023          	sd	a5,-32(s0)
    80000638:	fe043783          	ld	a5,-32(s0)
    8000063c:	03c79713          	slli	a4,a5,0x3c
    80000640:	00001797          	auipc	a5,0x1
    80000644:	9c078793          	addi	a5,a5,-1600 # 80001000 <pt>
    80000648:	00c7d793          	srli	a5,a5,0xc
    8000064c:	00f767b3          	or	a5,a4,a5
    80000650:	fcf43c23          	sd	a5,-40(s0)
    80000654:	fd843783          	ld	a5,-40(s0)
    80000658:	18079073          	csrw	satp,a5
    8000065c:	0000b7b7          	lui	a5,0xb
    80000660:	1557879b          	addiw	a5,a5,341
    80000664:	30279073          	csrw	medeleg,a5
    80000668:	12000073          	sfence.vma
    8000066c:	00000013          	nop
    80000670:	02813083          	ld	ra,40(sp)
    80000674:	02013403          	ld	s0,32(sp)
    80000678:	03010113          	addi	sp,sp,48
    8000067c:	00008067          	ret

0000000080000680 <set_pte_attack>:
    80000680:	fd010113          	addi	sp,sp,-48
    80000684:	02813423          	sd	s0,40(sp)
    80000688:	03010413          	addi	s0,sp,48
    8000068c:	fca43c23          	sd	a0,-40(s0)
    80000690:	fcb43823          	sd	a1,-48(s0)
    80000694:	fd843783          	ld	a5,-40(s0)
    80000698:	00c7d793          	srli	a5,a5,0xc
    8000069c:	1ff7f793          	andi	a5,a5,511
    800006a0:	fef43423          	sd	a5,-24(s0)
    800006a4:	fd843783          	ld	a5,-40(s0)
    800006a8:	00c7d793          	srli	a5,a5,0xc
    800006ac:	00a79713          	slli	a4,a5,0xa
    800006b0:	fd043783          	ld	a5,-48(s0)
    800006b4:	00f76733          	or	a4,a4,a5
    800006b8:	00001697          	auipc	a3,0x1
    800006bc:	94868693          	addi	a3,a3,-1720 # 80001000 <pt>
    800006c0:	fe843783          	ld	a5,-24(s0)
    800006c4:	40078793          	addi	a5,a5,1024 # b400 <_start-0x7fff4c00>
    800006c8:	00379793          	slli	a5,a5,0x3
    800006cc:	00f687b3          	add	a5,a3,a5
    800006d0:	00e7b023          	sd	a4,0(a5)
    800006d4:	00000013          	nop
    800006d8:	02813403          	ld	s0,40(sp)
    800006dc:	03010113          	addi	sp,sp,48
    800006e0:	00008067          	ret

00000000800006e4 <set_pte_user>:
    800006e4:	fd010113          	addi	sp,sp,-48
    800006e8:	02813423          	sd	s0,40(sp)
    800006ec:	03010413          	addi	s0,sp,48
    800006f0:	fca43c23          	sd	a0,-40(s0)
    800006f4:	fcb43823          	sd	a1,-48(s0)
    800006f8:	fd843703          	ld	a4,-40(s0)
    800006fc:	004007b7          	lui	a5,0x400
    80000700:	00f707b3          	add	a5,a4,a5
    80000704:	00c7d793          	srli	a5,a5,0xc
    80000708:	1ff7f793          	andi	a5,a5,511
    8000070c:	fef43423          	sd	a5,-24(s0)
    80000710:	fd843783          	ld	a5,-40(s0)
    80000714:	00c7d793          	srli	a5,a5,0xc
    80000718:	00a79713          	slli	a4,a5,0xa
    8000071c:	fd043783          	ld	a5,-48(s0)
    80000720:	00f76733          	or	a4,a4,a5
    80000724:	00001697          	auipc	a3,0x1
    80000728:	8dc68693          	addi	a3,a3,-1828 # 80001000 <pt>
    8000072c:	fe843783          	ld	a5,-24(s0)
    80000730:	60078793          	addi	a5,a5,1536 # 400600 <_start-0x7fbffa00>
    80000734:	00379793          	slli	a5,a5,0x3
    80000738:	00f687b3          	add	a5,a3,a5
    8000073c:	00e7b023          	sd	a4,0(a5)
    80000740:	00000013          	nop
    80000744:	02813403          	ld	s0,40(sp)
    80000748:	03010113          	addi	sp,sp,48
    8000074c:	00008067          	ret

0000000080000750 <config>:
    80000750:	fd010113          	addi	sp,sp,-48
    80000754:	02113423          	sd	ra,40(sp)
    80000758:	02813023          	sd	s0,32(sp)
    8000075c:	03010413          	addi	s0,sp,48
    80000760:	fca43c23          	sd	a0,-40(s0)
    80000764:	00600797          	auipc	a5,0x600
    80000768:	89c78793          	addi	a5,a5,-1892 # 80600000 <attack>
    8000076c:	0df00593          	li	a1,223
    80000770:	00078513          	mv	a0,a5
    80000774:	f0dff0ef          	jal	ra,80000680 <set_pte_attack>
    80000778:	00601797          	auipc	a5,0x601
    8000077c:	88878793          	addi	a5,a5,-1912 # 80601000 <shared>
    80000780:	0db00593          	li	a1,219
    80000784:	00078513          	mv	a0,a5
    80000788:	ef9ff0ef          	jal	ra,80000680 <set_pte_attack>
    8000078c:	00600797          	auipc	a5,0x600
    80000790:	87478793          	addi	a5,a5,-1932 # 80600000 <attack>
    80000794:	0df00593          	li	a1,223
    80000798:	00078513          	mv	a0,a5
    8000079c:	f49ff0ef          	jal	ra,800006e4 <set_pte_user>
    800007a0:	00601797          	auipc	a5,0x601
    800007a4:	86078793          	addi	a5,a5,-1952 # 80601000 <shared>
    800007a8:	0db00593          	li	a1,219
    800007ac:	00078513          	mv	a0,a5
    800007b0:	f35ff0ef          	jal	ra,800006e4 <set_pte_user>
    800007b4:	fe042623          	sw	zero,-20(s0)
    800007b8:	0580006f          	j	80000810 <config+0xc0>
    800007bc:	0d700793          	li	a5,215
    800007c0:	fef43023          	sd	a5,-32(s0)
    800007c4:	fec42783          	lw	a5,-20(s0)
    800007c8:	00c79713          	slli	a4,a5,0xc
    800007cc:	00602797          	auipc	a5,0x602
    800007d0:	83478793          	addi	a5,a5,-1996 # 80602000 <data>
    800007d4:	00f707b3          	add	a5,a4,a5
    800007d8:	fe043583          	ld	a1,-32(s0)
    800007dc:	00078513          	mv	a0,a5
    800007e0:	ea1ff0ef          	jal	ra,80000680 <set_pte_attack>
    800007e4:	fec42783          	lw	a5,-20(s0)
    800007e8:	00c79713          	slli	a4,a5,0xc
    800007ec:	00602797          	auipc	a5,0x602
    800007f0:	81478793          	addi	a5,a5,-2028 # 80602000 <data>
    800007f4:	00f707b3          	add	a5,a4,a5
    800007f8:	0d700593          	li	a1,215
    800007fc:	00078513          	mv	a0,a5
    80000800:	ee5ff0ef          	jal	ra,800006e4 <set_pte_user>
    80000804:	fec42783          	lw	a5,-20(s0)
    80000808:	0017879b          	addiw	a5,a5,1
    8000080c:	fef42623          	sw	a5,-20(s0)
    80000810:	fec42783          	lw	a5,-20(s0)
    80000814:	0007871b          	sext.w	a4,a5
    80000818:	00700793          	li	a5,7
    8000081c:	fae7d0e3          	bge	a5,a4,800007bc <config+0x6c>
    80000820:	00000013          	nop
    80000824:	00000013          	nop
    80000828:	02813083          	ld	ra,40(sp)
    8000082c:	02013403          	ld	s0,32(sp)
    80000830:	03010113          	addi	sp,sp,48
    80000834:	00008067          	ret

Disassembly of section .tohost:

0000000080005000 <tohost>:
	...

0000000080005040 <fromhost>:
	...

0000000080005080 <timing>:
	...

Disassembly of section .text.preattack0:

0000000080200000 <pre_attack0>:
    80200000:	f0090153          	fmv.w.x	ft2,s2

0000000080200004 <prp0.entry.l1>:
    80200004:	a2111953          	flt.d	s2,ft2,ft1

0000000080200008 <prp0.entry.l2>:
    80200008:	033b2933          	mulhsu	s2,s6,s3

000000008020000c <prp0.entry.l3>:
    8020000c:	00401097          	auipc	ra,0x401
    80200010:	068080e7          	jalr	104(ra) # 80601074 <fn2.exit>

0000000080200014 <prp0.entry.l4>:
    80200014:	1a20a1d3          	fdiv.d	ft3,ft1,ft2,rdn

0000000080200018 <prp0.entry.l5>:
    80200018:	22110053          	fsgnj.d	ft0,ft2,ft1

000000008020001c <prp0.entry.l6>:
    8020001c:	00401097          	auipc	ra,0x401
    80200020:	07c080e7          	jalr	124(ra) # 80601098 <fn3.exit>

0000000080200024 <prp0.entry.l7>:
    80200024:	00401097          	auipc	ra,0x401
    80200028:	fdc080e7          	jalr	-36(ra) # 80601000 <shared>

000000008020002c <prp0.entry.l8>:
    8020002c:	0529fc63          	bgeu	s3,s2,80200084 <prp0.bb2>

0000000080200030 <prp0.bb0>:
    80200030:	c0327ad3          	fcvt.lu.s	s5,ft4

0000000080200034 <prp0.bb0.l1>:
    80200034:	e2019b53          	fclass.d	s6,ft3

0000000080200038 <prp0.bb0.l2>:
    80200038:	18418053          	fdiv.s	ft0,ft3,ft4,rne

000000008020003c <prp0.bb0.l3>:
    8020003c:	c2317b53          	fcvt.lu.d	s6,ft2

0000000080200040 <prp0.bb0.l4>:
    80200040:	0a4170d3          	fsub.d	ft1,ft2,ft4

0000000080200044 <prp0.bb0.l5>:
    80200044:	d22b71d3          	fcvt.d.l	ft3,s6

0000000080200048 <prp0.bb0.l6>:
    80200048:	d03b7253          	fcvt.s.lu	ft4,s6

000000008020004c <prp0.bb0.l7>:
    8020004c:	22ba891b          	addiw	s2,s5,555

0000000080200050 <prp0.bb0.l8>:
    80200050:	e0010ad3          	fmv.x.w	s5,ft2

0000000080200054 <prp0.bb0.l9>:
    80200054:	1201a0c3          	fmadd.d	ft1,ft3,ft0,ft2,rdn

0000000080200058 <prp0.bb0.l10>:
    80200058:	0540096f          	jal	s2,802000ac <pre_attack0_end>

000000008020005c <prp0.bb1>:
    8020005c:	4099da9b          	sraiw	s5,s3,0x9

0000000080200060 <prp0.bb1.l1>:
    80200060:	05590663          	beq	s2,s5,802000ac <pre_attack0_end>

0000000080200064 <prp0.bb1.l2>:
    80200064:	01e9991b          	slliw	s2,s3,0x1e

0000000080200068 <prp0.bb1.l3>:
    80200068:	42010153          	fcvt.d.s	ft2,ft2

000000008020006c <prp0.bb1.l4>:
    8020006c:	56fa8a13          	addi	s4,s5,1391

0000000080200070 <prp0.bb1.l5>:
    80200070:	00178937          	lui	s2,0x178

0000000080200074 <prp0.bb1.l6>:
    80200074:	223200d3          	fsgnj.d	ft1,ft4,ft3

0000000080200078 <prp0.bb1.l7>:
    80200078:	00000997          	auipc	s3,0x0
    8020007c:	00c98993          	addi	s3,s3,12 # 80200084 <prp0.bb2>
    80200080:	00098ae7          	jalr	s5,s3

0000000080200084 <prp0.bb2>:
    80200084:	429adb13          	srai	s6,s5,0x29

0000000080200088 <prp0.bb2.l1>:
    80200088:	012a9a1b          	slliw	s4,s5,0x12

000000008020008c <prp0.bb2.l2>:
    8020008c:	22309153          	fsgnjn.d	ft2,ft1,ft3

0000000080200090 <prp0.bb2.l3>:
    80200090:	c03079d3          	fcvt.lu.s	s3,ft0

0000000080200094 <prp0.bb2.l4>:
    80200094:	00401097          	auipc	ra,0x401
    80200098:	fb4080e7          	jalr	-76(ra) # 80601048 <fn1.exit>

000000008020009c <prp0.bb2.l5>:
    8020009c:	d009f053          	fcvt.s.w	ft0,s3

00000000802000a0 <prp0.bb2.l6>:
    802000a0:	414a8933          	sub	s2,s5,s4

00000000802000a4 <prp0.bb2.l7>:
    802000a4:	28201253          	fmax.s	ft4,ft0,ft2

00000000802000a8 <prp0.bb2.l8>:
    802000a8:	015a1263          	bne	s4,s5,802000ac <pre_attack0_end>

00000000802000ac <pre_attack0_end>:
    802000ac:	00200097          	auipc	ra,0x200
    802000b0:	f54080e7          	jalr	-172(ra) # 80400000 <pre_attack1>

Disassembly of section .text.preattack1:

0000000080400000 <pre_attack1>:
    80400000:	d239f0d3          	fcvt.d.lu	ft1,s3

0000000080400004 <prp1.entry.l1>:
    80400004:	034a89bb          	mulw	s3,s5,s4

0000000080400008 <prp1.entry.l2>:
    80400008:	0329dab3          	divu	s5,s3,s2

000000008040000c <prp1.entry.l3>:
    8040000c:	00201097          	auipc	ra,0x201
    80400010:	068080e7          	jalr	104(ra) # 80601074 <fn2.exit>

0000000080400014 <prp1.entry.l4>:
    80400014:	a0010953          	fle.s	s2,ft2,ft0

0000000080400018 <prp1.entry.l5>:
    80400018:	05298063          	beq	s3,s2,80400058 <prp1.bb2>

000000008040001c <prp1.bb0>:
    8040001c:	00290a17          	auipc	s4,0x290

0000000080400020 <prp1.bb0.l1>:
    80400020:	c230fb53          	fcvt.lu.d	s6,ft1

0000000080400024 <prp1.bb0.l2>:
    80400024:	223010d3          	fsgnjn.d	ft1,ft0,ft3

0000000080400028 <prp1.bb0.l3>:
    80400028:	41cb5a13          	srai	s4,s6,0x1c

000000008040002c <prp1.bb0.l4>:
    8040002c:	032a7ab3          	remu	s5,s4,s2

0000000080400030 <prp1.bb0.l5>:
    80400030:	00400aef          	jal	s5,80400034 <prp1.bb1>

0000000080400034 <prp1.bb1>:
    80400034:	00201097          	auipc	ra,0x201
    80400038:	ff0080e7          	jalr	-16(ra) # 80601024 <fn0.exit>

000000008040003c <prp1.bb1.l1>:
    8040003c:	d22af253          	fcvt.d.l	ft4,s5

0000000080400040 <prp1.bb1.l2>:
    80400040:	4d4a3993          	sltiu	s3,s4,1236

0000000080400044 <prp1.bb1.l3>:
    80400044:	5a59e913          	ori	s2,s3,1445

0000000080400048 <prp1.bb1.l4>:
    80400048:	4011f1d3          	fcvt.s.d	ft3,ft3

000000008040004c <prp1.bb1.l5>:
    8040004c:	0369cab3          	div	s5,s3,s6

0000000080400050 <prp1.bb1.l6>:
    80400050:	e20009d3          	fmv.x.d	s3,ft0

0000000080400054 <prp1.bb1.l7>:
    80400054:	00400a6f          	jal	s4,80400058 <prp1.bb2>

0000000080400058 <prp1.bb2>:
    80400058:	a2208b53          	fle.d	s6,ft1,ft2

000000008040005c <prp1.bb2.l1>:
    8040005c:	032a39b3          	mulhu	s3,s4,s2

0000000080400060 <prp1.bb2.l2>:
    80400060:	d00af053          	fcvt.s.w	ft0,s5

0000000080400064 <prp1.bb2.l3>:
    80400064:	e2008a53          	fmv.x.d	s4,ft1

0000000080400068 <prp1.bb2.l4>:
    80400068:	c020fb53          	fcvt.l.s	s6,ft1

000000008040006c <prp1.bb2.l5>:
    8040006c:	00201097          	auipc	ra,0x201
    80400070:	fb8080e7          	jalr	-72(ra) # 80601024 <fn0.exit>

0000000080400074 <prp1.bb2.l6>:
    80400074:	013ada33          	srl	s4,s5,s3

0000000080400078 <prp1.bb2.l7>:
    80400078:	013a1263          	bne	s4,s3,8040007c <prp1.bb3>

000000008040007c <prp1.bb3>:
    8040007c:	00201097          	auipc	ra,0x201
    80400080:	f84080e7          	jalr	-124(ra) # 80601000 <shared>

0000000080400084 <prp1.bb3.l1>:
    80400084:	c0007b53          	fcvt.w.s	s6,ft0

0000000080400088 <prp1.bb3.l2>:
    80400088:	0369aa33          	mulhsu	s4,s3,s6

000000008040008c <prp1.bb3.l3>:
    8040008c:	a21219d3          	flt.d	s3,ft4,ft1

0000000080400090 <prp1.bb3.l4>:
    80400090:	0a0141c7          	fmsub.d	ft3,ft2,ft0,ft1,rmm

0000000080400094 <prp1.bb3.l5>:
    80400094:	0159bb33          	sltu	s6,s3,s5

0000000080400098 <prp1.bb3.l6>:
    80400098:	00201097          	auipc	ra,0x201
    8040009c:	f8c080e7          	jalr	-116(ra) # 80601024 <fn0.exit>

00000000804000a0 <prp1.bb3.l7>:
    804000a0:	0220b24b          	fnmsub.d	ft4,ft1,ft2,ft0,rup

00000000804000a4 <prp1.bb3.l8>:
    804000a4:	033adc63          	bge	s5,s3,804000dc <pre_attack1_end>

00000000804000a8 <prp1.bb4>:
    804000a8:	00491993          	slli	s3,s2,0x4

00000000804000ac <prp1.bb4.l1>:
    804000ac:	406ada1b          	sraiw	s4,s5,0x6

00000000804000b0 <prp1.bb4.l2>:
    804000b0:	e2010b53          	fmv.x.d	s6,ft2

00000000804000b4 <prp1.bb4.l3>:
    804000b4:	d2198253          	fcvt.d.wu	ft4,s3

00000000804000b8 <prp1.bb4.l4>:
    804000b8:	01ea9913          	slli	s2,s5,0x1e

00000000804000bc <prp1.bb4.l5>:
    804000bc:	00201097          	auipc	ra,0x201
    804000c0:	f8c080e7          	jalr	-116(ra) # 80601048 <fn1.exit>

00000000804000c4 <prp1.bb4.l6>:
    804000c4:	c02279d3          	fcvt.l.s	s3,ft4

00000000804000c8 <prp1.bb4.l7>:
    804000c8:	036a69b3          	rem	s3,s4,s6

00000000804000cc <prp1.bb4.l8>:
    804000cc:	a230aad3          	feq.d	s5,ft1,ft3

00000000804000d0 <prp1.bb4.l9>:
    804000d0:	00000a17          	auipc	s4,0x0
    804000d4:	00ca0a13          	addi	s4,s4,12 # 804000dc <pre_attack1_end>
    804000d8:	000a0b67          	jalr	s6,s4

00000000804000dc <pre_attack1_end>:
    804000dc:	00200097          	auipc	ra,0x200
    804000e0:	f24080e7          	jalr	-220(ra) # 80600000 <attack>

Disassembly of section .text.attack:

0000000080600000 <attack>:
    80600000:	074010ef          	jal	ra,80601074 <fn2.exit>

0000000080600004 <tc.entry.l1>:
    80600004:	c201fb53          	fcvt.w.d	s6,ft3

0000000080600008 <tc.entry.l2>:
    80600008:	4b2aa913          	slti	s2,s5,1202

000000008060000c <tc.entry.l3>:
    8060000c:	2a019153          	fmax.d	ft2,ft3,ft0

0000000080600010 <tc.entry.l4>:
    80600010:	e20109d3          	fmv.x.d	s3,ft2

0000000080600014 <tc.entry.l5>:
    80600014:	e2010a53          	fmv.x.d	s4,ft2

0000000080600018 <tc.entry.l6>:
    80600018:	e2009a53          	fclass.d	s4,ft1

000000008060001c <tc.entry.l7>:
    8060001c:	016ac263          	blt	s5,s6,80600020 <tc.bb0>

0000000080600020 <tc.bb0>:
    80600020:	455b091b          	addiw	s2,s6,1109

0000000080600024 <tc.bb0.l1>:
    80600024:	e2008a53          	fmv.x.d	s4,ft1

0000000080600028 <tc.bb0.l2>:
    80600028:	036a7abb          	remuw	s5,s4,s6

000000008060002c <tc.bb0.l3>:
    8060002c:	1a4130c3          	fmadd.d	ft1,ft2,ft4,ft3,rup

0000000080600030 <tc.bb0.l4>:
    80600030:	3aaa8a13          	addi	s4,s5,938

0000000080600034 <tc.bb0.l5>:
    80600034:	073a5863          	bge	s4,s3,806000a4 <tc.bb2>

0000000080600038 <tc.bb0.l6>:
    80600038:	462a0a9b          	addiw	s5,s4,1122

000000008060003c <tc.bb0.l7>:
    8060003c:	41ea599b          	sraiw	s3,s4,0x1e

0000000080600040 <tc.bb0.l8>:
    80600040:	076ae263          	bltu	s5,s6,806000a4 <tc.bb2>

0000000080600044 <tc.bb1>:
    80600044:	6019cb13          	xori	s6,s3,1537

0000000080600048 <tc.bb1.l1>:
    80600048:	033a3ab3          	mulhu	s5,s4,s3

000000008060004c <tc.bb1.l2>:
    8060004c:	036a4abb          	divw	s5,s4,s6

0000000080600050 <tc.bb1.l3>:
    80600050:	3f8afa93          	andi	s5,s5,1016
    80600054:	00009a17          	auipc	s4,0x9
    80600058:	faca0a13          	addi	s4,s4,-84 # 80609000 <data7>
    8060005c:	014a8ab3          	add	s5,s5,s4
    80600060:	008acb03          	lbu	s6,8(s5)

0000000080600064 <tc.bb1.l4>:
    80600064:	3f8afa93          	andi	s5,s5,1016
    80600068:	00009917          	auipc	s2,0x9
    8060006c:	f9890913          	addi	s2,s2,-104 # 80609000 <data7>
    80600070:	012a8ab3          	add	s5,s5,s2
    80600074:	002adb03          	lhu	s6,2(s5)

0000000080600078 <tc.bb1.l5>:
    80600078:	3f89f993          	andi	s3,s3,1016
    8060007c:	00003a17          	auipc	s4,0x3
    80600080:	f84a0a13          	addi	s4,s4,-124 # 80603000 <data1>
    80600084:	014989b3          	add	s3,s3,s4
    80600088:	4159bb2f          	amoor.d	s6,s5,(s3)

000000008060008c <tc.bb1.l6>:
    8060008c:	3f897913          	andi	s2,s2,1016
    80600090:	00006a97          	auipc	s5,0x6
    80600094:	f70a8a93          	addi	s5,s5,-144 # 80606000 <data4>
    80600098:	01590933          	add	s2,s2,s5
    8060009c:	00891983          	lh	s3,8(s2)

00000000806000a0 <tc.bb1.l7>:
    806000a0:	07497663          	bgeu	s2,s4,8060010c <attack_end>

00000000806000a4 <tc.bb2>:
    806000a4:	0a20b1d3          	fsub.d	ft3,ft1,ft2,rup

00000000806000a8 <tc.bb2.l1>:
    806000a8:	0ff0000f          	fence

00000000806000ac <tc.bb2.l2>:
    806000ac:	580030d3          	fsqrt.s	ft1,ft0,rup

00000000806000b0 <tc.bb2.l3>:
    806000b0:	223000d3          	fsgnj.d	ft1,ft0,ft3

00000000806000b4 <tc.bb2.l4>:
    806000b4:	3f8a7a13          	andi	s4,s4,1016
    806000b8:	00009997          	auipc	s3,0x9
    806000bc:	f4898993          	addi	s3,s3,-184 # 80609000 <data7>
    806000c0:	013a0a33          	add	s4,s4,s3
    806000c4:	215a2b2f          	amoxor.w	s6,s5,(s4)

00000000806000c8 <tc.bb2.l5>:
    806000c8:	3f89f993          	andi	s3,s3,1016
    806000cc:	00006b17          	auipc	s6,0x6
    806000d0:	f34b0b13          	addi	s6,s6,-204 # 80606000 <data4>
    806000d4:	016989b3          	add	s3,s3,s6
    806000d8:	e129ba2f          	amomaxu.d	s4,s2,(s3)

00000000806000dc <tc.bb2.l6>:
    806000dc:	d20b0153          	fcvt.d.w	ft2,s6

00000000806000e0 <tc.bb2.l7>:
    806000e0:	00400b6f          	jal	s6,806000e4 <tc.bb3>

00000000806000e4 <tc.bb3>:
    806000e4:	2a018153          	fmin.d	ft2,ft3,ft0

00000000806000e8 <tc.bb3.l1>:
    806000e8:	03496b33          	rem	s6,s2,s4

00000000806000ec <tc.bb3.l2>:
    806000ec:	a0321953          	flt.s	s2,ft4,ft3

00000000806000f0 <tc.bb3.l3>:
    806000f0:	7a9000ef          	jal	ra,80601098 <fn3.exit>

00000000806000f4 <tc.bb3.l4>:
    806000f4:	081221d3          	fsub.s	ft3,ft4,ft1,rdn

00000000806000f8 <tc.bb3.l5>:
    806000f8:	72c98a93          	addi	s5,s3,1836

00000000806000fc <tc.bb3.l6>:
    806000fc:	419ad99b          	sraiw	s3,s5,0x19

0000000080600100 <tc.bb3.l7>:
    80600100:	0349fabb          	remuw	s5,s3,s4

0000000080600104 <tc.bb3.l8>:
    80600104:	012a5463          	bge	s4,s2,8060010c <attack_end>

0000000080600108 <tc.bb3.l9>:
    80600108:	01595263          	bge	s2,s5,8060010c <attack_end>

000000008060010c <attack_end>:
    8060010c:	00000073          	ecall
    80600110:	00000013          	nop
    80600114:	00000013          	nop
    80600118:	00000013          	nop
    8060011c:	00000013          	nop
    80600120:	00000013          	nop
    80600124:	00000013          	nop
    80600128:	00000013          	nop
    8060012c:	00000013          	nop
    80600130:	00000013          	nop
    80600134:	00000013          	nop
    80600138:	00000013          	nop
    8060013c:	00000013          	nop

0000000080600140 <spdoc>:
	...
    80600148:	00000013          	nop
    8060014c:	00000013          	nop
    80600150:	00000013          	nop
    80600154:	00000013          	nop
    80600158:	00000013          	nop
    8060015c:	00000013          	nop
    80600160:	00000013          	nop
    80600164:	00000013          	nop
    80600168:	00000013          	nop
    8060016c:	00000013          	nop
    80600170:	00000013          	nop
    80600174:	00000013          	nop
    80600178:	00000013          	nop
    8060017c:	00000013          	nop
    80600180:	00000013          	nop
    80600184:	00000013          	nop
    80600188:	00000013          	nop
    8060018c:	00000013          	nop
    80600190:	00000013          	nop
    80600194:	00000013          	nop
    80600198:	00000013          	nop
    8060019c:	00000013          	nop
    806001a0:	00000013          	nop
    806001a4:	00000013          	nop
    806001a8:	00000013          	nop
    806001ac:	00000013          	nop
    806001b0:	00000013          	nop
    806001b4:	00000013          	nop
    806001b8:	00000013          	nop
    806001bc:	00000013          	nop
    806001c0:	00000013          	nop
    806001c4:	00000013          	nop
    806001c8:	00000013          	nop
    806001cc:	00000013          	nop
    806001d0:	00000013          	nop
    806001d4:	00000013          	nop
    806001d8:	00000013          	nop
    806001dc:	00000013          	nop
    806001e0:	00000013          	nop
    806001e4:	00000013          	nop
    806001e8:	00000013          	nop
    806001ec:	00000013          	nop
    806001f0:	00000013          	nop
    806001f4:	00000013          	nop
    806001f8:	00000013          	nop
    806001fc:	00000013          	nop
    80600200:	00000013          	nop
    80600204:	00000013          	nop
    80600208:	00000013          	nop
    8060020c:	00000013          	nop
    80600210:	00000013          	nop
    80600214:	00000013          	nop
    80600218:	00000013          	nop
    8060021c:	00000013          	nop
    80600220:	00000013          	nop
    80600224:	00000013          	nop
    80600228:	00000013          	nop
    8060022c:	00000013          	nop
    80600230:	00000013          	nop
    80600234:	00000013          	nop
    80600238:	00000013          	nop
    8060023c:	00000013          	nop
    80600240:	00000013          	nop
    80600244:	00000013          	nop
    80600248:	00000013          	nop
    8060024c:	00000013          	nop
    80600250:	00000013          	nop
    80600254:	00000013          	nop
    80600258:	00000013          	nop
    8060025c:	00000013          	nop
    80600260:	00000013          	nop
    80600264:	00000013          	nop
    80600268:	00000013          	nop
    8060026c:	00000013          	nop
    80600270:	00000013          	nop
    80600274:	00000013          	nop
    80600278:	00000013          	nop
    8060027c:	00000013          	nop
    80600280:	00000013          	nop
    80600284:	00000013          	nop
    80600288:	00000013          	nop
    8060028c:	00000013          	nop
    80600290:	00000013          	nop
    80600294:	00000013          	nop
    80600298:	00000013          	nop
    8060029c:	00000013          	nop
    806002a0:	00000013          	nop
    806002a4:	00000013          	nop
    806002a8:	00000013          	nop
    806002ac:	00000013          	nop
    806002b0:	00000013          	nop
    806002b4:	00000013          	nop
    806002b8:	00000013          	nop
    806002bc:	00000013          	nop
    806002c0:	00000013          	nop
    806002c4:	00000013          	nop
    806002c8:	00000013          	nop
    806002cc:	00000013          	nop
    806002d0:	00000013          	nop
    806002d4:	00000013          	nop
    806002d8:	00000013          	nop
    806002dc:	00000013          	nop
    806002e0:	00000013          	nop
    806002e4:	00000013          	nop
    806002e8:	00000013          	nop
    806002ec:	00000013          	nop
    806002f0:	00000013          	nop
    806002f4:	00000013          	nop
    806002f8:	00000013          	nop
    806002fc:	00000013          	nop
    80600300:	00000013          	nop
    80600304:	00000013          	nop
    80600308:	00000013          	nop
    8060030c:	00000013          	nop
    80600310:	00000013          	nop
    80600314:	00000013          	nop
    80600318:	00000013          	nop
    8060031c:	00000013          	nop
    80600320:	00000013          	nop
    80600324:	00000013          	nop
    80600328:	00000013          	nop
    8060032c:	00000013          	nop
    80600330:	00000013          	nop
    80600334:	00000013          	nop
    80600338:	00000013          	nop
    8060033c:	00000013          	nop
    80600340:	00000013          	nop
    80600344:	00000013          	nop
    80600348:	00000013          	nop
    8060034c:	00000013          	nop
    80600350:	00000013          	nop
    80600354:	00000013          	nop
    80600358:	00000013          	nop
    8060035c:	00000013          	nop
    80600360:	00000013          	nop
    80600364:	00000013          	nop
    80600368:	00000013          	nop
    8060036c:	00000013          	nop
    80600370:	00000013          	nop
    80600374:	00000013          	nop
    80600378:	00000013          	nop
    8060037c:	00000013          	nop
    80600380:	00000013          	nop
    80600384:	00000013          	nop
    80600388:	00000013          	nop
    8060038c:	00000013          	nop
    80600390:	00000013          	nop
    80600394:	00000013          	nop
    80600398:	00000013          	nop
    8060039c:	00000013          	nop
    806003a0:	00000013          	nop
    806003a4:	00000013          	nop
    806003a8:	00000013          	nop
    806003ac:	00000013          	nop
    806003b0:	00000013          	nop
    806003b4:	00000013          	nop
    806003b8:	00000013          	nop
    806003bc:	00000013          	nop
    806003c0:	00000013          	nop
    806003c4:	00000013          	nop
    806003c8:	00000013          	nop
    806003cc:	00000013          	nop
    806003d0:	00000013          	nop
    806003d4:	00000013          	nop
    806003d8:	00000013          	nop
    806003dc:	00000013          	nop
    806003e0:	00000013          	nop
    806003e4:	00000013          	nop
    806003e8:	00000013          	nop
    806003ec:	00000013          	nop
    806003f0:	00000013          	nop
    806003f4:	00000013          	nop
    806003f8:	00000013          	nop
    806003fc:	00000013          	nop
    80600400:	00000013          	nop
    80600404:	00000013          	nop
    80600408:	00000013          	nop
    8060040c:	00000013          	nop
    80600410:	00000013          	nop
    80600414:	00000013          	nop
    80600418:	00000013          	nop
    8060041c:	00000013          	nop
    80600420:	00000013          	nop
    80600424:	00000013          	nop
    80600428:	00000013          	nop
    8060042c:	00000013          	nop
    80600430:	00000013          	nop
    80600434:	00000013          	nop
    80600438:	00000013          	nop
    8060043c:	00000013          	nop
    80600440:	00000013          	nop
    80600444:	00000013          	nop
    80600448:	00000013          	nop
    8060044c:	00000013          	nop
    80600450:	00000013          	nop
    80600454:	00000013          	nop
    80600458:	00000013          	nop
    8060045c:	00000013          	nop
    80600460:	00000013          	nop
    80600464:	00000013          	nop
    80600468:	00000013          	nop
    8060046c:	00000013          	nop
    80600470:	00000013          	nop
    80600474:	00000013          	nop
    80600478:	00000013          	nop
    8060047c:	00000013          	nop
    80600480:	00000013          	nop
    80600484:	00000013          	nop
    80600488:	00000013          	nop
    8060048c:	00000013          	nop
    80600490:	00000013          	nop
    80600494:	00000013          	nop
    80600498:	00000013          	nop
    8060049c:	00000013          	nop
    806004a0:	00000013          	nop
    806004a4:	00000013          	nop
    806004a8:	00000013          	nop
    806004ac:	00000013          	nop
    806004b0:	00000013          	nop
    806004b4:	00000013          	nop
    806004b8:	00000013          	nop
    806004bc:	00000013          	nop
    806004c0:	00000013          	nop
    806004c4:	00000013          	nop
    806004c8:	00000013          	nop
    806004cc:	00000013          	nop
    806004d0:	00000013          	nop
    806004d4:	00000013          	nop
    806004d8:	00000013          	nop
    806004dc:	00000013          	nop
    806004e0:	00000013          	nop
    806004e4:	00000013          	nop
    806004e8:	00000013          	nop
    806004ec:	00000013          	nop
    806004f0:	00000013          	nop
    806004f4:	00000013          	nop
    806004f8:	00000013          	nop
    806004fc:	00000013          	nop
    80600500:	00000013          	nop
    80600504:	00000013          	nop
    80600508:	00000013          	nop
    8060050c:	00000013          	nop
    80600510:	00000013          	nop
    80600514:	00000013          	nop
    80600518:	00000013          	nop
    8060051c:	00000013          	nop
    80600520:	00000013          	nop
    80600524:	00000013          	nop
    80600528:	00000013          	nop
    8060052c:	00000013          	nop
    80600530:	00000013          	nop
    80600534:	00000013          	nop
    80600538:	00000013          	nop
    8060053c:	00000013          	nop
    80600540:	00000013          	nop
    80600544:	00000013          	nop
    80600548:	00000013          	nop
    8060054c:	00000013          	nop
    80600550:	00000013          	nop
    80600554:	00000013          	nop
    80600558:	00000013          	nop
    8060055c:	00000013          	nop
    80600560:	00000013          	nop
    80600564:	00000013          	nop
    80600568:	00000013          	nop
    8060056c:	00000013          	nop
    80600570:	00000013          	nop
    80600574:	00000013          	nop
    80600578:	00000013          	nop
    8060057c:	00000013          	nop
    80600580:	00000013          	nop
    80600584:	00000013          	nop
    80600588:	00000013          	nop
    8060058c:	00000013          	nop
    80600590:	00000013          	nop
    80600594:	00000013          	nop
    80600598:	00000013          	nop
    8060059c:	00000013          	nop
    806005a0:	00000013          	nop
    806005a4:	00000013          	nop
    806005a8:	00000013          	nop
    806005ac:	00000013          	nop
    806005b0:	00000013          	nop
    806005b4:	00000013          	nop
    806005b8:	00000013          	nop
    806005bc:	00000013          	nop
    806005c0:	00000013          	nop
    806005c4:	00000013          	nop
    806005c8:	00000013          	nop
    806005cc:	00000013          	nop
    806005d0:	00000013          	nop
    806005d4:	00000013          	nop
    806005d8:	00000013          	nop
    806005dc:	00000013          	nop
    806005e0:	00000013          	nop
    806005e4:	00000013          	nop
    806005e8:	00000013          	nop
    806005ec:	00000013          	nop
    806005f0:	00000013          	nop
    806005f4:	00000013          	nop
    806005f8:	00000013          	nop
    806005fc:	00000013          	nop
    80600600:	00000013          	nop
    80600604:	00000013          	nop
    80600608:	00000013          	nop
    8060060c:	00000013          	nop
    80600610:	00000013          	nop
    80600614:	00000013          	nop
    80600618:	00000013          	nop
    8060061c:	00000013          	nop
    80600620:	00000013          	nop
    80600624:	00000013          	nop
    80600628:	00000013          	nop
    8060062c:	00000013          	nop
    80600630:	00000013          	nop
    80600634:	00000013          	nop
    80600638:	00000013          	nop
    8060063c:	00000013          	nop
    80600640:	00000013          	nop
    80600644:	00000013          	nop
    80600648:	00000013          	nop
    8060064c:	00000013          	nop
    80600650:	00000013          	nop
    80600654:	00000013          	nop
    80600658:	00000013          	nop
    8060065c:	00000013          	nop
    80600660:	00000013          	nop
    80600664:	00000013          	nop
    80600668:	00000013          	nop
    8060066c:	00000013          	nop
    80600670:	00000013          	nop
    80600674:	00000013          	nop
    80600678:	00000013          	nop
    8060067c:	00000013          	nop
    80600680:	00000013          	nop
    80600684:	00000013          	nop
    80600688:	00000013          	nop
    8060068c:	00000013          	nop
    80600690:	00000013          	nop
    80600694:	00000013          	nop
    80600698:	00000013          	nop
    8060069c:	00000013          	nop
    806006a0:	00000013          	nop
    806006a4:	00000013          	nop
    806006a8:	00000013          	nop
    806006ac:	00000013          	nop
    806006b0:	00000013          	nop
    806006b4:	00000013          	nop
    806006b8:	00000013          	nop
    806006bc:	00000013          	nop
    806006c0:	00000013          	nop
    806006c4:	00000013          	nop
    806006c8:	00000013          	nop
    806006cc:	00000013          	nop
    806006d0:	00000013          	nop
    806006d4:	00000013          	nop
    806006d8:	00000013          	nop
    806006dc:	00000013          	nop
    806006e0:	00000013          	nop
    806006e4:	00000013          	nop
    806006e8:	00000013          	nop
    806006ec:	00000013          	nop
    806006f0:	00000013          	nop
    806006f4:	00000013          	nop
    806006f8:	00000013          	nop
    806006fc:	00000013          	nop
    80600700:	00000013          	nop
    80600704:	00000013          	nop
    80600708:	00000013          	nop
    8060070c:	00000013          	nop
    80600710:	00000013          	nop
    80600714:	00000013          	nop
    80600718:	00000013          	nop
    8060071c:	00000013          	nop
    80600720:	00000013          	nop
    80600724:	00000013          	nop
    80600728:	00000013          	nop
    8060072c:	00000013          	nop
    80600730:	00000013          	nop
    80600734:	00000013          	nop
    80600738:	00000013          	nop
    8060073c:	00000013          	nop
    80600740:	00000013          	nop
    80600744:	00000013          	nop
    80600748:	00000013          	nop
    8060074c:	00000013          	nop
    80600750:	00000013          	nop
    80600754:	00000013          	nop
    80600758:	00000013          	nop
    8060075c:	00000013          	nop
    80600760:	00000013          	nop
    80600764:	00000013          	nop
    80600768:	00000013          	nop
    8060076c:	00000013          	nop
    80600770:	00000013          	nop
    80600774:	00000013          	nop
    80600778:	00000013          	nop
    8060077c:	00000013          	nop
    80600780:	00000013          	nop
    80600784:	00000013          	nop
    80600788:	00000013          	nop
    8060078c:	00000013          	nop
    80600790:	00000013          	nop
    80600794:	00000013          	nop
    80600798:	00000013          	nop
    8060079c:	00000013          	nop
    806007a0:	00000013          	nop
    806007a4:	00000013          	nop
    806007a8:	00000013          	nop
    806007ac:	00000013          	nop
    806007b0:	00000013          	nop
    806007b4:	00000013          	nop
    806007b8:	00000013          	nop
    806007bc:	00000013          	nop
    806007c0:	00000013          	nop
    806007c4:	00000013          	nop
    806007c8:	00000013          	nop
    806007cc:	00000013          	nop
    806007d0:	00000013          	nop
    806007d4:	00000013          	nop
    806007d8:	00000013          	nop
    806007dc:	00000013          	nop
    806007e0:	00000013          	nop
    806007e4:	00000013          	nop
    806007e8:	00000013          	nop
    806007ec:	00000013          	nop
    806007f0:	00000013          	nop
    806007f4:	00000013          	nop
    806007f8:	00000013          	nop
    806007fc:	00000013          	nop
    80600800:	00000013          	nop
    80600804:	00000013          	nop
    80600808:	00000013          	nop
    8060080c:	00000013          	nop
    80600810:	00000013          	nop
    80600814:	00000013          	nop
    80600818:	00000013          	nop
    8060081c:	00000013          	nop
    80600820:	00000013          	nop
    80600824:	00000013          	nop
    80600828:	00000013          	nop
    8060082c:	00000013          	nop
    80600830:	00000013          	nop
    80600834:	00000013          	nop
    80600838:	00000013          	nop
    8060083c:	00000013          	nop
    80600840:	00000013          	nop
    80600844:	00000013          	nop
    80600848:	00000013          	nop
    8060084c:	00000013          	nop
    80600850:	00000013          	nop
    80600854:	00000013          	nop
    80600858:	00000013          	nop
    8060085c:	00000013          	nop
    80600860:	00000013          	nop
    80600864:	00000013          	nop
    80600868:	00000013          	nop
    8060086c:	00000013          	nop
    80600870:	00000013          	nop
    80600874:	00000013          	nop
    80600878:	00000013          	nop
    8060087c:	00000013          	nop
    80600880:	00000013          	nop
    80600884:	00000013          	nop
    80600888:	00000013          	nop
    8060088c:	00000013          	nop
    80600890:	00000013          	nop
    80600894:	00000013          	nop
    80600898:	00000013          	nop
    8060089c:	00000013          	nop
    806008a0:	00000013          	nop
    806008a4:	00000013          	nop
    806008a8:	00000013          	nop
    806008ac:	00000013          	nop
    806008b0:	00000013          	nop
    806008b4:	00000013          	nop
    806008b8:	00000013          	nop
    806008bc:	00000013          	nop
    806008c0:	00000013          	nop
    806008c4:	00000013          	nop
    806008c8:	00000013          	nop
    806008cc:	00000013          	nop
    806008d0:	00000013          	nop
    806008d4:	00000013          	nop
    806008d8:	00000013          	nop
    806008dc:	00000013          	nop
    806008e0:	00000013          	nop
    806008e4:	00000013          	nop
    806008e8:	00000013          	nop
    806008ec:	00000013          	nop
    806008f0:	00000013          	nop
    806008f4:	00000013          	nop
    806008f8:	00000013          	nop
    806008fc:	00000013          	nop
    80600900:	00000013          	nop
    80600904:	00000013          	nop
    80600908:	00000013          	nop
    8060090c:	00000013          	nop
    80600910:	00000013          	nop
    80600914:	00000013          	nop
    80600918:	00000013          	nop
    8060091c:	00000013          	nop
    80600920:	00000013          	nop
    80600924:	00000013          	nop
    80600928:	00000013          	nop
    8060092c:	00000013          	nop
    80600930:	00000013          	nop
    80600934:	00000013          	nop
    80600938:	00000013          	nop
    8060093c:	00000013          	nop
    80600940:	00000013          	nop
    80600944:	00000013          	nop
    80600948:	00000013          	nop
    8060094c:	00000013          	nop
    80600950:	00000013          	nop
    80600954:	00000013          	nop
    80600958:	00000013          	nop
    8060095c:	00000013          	nop
    80600960:	00000013          	nop
    80600964:	00000013          	nop
    80600968:	00000013          	nop
    8060096c:	00000013          	nop
    80600970:	00000013          	nop
    80600974:	00000013          	nop
    80600978:	00000013          	nop
    8060097c:	00000013          	nop
    80600980:	00000013          	nop
    80600984:	00000013          	nop
    80600988:	00000013          	nop
    8060098c:	00000013          	nop
    80600990:	00000013          	nop
    80600994:	00000013          	nop
    80600998:	00000013          	nop
    8060099c:	00000013          	nop
    806009a0:	00000013          	nop
    806009a4:	00000013          	nop
    806009a8:	00000013          	nop
    806009ac:	00000013          	nop
    806009b0:	00000013          	nop
    806009b4:	00000013          	nop
    806009b8:	00000013          	nop
    806009bc:	00000013          	nop
    806009c0:	00000013          	nop
    806009c4:	00000013          	nop
    806009c8:	00000013          	nop
    806009cc:	00000013          	nop
    806009d0:	00000013          	nop
    806009d4:	00000013          	nop
    806009d8:	00000013          	nop
    806009dc:	00000013          	nop
    806009e0:	00000013          	nop
    806009e4:	00000013          	nop
    806009e8:	00000013          	nop
    806009ec:	00000013          	nop
    806009f0:	00000013          	nop
    806009f4:	00000013          	nop
    806009f8:	00000013          	nop
    806009fc:	00000013          	nop
    80600a00:	00000013          	nop
    80600a04:	00000013          	nop
    80600a08:	00000013          	nop
    80600a0c:	00000013          	nop
    80600a10:	00000013          	nop
    80600a14:	00000013          	nop
    80600a18:	00000013          	nop
    80600a1c:	00000013          	nop
    80600a20:	00000013          	nop
    80600a24:	00000013          	nop
    80600a28:	00000013          	nop
    80600a2c:	00000013          	nop
    80600a30:	00000013          	nop
    80600a34:	00000013          	nop
    80600a38:	00000013          	nop
    80600a3c:	00000013          	nop
    80600a40:	00000013          	nop
    80600a44:	00000013          	nop
    80600a48:	00000013          	nop
    80600a4c:	00000013          	nop
    80600a50:	00000013          	nop
    80600a54:	00000013          	nop
    80600a58:	00000013          	nop
    80600a5c:	00000013          	nop
    80600a60:	00000013          	nop
    80600a64:	00000013          	nop
    80600a68:	00000013          	nop
    80600a6c:	00000013          	nop
    80600a70:	00000013          	nop
    80600a74:	00000013          	nop
    80600a78:	00000013          	nop
    80600a7c:	00000013          	nop
    80600a80:	00000013          	nop
    80600a84:	00000013          	nop
    80600a88:	00000013          	nop
    80600a8c:	00000013          	nop
    80600a90:	00000013          	nop
    80600a94:	00000013          	nop
    80600a98:	00000013          	nop
    80600a9c:	00000013          	nop
    80600aa0:	00000013          	nop
    80600aa4:	00000013          	nop
    80600aa8:	00000013          	nop
    80600aac:	00000013          	nop
    80600ab0:	00000013          	nop
    80600ab4:	00000013          	nop
    80600ab8:	00000013          	nop
    80600abc:	00000013          	nop
    80600ac0:	00000013          	nop
    80600ac4:	00000013          	nop
    80600ac8:	00000013          	nop
    80600acc:	00000013          	nop
    80600ad0:	00000013          	nop
    80600ad4:	00000013          	nop
    80600ad8:	00000013          	nop
    80600adc:	00000013          	nop
    80600ae0:	00000013          	nop
    80600ae4:	00000013          	nop
    80600ae8:	00000013          	nop
    80600aec:	00000013          	nop
    80600af0:	00000013          	nop
    80600af4:	00000013          	nop
    80600af8:	00000013          	nop
    80600afc:	00000013          	nop
    80600b00:	00000013          	nop
    80600b04:	00000013          	nop
    80600b08:	00000013          	nop
    80600b0c:	00000013          	nop
    80600b10:	00000013          	nop
    80600b14:	00000013          	nop
    80600b18:	00000013          	nop
    80600b1c:	00000013          	nop
    80600b20:	00000013          	nop
    80600b24:	00000013          	nop
    80600b28:	00000013          	nop
    80600b2c:	00000013          	nop
    80600b30:	00000013          	nop
    80600b34:	00000013          	nop
    80600b38:	00000013          	nop
    80600b3c:	00000013          	nop
    80600b40:	00000013          	nop
    80600b44:	00000013          	nop
    80600b48:	00000013          	nop
    80600b4c:	00000013          	nop
    80600b50:	00000013          	nop
    80600b54:	00000013          	nop
    80600b58:	00000013          	nop
    80600b5c:	00000013          	nop
    80600b60:	00000013          	nop
    80600b64:	00000013          	nop
    80600b68:	00000013          	nop
    80600b6c:	00000013          	nop
    80600b70:	00000013          	nop
    80600b74:	00000013          	nop
    80600b78:	00000013          	nop
    80600b7c:	00000013          	nop
    80600b80:	00000013          	nop
    80600b84:	00000013          	nop
    80600b88:	00000013          	nop
    80600b8c:	00000013          	nop
    80600b90:	00000013          	nop
    80600b94:	00000013          	nop
    80600b98:	00000013          	nop
    80600b9c:	00000013          	nop
    80600ba0:	00000013          	nop
    80600ba4:	00000013          	nop
    80600ba8:	00000013          	nop
    80600bac:	00000013          	nop
    80600bb0:	00000013          	nop
    80600bb4:	00000013          	nop
    80600bb8:	00000013          	nop
    80600bbc:	00000013          	nop
    80600bc0:	00000013          	nop
    80600bc4:	00000013          	nop
    80600bc8:	00000013          	nop
    80600bcc:	00000013          	nop
    80600bd0:	00000013          	nop
    80600bd4:	00000013          	nop
    80600bd8:	00000013          	nop
    80600bdc:	00000013          	nop
    80600be0:	00000013          	nop
    80600be4:	00000013          	nop
    80600be8:	00000013          	nop
    80600bec:	00000013          	nop
    80600bf0:	00000013          	nop
    80600bf4:	00000013          	nop
    80600bf8:	00000013          	nop
    80600bfc:	00000013          	nop
    80600c00:	00000013          	nop
    80600c04:	00000013          	nop
    80600c08:	00000013          	nop
    80600c0c:	00000013          	nop
    80600c10:	00000013          	nop
    80600c14:	00000013          	nop
    80600c18:	00000013          	nop
    80600c1c:	00000013          	nop
    80600c20:	00000013          	nop
    80600c24:	00000013          	nop
    80600c28:	00000013          	nop
    80600c2c:	00000013          	nop
    80600c30:	00000013          	nop
    80600c34:	00000013          	nop
    80600c38:	00000013          	nop
    80600c3c:	00000013          	nop
    80600c40:	00000013          	nop
    80600c44:	00000013          	nop
    80600c48:	00000013          	nop
    80600c4c:	00000013          	nop
    80600c50:	00000013          	nop
    80600c54:	00000013          	nop
    80600c58:	00000013          	nop
    80600c5c:	00000013          	nop
    80600c60:	00000013          	nop
    80600c64:	00000013          	nop
    80600c68:	00000013          	nop
    80600c6c:	00000013          	nop
    80600c70:	00000013          	nop
    80600c74:	00000013          	nop
    80600c78:	00000013          	nop
    80600c7c:	00000013          	nop
    80600c80:	00000013          	nop
    80600c84:	00000013          	nop
    80600c88:	00000013          	nop
    80600c8c:	00000013          	nop
    80600c90:	00000013          	nop
    80600c94:	00000013          	nop
    80600c98:	00000013          	nop
    80600c9c:	00000013          	nop
    80600ca0:	00000013          	nop
    80600ca4:	00000013          	nop
    80600ca8:	00000013          	nop
    80600cac:	00000013          	nop
    80600cb0:	00000013          	nop
    80600cb4:	00000013          	nop
    80600cb8:	00000013          	nop
    80600cbc:	00000013          	nop
    80600cc0:	00000013          	nop
    80600cc4:	00000013          	nop
    80600cc8:	00000013          	nop
    80600ccc:	00000013          	nop
    80600cd0:	00000013          	nop
    80600cd4:	00000013          	nop
    80600cd8:	00000013          	nop
    80600cdc:	00000013          	nop
    80600ce0:	00000013          	nop
    80600ce4:	00000013          	nop
    80600ce8:	00000013          	nop
    80600cec:	00000013          	nop
    80600cf0:	00000013          	nop
    80600cf4:	00000013          	nop
    80600cf8:	00000013          	nop
    80600cfc:	00000013          	nop
    80600d00:	00000013          	nop
    80600d04:	00000013          	nop
    80600d08:	00000013          	nop
    80600d0c:	00000013          	nop
    80600d10:	00000013          	nop
    80600d14:	00000013          	nop
    80600d18:	00000013          	nop
    80600d1c:	00000013          	nop
    80600d20:	00000013          	nop
    80600d24:	00000013          	nop
    80600d28:	00000013          	nop
    80600d2c:	00000013          	nop
    80600d30:	00000013          	nop
    80600d34:	00000013          	nop
    80600d38:	00000013          	nop
    80600d3c:	00000013          	nop
    80600d40:	00000013          	nop
    80600d44:	00000013          	nop
    80600d48:	00000013          	nop
    80600d4c:	00000013          	nop
    80600d50:	00000013          	nop
    80600d54:	00000013          	nop
    80600d58:	00000013          	nop
    80600d5c:	00000013          	nop
    80600d60:	00000013          	nop
    80600d64:	00000013          	nop
    80600d68:	00000013          	nop
    80600d6c:	00000013          	nop
    80600d70:	00000013          	nop
    80600d74:	00000013          	nop
    80600d78:	00000013          	nop
    80600d7c:	00000013          	nop
    80600d80:	00000013          	nop
    80600d84:	00000013          	nop
    80600d88:	00000013          	nop
    80600d8c:	00000013          	nop
    80600d90:	00000013          	nop
    80600d94:	00000013          	nop
    80600d98:	00000013          	nop
    80600d9c:	00000013          	nop
    80600da0:	00000013          	nop
    80600da4:	00000013          	nop
    80600da8:	00000013          	nop
    80600dac:	00000013          	nop
    80600db0:	00000013          	nop
    80600db4:	00000013          	nop
    80600db8:	00000013          	nop
    80600dbc:	00000013          	nop
    80600dc0:	00000013          	nop
    80600dc4:	00000013          	nop
    80600dc8:	00000013          	nop
    80600dcc:	00000013          	nop
    80600dd0:	00000013          	nop
    80600dd4:	00000013          	nop
    80600dd8:	00000013          	nop
    80600ddc:	00000013          	nop
    80600de0:	00000013          	nop
    80600de4:	00000013          	nop
    80600de8:	00000013          	nop
    80600dec:	00000013          	nop
    80600df0:	00000013          	nop
    80600df4:	00000013          	nop
    80600df8:	00000013          	nop
    80600dfc:	00000013          	nop
    80600e00:	00000013          	nop
    80600e04:	00000013          	nop
    80600e08:	00000013          	nop
    80600e0c:	00000013          	nop
    80600e10:	00000013          	nop
    80600e14:	00000013          	nop
    80600e18:	00000013          	nop
    80600e1c:	00000013          	nop
    80600e20:	00000013          	nop
    80600e24:	00000013          	nop
    80600e28:	00000013          	nop
    80600e2c:	00000013          	nop
    80600e30:	00000013          	nop
    80600e34:	00000013          	nop
    80600e38:	00000013          	nop
    80600e3c:	00000013          	nop
    80600e40:	00000013          	nop
    80600e44:	00000013          	nop
    80600e48:	00000013          	nop
    80600e4c:	00000013          	nop
    80600e50:	00000013          	nop
    80600e54:	00000013          	nop
    80600e58:	00000013          	nop
    80600e5c:	00000013          	nop
    80600e60:	00000013          	nop
    80600e64:	00000013          	nop
    80600e68:	00000013          	nop
    80600e6c:	00000013          	nop
    80600e70:	00000013          	nop
    80600e74:	00000013          	nop
    80600e78:	00000013          	nop
    80600e7c:	00000013          	nop
    80600e80:	00000013          	nop
    80600e84:	00000013          	nop
    80600e88:	00000013          	nop
    80600e8c:	00000013          	nop
    80600e90:	00000013          	nop
    80600e94:	00000013          	nop
    80600e98:	00000013          	nop
    80600e9c:	00000013          	nop
    80600ea0:	00000013          	nop
    80600ea4:	00000013          	nop
    80600ea8:	00000013          	nop
    80600eac:	00000013          	nop
    80600eb0:	00000013          	nop
    80600eb4:	00000013          	nop
    80600eb8:	00000013          	nop
    80600ebc:	00000013          	nop
    80600ec0:	00000013          	nop
    80600ec4:	00000013          	nop
    80600ec8:	00000013          	nop
    80600ecc:	00000013          	nop
    80600ed0:	00000013          	nop
    80600ed4:	00000013          	nop
    80600ed8:	00000013          	nop
    80600edc:	00000013          	nop
    80600ee0:	00000013          	nop
    80600ee4:	00000013          	nop
    80600ee8:	00000013          	nop
    80600eec:	00000013          	nop
    80600ef0:	00000013          	nop
    80600ef4:	00000013          	nop
    80600ef8:	00000013          	nop
    80600efc:	00000013          	nop
    80600f00:	00000013          	nop
    80600f04:	00000013          	nop
    80600f08:	00000013          	nop
    80600f0c:	00000013          	nop
    80600f10:	00000013          	nop
    80600f14:	00000013          	nop
    80600f18:	00000013          	nop
    80600f1c:	00000013          	nop
    80600f20:	00000013          	nop
    80600f24:	00000013          	nop
    80600f28:	00000013          	nop
    80600f2c:	00000013          	nop
    80600f30:	00000013          	nop
    80600f34:	00000013          	nop
    80600f38:	00000013          	nop
    80600f3c:	00000013          	nop
    80600f40:	00000013          	nop
    80600f44:	00000013          	nop
    80600f48:	00000013          	nop
    80600f4c:	00000013          	nop
    80600f50:	00000013          	nop
    80600f54:	00000013          	nop
    80600f58:	00000013          	nop
    80600f5c:	00000013          	nop
    80600f60:	00000013          	nop
    80600f64:	00000013          	nop
    80600f68:	00000013          	nop
    80600f6c:	00000013          	nop
    80600f70:	00000013          	nop
    80600f74:	00000013          	nop
    80600f78:	00000013          	nop
    80600f7c:	00000013          	nop
    80600f80:	00000013          	nop
    80600f84:	00000013          	nop
    80600f88:	00000013          	nop
    80600f8c:	00000013          	nop
    80600f90:	00000013          	nop
    80600f94:	00000013          	nop
    80600f98:	00000013          	nop
    80600f9c:	00000013          	nop
    80600fa0:	00000013          	nop
    80600fa4:	00000013          	nop
    80600fa8:	00000013          	nop
    80600fac:	00000013          	nop
    80600fb0:	00000013          	nop
    80600fb4:	00000013          	nop
    80600fb8:	00000013          	nop
    80600fbc:	00000013          	nop
    80600fc0:	00000013          	nop
    80600fc4:	00000013          	nop
    80600fc8:	00000013          	nop
    80600fcc:	00000013          	nop
    80600fd0:	00000013          	nop
    80600fd4:	00000013          	nop
    80600fd8:	00000013          	nop
    80600fdc:	00000013          	nop
    80600fe0:	00000013          	nop
    80600fe4:	00000013          	nop
    80600fe8:	00000013          	nop
    80600fec:	00000013          	nop
    80600ff0:	00000013          	nop
    80600ff4:	00000013          	nop
    80600ff8:	00000013          	nop
    80600ffc:	00000013          	nop

0000000080601000 <shared>:
    80601000:	c004fc53          	fcvt.w.s	s8,fs1

0000000080601004 <fn0.entry.l1>:
    80601004:	139d0d93          	addi	s11,s10,313

0000000080601008 <fn0.entry.l2>:
    80601008:	e2030bd3          	fmv.x.d	s7,ft6

000000008060100c <fn0.entry.l3>:
    8060100c:	d23bf353          	fcvt.d.lu	ft6,s7

0000000080601010 <fn0.entry.l4>:
    80601010:	2a6283d3          	fmin.d	ft7,ft5,ft6

0000000080601014 <fn0.entry.l5>:
    80601014:	28940353          	fmin.s	ft6,fs0,fs1

0000000080601018 <fn0.entry.l6>:
    80601018:	038becb3          	rem	s9,s7,s8

000000008060101c <fn0.entry.l7>:
    8060101c:	03ac3cb3          	mulhu	s9,s8,s10

0000000080601020 <fn0.entry.l8>:
    80601020:	00008067          	ret

0000000080601024 <fn0.exit>:
    80601024:	018cddb3          	srl	s11,s9,s8

0000000080601028 <fn1.entry.l1>:
    80601028:	449dfc93          	andi	s9,s11,1097

000000008060102c <fn1.entry.l2>:
    8060102c:	039c1db3          	mulh	s11,s8,s9

0000000080601030 <fn1.entry.l3>:
    80601030:	e2039cd3          	fclass.d	s9,ft7

0000000080601034 <fn1.entry.l4>:
    80601034:	d01c72d3          	fcvt.s.wu	ft5,s8

0000000080601038 <fn1.entry.l5>:
    80601038:	f20b83d3          	fmv.d.x	ft7,s7

000000008060103c <fn1.entry.l6>:
    8060103c:	2272a4d3          	fsgnjx.d	fs1,ft5,ft7

0000000080601040 <fn1.entry.l7>:
    80601040:	1064b3d3          	fmul.s	ft7,fs1,ft6,rup

0000000080601044 <fn1.entry.l8>:
    80601044:	00008067          	ret

0000000080601048 <fn1.exit>:
    80601048:	4a7372c3          	fmadd.d	ft5,ft6,ft7,fs1

000000008060104c <fn2.entry.l1>:
    8060104c:	0a7404d3          	fsub.d	fs1,fs0,ft7,rne

0000000080601050 <fn2.entry.l2>:
    80601050:	e0038dd3          	fmv.x.w	s11,ft7

0000000080601054 <fn2.entry.l3>:
    80601054:	e2039c53          	fclass.d	s8,ft7

0000000080601058 <fn2.entry.l4>:
    80601058:	08940353          	fsub.s	ft6,fs0,fs1,rne

000000008060105c <fn2.entry.l5>:
    8060105c:	6c3d0c9b          	addiw	s9,s10,1731

0000000080601060 <fn2.entry.l6>:
    80601060:	01ac7bb3          	and	s7,s8,s10

0000000080601064 <fn2.entry.l7>:
    80601064:	089442d3          	fsub.s	ft5,fs0,fs1,rmm

0000000080601068 <fn2.entry.l8>:
    80601068:	d03c74d3          	fcvt.s.lu	fs1,s8

000000008060106c <fn2.entry.l9>:
    8060106c:	04fd0b9b          	addiw	s7,s10,79

0000000080601070 <fn2.entry.l10>:
    80601070:	00008067          	ret

0000000080601074 <fn2.exit>:
    80601074:	038ced3b          	remw	s10,s9,s8

0000000080601078 <fn3.entry.l1>:
    80601078:	e2039cd3          	fclass.d	s9,ft7

000000008060107c <fn3.entry.l2>:
    8060107c:	038ddcbb          	divuw	s9,s11,s8

0000000080601080 <fn3.entry.l3>:
    80601080:	a054ad53          	feq.s	s10,fs1,ft5

0000000080601084 <fn3.entry.l4>:
    80601084:	d22df2d3          	fcvt.d.l	ft5,s11

0000000080601088 <fn3.entry.l5>:
    80601088:	d20c8353          	fcvt.d.w	ft6,s9

000000008060108c <fn3.entry.l6>:
    8060108c:	e0029bd3          	fclass.s	s7,ft5

0000000080601090 <fn3.entry.l7>:
    80601090:	086404d3          	fsub.s	fs1,fs0,ft6,rne

0000000080601094 <fn3.entry.l8>:
    80601094:	00008067          	ret

0000000080601098 <fn3.exit>:
    80601098:	0274b353          	fadd.d	ft6,fs1,ft7,rup

000000008060109c <fn4.entry.l1>:
    8060109c:	2a83a4c7          	fmsub.d	fs1,ft7,fs0,ft5,rdn

00000000806010a0 <fn4.entry.l2>:
    806010a0:	c0247bd3          	fcvt.l.s	s7,fs0

00000000806010a4 <fn4.entry.l3>:
    806010a4:	a2849dd3          	flt.d	s11,fs1,fs0

00000000806010a8 <fn4.entry.l4>:
    806010a8:	c2247c53          	fcvt.l.d	s8,fs0

00000000806010ac <fn4.entry.l5>:
    806010ac:	039d8bbb          	mulw	s7,s11,s9

00000000806010b0 <fn4.entry.l6>:
    806010b0:	004d9c9b          	slliw	s9,s11,0x4

00000000806010b4 <fn4.entry.l7>:
    806010b4:	03ac1bb3          	mulh	s7,s8,s10

00000000806010b8 <fn4.entry.l8>:
    806010b8:	c223fd53          	fcvt.l.d	s10,ft7

00000000806010bc <fn4.entry.l9>:
    806010bc:	00008067          	ret

00000000806010c0 <fn4.exit>:
	...

Disassembly of section .text.receive:

0000000080800000 <receive>:
    80800000:	00000073          	ecall
