
/root/specdoctor/Fuzzer/specdoctor/output/triggers/t3_U2S_ATTACKER_4141403670_MEM_BR_0x80600034_0x806000a4_bge_110.riscv:     file format elf64-littleriscv


Disassembly of section .text:

0000000080000000 <_start>:
    80000000:	0600006f          	j	80000060 <handle_reset>

0000000080000004 <nmi_vector>:
    80000004:	0000006f          	j	80000004 <nmi_vector>

0000000080000008 <mtvec_handler>:
    80000008:	00100513          	li	a0,1
    8000000c:	03f51513          	slli	a0,a0,0x3f
    80000010:	00b50513          	addi	a0,a0,11
    80000014:	342022f3          	csrr	t0,mcause
    80000018:	00551463          	bne	a0,t0,80000020 <mtvec_handler+0x18>
    8000001c:	3440006f          	j	80000360 <xcpt>
    80000020:	00300193          	li	gp,3
    80000024:	00005517          	auipc	a0,0x5
    80000028:	fdc50513          	addi	a0,a0,-36 # 80005000 <tohost>
    8000002c:	00000013          	nop
    80000030:	00353023          	sd	gp,0(a0)
    80000034:	ffdff06f          	j	80000030 <mtvec_handler+0x28>

0000000080000038 <stvec_handler>:
    80000038:	00800513          	li	a0,8
    8000003c:	142022f3          	csrr	t0,scause
    80000040:	00100193          	li	gp,1
    80000044:	00550463          	beq	a0,t0,8000004c <stvec_handler+0x14>
    80000048:	00300193          	li	gp,3
    8000004c:	00005517          	auipc	a0,0x5
    80000050:	fb450513          	addi	a0,a0,-76 # 80005000 <tohost>
    80000054:	00000013          	nop
    80000058:	00353023          	sd	gp,0(a0)
    8000005c:	ffdff06f          	j	80000058 <stvec_handler+0x20>

0000000080000060 <handle_reset>:
    80000060:	3a005073          	csrwi	pmpcfg0,0
    80000064:	30005073          	csrwi	mstatus,0
    80000068:	00000093          	li	ra,0
    8000006c:	00000113          	li	sp,0
    80000070:	00000193          	li	gp,0
    80000074:	00000213          	li	tp,0
    80000078:	00000293          	li	t0,0
    8000007c:	00000313          	li	t1,0
    80000080:	00000393          	li	t2,0
    80000084:	00000413          	li	s0,0
    80000088:	00000493          	li	s1,0
    8000008c:	00000513          	li	a0,0
    80000090:	00000593          	li	a1,0
    80000094:	00000613          	li	a2,0
    80000098:	00000693          	li	a3,0
    8000009c:	00000713          	li	a4,0
    800000a0:	00000793          	li	a5,0
    800000a4:	00000813          	li	a6,0
    800000a8:	00000893          	li	a7,0
    800000ac:	00000913          	li	s2,0
    800000b0:	00000993          	li	s3,0
    800000b4:	00000a13          	li	s4,0
    800000b8:	00000a93          	li	s5,0
    800000bc:	00000b13          	li	s6,0
    800000c0:	00000b93          	li	s7,0
    800000c4:	00000c13          	li	s8,0
    800000c8:	00000c93          	li	s9,0
    800000cc:	00000d13          	li	s10,0
    800000d0:	00000d93          	li	s11,0
    800000d4:	00000e13          	li	t3,0
    800000d8:	00000e93          	li	t4,0
    800000dc:	00000f13          	li	t5,0
    800000e0:	00000f93          	li	t6,0
    800000e4:	00006537          	lui	a0,0x6
    800000e8:	30052073          	csrs	mstatus,a0
    800000ec:	00305073          	csrwi	fcsr,0
    800000f0:	d2207053          	fcvt.d.l	ft0,zero
    800000f4:	d22070d3          	fcvt.d.l	ft1,zero
    800000f8:	d2207153          	fcvt.d.l	ft2,zero
    800000fc:	d22071d3          	fcvt.d.l	ft3,zero
    80000100:	d2207253          	fcvt.d.l	ft4,zero
    80000104:	d22072d3          	fcvt.d.l	ft5,zero
    80000108:	d2207353          	fcvt.d.l	ft6,zero
    8000010c:	d22073d3          	fcvt.d.l	ft7,zero
    80000110:	d2207453          	fcvt.d.l	fs0,zero
    80000114:	d22074d3          	fcvt.d.l	fs1,zero
    80000118:	d2207553          	fcvt.d.l	fa0,zero
    8000011c:	d22075d3          	fcvt.d.l	fa1,zero
    80000120:	d2207653          	fcvt.d.l	fa2,zero
    80000124:	d22076d3          	fcvt.d.l	fa3,zero
    80000128:	d2207753          	fcvt.d.l	fa4,zero
    8000012c:	d22077d3          	fcvt.d.l	fa5,zero
    80000130:	d2207853          	fcvt.d.l	fa6,zero
    80000134:	d22078d3          	fcvt.d.l	fa7,zero
    80000138:	d2207953          	fcvt.d.l	fs2,zero
    8000013c:	d22079d3          	fcvt.d.l	fs3,zero
    80000140:	d2207a53          	fcvt.d.l	fs4,zero
    80000144:	d2207ad3          	fcvt.d.l	fs5,zero
    80000148:	d2207b53          	fcvt.d.l	fs6,zero
    8000014c:	d2207bd3          	fcvt.d.l	fs7,zero
    80000150:	d2207c53          	fcvt.d.l	fs8,zero
    80000154:	d2207cd3          	fcvt.d.l	fs9,zero
    80000158:	d2207d53          	fcvt.d.l	fs10,zero
    8000015c:	d2207dd3          	fcvt.d.l	fs11,zero
    80000160:	d2207e53          	fcvt.d.l	ft8,zero
    80000164:	d2207ed3          	fcvt.d.l	ft9,zero
    80000168:	d2207f53          	fcvt.d.l	ft10,zero
    8000016c:	d2207fd3          	fcvt.d.l	ft11,zero
    80000170:	00000297          	auipc	t0,0x0
    80000174:	e9828293          	addi	t0,t0,-360 # 80000008 <mtvec_handler>
    80000178:	30529073          	csrw	mtvec,t0
    8000017c:	00000297          	auipc	t0,0x0
    80000180:	ebc28293          	addi	t0,t0,-324 # 80000038 <stvec_handler>
    80000184:	10529073          	csrw	stvec,t0
    80000188:	00006117          	auipc	sp,0x6
    8000018c:	f0010113          	addi	sp,sp,-256 # 80006088 <_end+0x1000>
    80000190:	228000ef          	jal	ra,800003b8 <pmp_boot>
    80000194:	2c8000ef          	jal	ra,8000045c <vm_boot>
    80000198:	00100513          	li	a0,1
    8000019c:	30652073          	csrs	mcounteren,a0
    800001a0:	08000513          	li	a0,128
    800001a4:	30052073          	csrs	mstatus,a0
    800001a8:	00001537          	lui	a0,0x1
    800001ac:	8005051b          	addiw	a0,a0,-2048
    800001b0:	30452073          	csrs	mie,a0
    800001b4:	00000013          	nop
    800001b8:	00000013          	nop
    800001bc:	00000013          	nop
    800001c0:	00000013          	nop
    800001c4:	00000013          	nop
    800001c8:	00000013          	nop
    800001cc:	00000013          	nop
    800001d0:	00000013          	nop
    800001d4:	00000013          	nop

00000000800001d8 <pfx>:
    800001d8:	3f8b7b13          	andi	s6,s6,1016
    800001dc:	00604997          	auipc	s3,0x604
    800001e0:	e2498993          	addi	s3,s3,-476 # 80604000 <data2>
    800001e4:	013b0b33          	add	s6,s6,s3
    800001e8:	018b3007          	fld	ft0,24(s6)

00000000800001ec <pfx.bb0.l1>:
    800001ec:	3f8afa93          	andi	s5,s5,1016
    800001f0:	00602a17          	auipc	s4,0x602
    800001f4:	e10a0a13          	addi	s4,s4,-496 # 80602000 <data>
    800001f8:	014a8ab3          	add	s5,s5,s4
    800001fc:	018ab087          	fld	ft1,24(s5)

0000000080000200 <pfx.bb0.l2>:
    80000200:	3f8a7a13          	andi	s4,s4,1016
    80000204:	00609b17          	auipc	s6,0x609
    80000208:	dfcb0b13          	addi	s6,s6,-516 # 80609000 <data7>
    8000020c:	016a0a33          	add	s4,s4,s6
    80000210:	010a3107          	fld	ft2,16(s4)

0000000080000214 <pfx.bb0.l3>:
    80000214:	3f897913          	andi	s2,s2,1016
    80000218:	00608997          	auipc	s3,0x608
    8000021c:	de898993          	addi	s3,s3,-536 # 80608000 <data6>
    80000220:	01390933          	add	s2,s2,s3
    80000224:	00093187          	fld	ft3,0(s2)

0000000080000228 <pfx.bb0.l4>:
    80000228:	3f8afa93          	andi	s5,s5,1016
    8000022c:	00604997          	auipc	s3,0x604
    80000230:	dd498993          	addi	s3,s3,-556 # 80604000 <data2>
    80000234:	013a8ab3          	add	s5,s5,s3
    80000238:	018ab207          	fld	ft4,24(s5)

000000008000023c <pfx.bb0.l5>:
    8000023c:	3f8afa93          	andi	s5,s5,1016
    80000240:	00606a17          	auipc	s4,0x606
    80000244:	dc0a0a13          	addi	s4,s4,-576 # 80606000 <data4>
    80000248:	014a8ab3          	add	s5,s5,s4
    8000024c:	018ab287          	fld	ft5,24(s5)

0000000080000250 <pfx.bb0.l6>:
    80000250:	3f8b7b13          	andi	s6,s6,1016
    80000254:	00602a17          	auipc	s4,0x602
    80000258:	daca0a13          	addi	s4,s4,-596 # 80602000 <data>
    8000025c:	014b0b33          	add	s6,s6,s4
    80000260:	010b3307          	fld	ft6,16(s6)

0000000080000264 <pfx.bb0.l7>:
    80000264:	3f89f993          	andi	s3,s3,1016
    80000268:	00606917          	auipc	s2,0x606
    8000026c:	d9890913          	addi	s2,s2,-616 # 80606000 <data4>
    80000270:	012989b3          	add	s3,s3,s2
    80000274:	0089b387          	fld	ft7,8(s3)

0000000080000278 <pfx.bb0.l8>:
    80000278:	3f8a7a13          	andi	s4,s4,1016
    8000027c:	00608917          	auipc	s2,0x608
    80000280:	d8490913          	addi	s2,s2,-636 # 80608000 <data6>
    80000284:	012a0a33          	add	s4,s4,s2
    80000288:	000a3407          	fld	fs0,0(s4)

000000008000028c <pfx.bb0.l9>:
    8000028c:	3f897913          	andi	s2,s2,1016
    80000290:	00602a17          	auipc	s4,0x602
    80000294:	d70a0a13          	addi	s4,s4,-656 # 80602000 <data>
    80000298:	01490933          	add	s2,s2,s4
    8000029c:	00893487          	fld	fs1,8(s2)

00000000800002a0 <pfx.bb0.l10>:
    800002a0:	75f00913          	li	s2,1887

00000000800002a4 <pfx.bb0.l11>:
    800002a4:	6eb00993          	li	s3,1771

00000000800002a8 <pfx.bb0.l12>:
    800002a8:	28800a13          	li	s4,648

00000000800002ac <pfx.bb0.l13>:
    800002ac:	2a200a93          	li	s5,674

00000000800002b0 <pfx.bb0.l14>:
    800002b0:	3aa00b13          	li	s6,938

00000000800002b4 <pfx.bb0.l15>:
    800002b4:	21f00b93          	li	s7,543

00000000800002b8 <pfx.bb0.l16>:
    800002b8:	23100c13          	li	s8,561

00000000800002bc <pfx.bb0.l17>:
    800002bc:	1d500c93          	li	s9,469

00000000800002c0 <pfx.bb0.l18>:
    800002c0:	3ff00d13          	li	s10,1023

00000000800002c4 <pfx.bb0.l19>:
    800002c4:	5fa00d93          	li	s11,1530

00000000800002c8 <pfx.exit>:
    800002c8:	00100f13          	li	t5,1
    800002cc:	00002537          	lui	a0,0x2
    800002d0:	8005051b          	addiw	a0,a0,-2048
    800002d4:	30053073          	csrc	mstatus,a0
    800002d8:	00200297          	auipc	t0,0x200
    800002dc:	d2828293          	addi	t0,t0,-728 # 80200000 <pre_attack0>
    800002e0:	34129073          	csrw	mepc,t0
    800002e4:	30200073          	mret

00000000800002e8 <recv_end_m>:
    800002e8:	c0002ef3          	rdcycle	t4
    800002ec:	41ce8e33          	sub	t3,t4,t3
    800002f0:	00005597          	auipc	a1,0x5
    800002f4:	d9058593          	addi	a1,a1,-624 # 80005080 <timing>
    800002f8:	01c5b023          	sd	t3,0(a1)
    800002fc:	00100193          	li	gp,1
    80000300:	00900593          	li	a1,9
    80000304:	342022f3          	csrr	t0,mcause
    80000308:	00558463          	beq	a1,t0,80000310 <recv_end_m+0x28>
    8000030c:	00300193          	li	gp,3
    80000310:	00005517          	auipc	a0,0x5
    80000314:	cf050513          	addi	a0,a0,-784 # 80005000 <tohost>
    80000318:	00000013          	nop
    8000031c:	00353023          	sd	gp,0(a0)
    80000320:	ffdff06f          	j	8000031c <recv_end_m+0x34>

0000000080000324 <recv_end_s>:
    80000324:	c0002ef3          	rdcycle	t4
    80000328:	41ce8e33          	sub	t3,t4,t3
    8000032c:	00005597          	auipc	a1,0x5
    80000330:	d5458593          	addi	a1,a1,-684 # 80005080 <timing>
    80000334:	01c5b023          	sd	t3,0(a1)
    80000338:	00100193          	li	gp,1
    8000033c:	00800593          	li	a1,8
    80000340:	142022f3          	csrr	t0,scause
    80000344:	00558463          	beq	a1,t0,8000034c <recv_end_s+0x28>
    80000348:	00300193          	li	gp,3
    8000034c:	00005517          	auipc	a0,0x5
    80000350:	cb450513          	addi	a0,a0,-844 # 80005000 <tohost>
    80000354:	00000013          	nop
    80000358:	00353023          	sd	gp,0(a0)
    8000035c:	ffdff06f          	j	80000358 <recv_end_s+0x34>

0000000080000360 <xcpt>:
    80000360:	08000513          	li	a0,128
    80000364:	30053073          	csrc	mstatus,a0
    80000368:	00001537          	lui	a0,0x1
    8000036c:	8005051b          	addiw	a0,a0,-2048
    80000370:	30453073          	csrc	mie,a0
    80000374:	00000517          	auipc	a0,0x0
    80000378:	f7450513          	addi	a0,a0,-140 # 800002e8 <recv_end_m>
    8000037c:	30551073          	csrw	mtvec,a0
    80000380:	00000517          	auipc	a0,0x0
    80000384:	fa450513          	addi	a0,a0,-92 # 80000324 <recv_end_s>
    80000388:	10551073          	csrw	stvec,a0
    8000038c:	00000013          	nop
    80000390:	00000013          	nop
    80000394:	00000013          	nop
    80000398:	c0002e73          	rdcycle	t3
    8000039c:	00002537          	lui	a0,0x2
    800003a0:	8005051b          	addiw	a0,a0,-2048
    800003a4:	30053073          	csrc	mstatus,a0
    800003a8:	00800297          	auipc	t0,0x800
    800003ac:	c5828293          	addi	t0,t0,-936 # 80800000 <receive>
    800003b0:	34129073          	csrw	mepc,t0
    800003b4:	30200073          	mret

00000000800003b8 <pmp_boot>:
    800003b8:	fe010113          	addi	sp,sp,-32
    800003bc:	00813c23          	sd	s0,24(sp)
    800003c0:	02010413          	addi	s0,sp,32
    800003c4:	01f00793          	li	a5,31
    800003c8:	fef43423          	sd	a5,-24(s0)
    800003cc:	fff00793          	li	a5,-1
    800003d0:	00b7d793          	srli	a5,a5,0xb
    800003d4:	fef43023          	sd	a5,-32(s0)
    800003d8:	fe843783          	ld	a5,-24(s0)
    800003dc:	fe043703          	ld	a4,-32(s0)
    800003e0:	00000297          	auipc	t0,0x0
    800003e4:	01c28293          	addi	t0,t0,28 # 800003fc <pmp_boot+0x44>
    800003e8:	305292f3          	csrrw	t0,mtvec,t0
    800003ec:	3b771073          	csrw	pmpaddr7,a4
    800003f0:	00078513          	mv	a0,a5
    800003f4:	03851513          	slli	a0,a0,0x38
    800003f8:	3a051073          	csrw	pmpcfg0,a0
    800003fc:	30529073          	csrw	mtvec,t0
    80000400:	00000013          	nop
    80000404:	01813403          	ld	s0,24(sp)
    80000408:	02010113          	addi	sp,sp,32
    8000040c:	00008067          	ret

0000000080000410 <lfsr63>:
    80000410:	fd010113          	addi	sp,sp,-48
    80000414:	02813423          	sd	s0,40(sp)
    80000418:	03010413          	addi	s0,sp,48
    8000041c:	fca43c23          	sd	a0,-40(s0)
    80000420:	fd843783          	ld	a5,-40(s0)
    80000424:	0017d713          	srli	a4,a5,0x1
    80000428:	fd843783          	ld	a5,-40(s0)
    8000042c:	00f747b3          	xor	a5,a4,a5
    80000430:	0017f793          	andi	a5,a5,1
    80000434:	fef43423          	sd	a5,-24(s0)
    80000438:	fd843783          	ld	a5,-40(s0)
    8000043c:	0017d713          	srli	a4,a5,0x1
    80000440:	fe843783          	ld	a5,-24(s0)
    80000444:	03e79793          	slli	a5,a5,0x3e
    80000448:	00f767b3          	or	a5,a4,a5
    8000044c:	00078513          	mv	a0,a5
    80000450:	02813403          	ld	s0,40(sp)
    80000454:	03010113          	addi	sp,sp,48
    80000458:	00008067          	ret

000000008000045c <vm_boot>:
    8000045c:	fd010113          	addi	sp,sp,-48
    80000460:	02113423          	sd	ra,40(sp)
    80000464:	02813023          	sd	s0,32(sp)
    80000468:	03010413          	addi	s0,sp,48
    8000046c:	00002797          	auipc	a5,0x2
    80000470:	b9478793          	addi	a5,a5,-1132 # 80002000 <pt+0x1000>
    80000474:	00c7d793          	srli	a5,a5,0xc
    80000478:	00a79793          	slli	a5,a5,0xa
    8000047c:	0017e713          	ori	a4,a5,1
    80000480:	00001797          	auipc	a5,0x1
    80000484:	b8078793          	addi	a5,a5,-1152 # 80001000 <pt>
    80000488:	00e7b823          	sd	a4,16(a5)
    8000048c:	00001717          	auipc	a4,0x1
    80000490:	b7470713          	addi	a4,a4,-1164 # 80001000 <pt>
    80000494:	000017b7          	lui	a5,0x1
    80000498:	00f707b3          	add	a5,a4,a5
    8000049c:	20000737          	lui	a4,0x20000
    800004a0:	0cf70713          	addi	a4,a4,207 # 200000cf <_start-0x5fffff31>
    800004a4:	00e7b023          	sd	a4,0(a5) # 1000 <_start-0x7ffff000>
    800004a8:	00200797          	auipc	a5,0x200
    800004ac:	b5878793          	addi	a5,a5,-1192 # 80200000 <pre_attack0>
    800004b0:	00c7d793          	srli	a5,a5,0xc
    800004b4:	00a79713          	slli	a4,a5,0xa
    800004b8:	00200797          	auipc	a5,0x200
    800004bc:	b4878793          	addi	a5,a5,-1208 # 80200000 <pre_attack0>
    800004c0:	0157d793          	srli	a5,a5,0x15
    800004c4:	1ff7f793          	andi	a5,a5,511
    800004c8:	0db76713          	ori	a4,a4,219
    800004cc:	00001697          	auipc	a3,0x1
    800004d0:	b3468693          	addi	a3,a3,-1228 # 80001000 <pt>
    800004d4:	20078793          	addi	a5,a5,512
    800004d8:	00379793          	slli	a5,a5,0x3
    800004dc:	00f687b3          	add	a5,a3,a5
    800004e0:	00e7b023          	sd	a4,0(a5)
    800004e4:	00400797          	auipc	a5,0x400
    800004e8:	b1c78793          	addi	a5,a5,-1252 # 80400000 <pre_attack1>
    800004ec:	00c7d793          	srli	a5,a5,0xc
    800004f0:	00a79713          	slli	a4,a5,0xa
    800004f4:	00400797          	auipc	a5,0x400
    800004f8:	b0c78793          	addi	a5,a5,-1268 # 80400000 <pre_attack1>
    800004fc:	0157d793          	srli	a5,a5,0x15
    80000500:	1ff7f793          	andi	a5,a5,511
    80000504:	0db76713          	ori	a4,a4,219
    80000508:	00001697          	auipc	a3,0x1
    8000050c:	af868693          	addi	a3,a3,-1288 # 80001000 <pt>
    80000510:	20078793          	addi	a5,a5,512
    80000514:	00379793          	slli	a5,a5,0x3
    80000518:	00f687b3          	add	a5,a3,a5
    8000051c:	00e7b023          	sd	a4,0(a5)
    80000520:	00003797          	auipc	a5,0x3
    80000524:	ae078793          	addi	a5,a5,-1312 # 80003000 <pt+0x2000>
    80000528:	00c7d793          	srli	a5,a5,0xc
    8000052c:	00a79713          	slli	a4,a5,0xa
    80000530:	00600797          	auipc	a5,0x600
    80000534:	ad078793          	addi	a5,a5,-1328 # 80600000 <attack>
    80000538:	0157d793          	srli	a5,a5,0x15
    8000053c:	1ff7f793          	andi	a5,a5,511
    80000540:	00176713          	ori	a4,a4,1
    80000544:	00001697          	auipc	a3,0x1
    80000548:	abc68693          	addi	a3,a3,-1348 # 80001000 <pt>
    8000054c:	20078793          	addi	a5,a5,512
    80000550:	00379793          	slli	a5,a5,0x3
    80000554:	00f687b3          	add	a5,a3,a5
    80000558:	00e7b023          	sd	a4,0(a5)
    8000055c:	00800797          	auipc	a5,0x800
    80000560:	aa478793          	addi	a5,a5,-1372 # 80800000 <receive>
    80000564:	00c7d793          	srli	a5,a5,0xc
    80000568:	00a79713          	slli	a4,a5,0xa
    8000056c:	00800797          	auipc	a5,0x800
    80000570:	a9478793          	addi	a5,a5,-1388 # 80800000 <receive>
    80000574:	0157d793          	srli	a5,a5,0x15
    80000578:	1ff7f793          	andi	a5,a5,511
    8000057c:	0db76713          	ori	a4,a4,219
    80000580:	00001697          	auipc	a3,0x1
    80000584:	a8068693          	addi	a3,a3,-1408 # 80001000 <pt>
    80000588:	20078793          	addi	a5,a5,512
    8000058c:	00379793          	slli	a5,a5,0x3
    80000590:	00f687b3          	add	a5,a3,a5
    80000594:	00e7b023          	sd	a4,0(a5)
    80000598:	00004797          	auipc	a5,0x4
    8000059c:	a6878793          	addi	a5,a5,-1432 # 80004000 <pt+0x3000>
    800005a0:	00c7d793          	srli	a5,a5,0xc
    800005a4:	00a79713          	slli	a4,a5,0xa
    800005a8:	00600697          	auipc	a3,0x600
    800005ac:	a5868693          	addi	a3,a3,-1448 # 80600000 <attack>
    800005b0:	004007b7          	lui	a5,0x400
    800005b4:	00f687b3          	add	a5,a3,a5
    800005b8:	0157d793          	srli	a5,a5,0x15
    800005bc:	1ff7f793          	andi	a5,a5,511
    800005c0:	00176713          	ori	a4,a4,1
    800005c4:	00001697          	auipc	a3,0x1
    800005c8:	a3c68693          	addi	a3,a3,-1476 # 80001000 <pt>
    800005cc:	20078793          	addi	a5,a5,512 # 400200 <_start-0x7fbffe00>
    800005d0:	00379793          	slli	a5,a5,0x3
    800005d4:	00f687b3          	add	a5,a3,a5
    800005d8:	00e7b023          	sd	a4,0(a5)
    800005dc:	00c00797          	auipc	a5,0xc00
    800005e0:	a2478793          	addi	a5,a5,-1500 # 80c00000 <secret>
    800005e4:	00c7d793          	srli	a5,a5,0xc
    800005e8:	00a79713          	slli	a4,a5,0xa
    800005ec:	00c00797          	auipc	a5,0xc00
    800005f0:	a1478793          	addi	a5,a5,-1516 # 80c00000 <secret>
    800005f4:	0157d793          	srli	a5,a5,0x15
    800005f8:	1ff7f793          	andi	a5,a5,511
    800005fc:	0c776713          	ori	a4,a4,199
    80000600:	00001697          	auipc	a3,0x1
    80000604:	a0068693          	addi	a3,a3,-1536 # 80001000 <pt>
    80000608:	20078793          	addi	a5,a5,512
    8000060c:	00379793          	slli	a5,a5,0x3
    80000610:	00f687b3          	add	a5,a3,a5
    80000614:	00e7b023          	sd	a4,0(a5)
    80000618:	7b6c67b7          	lui	a5,0x7b6c6
    8000061c:	70b78793          	addi	a5,a5,1803 # 7b6c670b <_start-0x49398f5>
    80000620:	00179793          	slli	a5,a5,0x1
    80000624:	fef43423          	sd	a5,-24(s0)
    80000628:	fe843503          	ld	a0,-24(s0)
    8000062c:	124000ef          	jal	ra,80000750 <config>
    80000630:	00800793          	li	a5,8
    80000634:	fef43023          	sd	a5,-32(s0)
    80000638:	fe043783          	ld	a5,-32(s0)
    8000063c:	03c79713          	slli	a4,a5,0x3c
    80000640:	00001797          	auipc	a5,0x1
    80000644:	9c078793          	addi	a5,a5,-1600 # 80001000 <pt>
    80000648:	00c7d793          	srli	a5,a5,0xc
    8000064c:	00f767b3          	or	a5,a4,a5
    80000650:	fcf43c23          	sd	a5,-40(s0)
    80000654:	fd843783          	ld	a5,-40(s0)
    80000658:	18079073          	csrw	satp,a5
    8000065c:	0000b7b7          	lui	a5,0xb
    80000660:	1557879b          	addiw	a5,a5,341
    80000664:	30279073          	csrw	medeleg,a5
    80000668:	12000073          	sfence.vma
    8000066c:	00000013          	nop
    80000670:	02813083          	ld	ra,40(sp)
    80000674:	02013403          	ld	s0,32(sp)
    80000678:	03010113          	addi	sp,sp,48
    8000067c:	00008067          	ret

0000000080000680 <set_pte_attack>:
    80000680:	fd010113          	addi	sp,sp,-48
    80000684:	02813423          	sd	s0,40(sp)
    80000688:	03010413          	addi	s0,sp,48
    8000068c:	fca43c23          	sd	a0,-40(s0)
    80000690:	fcb43823          	sd	a1,-48(s0)
    80000694:	fd843783          	ld	a5,-40(s0)
    80000698:	00c7d793          	srli	a5,a5,0xc
    8000069c:	1ff7f793          	andi	a5,a5,511
    800006a0:	fef43423          	sd	a5,-24(s0)
    800006a4:	fd843783          	ld	a5,-40(s0)
    800006a8:	00c7d793          	srli	a5,a5,0xc
    800006ac:	00a79713          	slli	a4,a5,0xa
    800006b0:	fd043783          	ld	a5,-48(s0)
    800006b4:	00f76733          	or	a4,a4,a5
    800006b8:	00001697          	auipc	a3,0x1
    800006bc:	94868693          	addi	a3,a3,-1720 # 80001000 <pt>
    800006c0:	fe843783          	ld	a5,-24(s0)
    800006c4:	40078793          	addi	a5,a5,1024 # b400 <_start-0x7fff4c00>
    800006c8:	00379793          	slli	a5,a5,0x3
    800006cc:	00f687b3          	add	a5,a3,a5
    800006d0:	00e7b023          	sd	a4,0(a5)
    800006d4:	00000013          	nop
    800006d8:	02813403          	ld	s0,40(sp)
    800006dc:	03010113          	addi	sp,sp,48
    800006e0:	00008067          	ret

00000000800006e4 <set_pte_user>:
    800006e4:	fd010113          	addi	sp,sp,-48
    800006e8:	02813423          	sd	s0,40(sp)
    800006ec:	03010413          	addi	s0,sp,48
    800006f0:	fca43c23          	sd	a0,-40(s0)
    800006f4:	fcb43823          	sd	a1,-48(s0)
    800006f8:	fd843703          	ld	a4,-40(s0)
    800006fc:	004007b7          	lui	a5,0x400
    80000700:	00f707b3          	add	a5,a4,a5
    80000704:	00c7d793          	srli	a5,a5,0xc
    80000708:	1ff7f793          	andi	a5,a5,511
    8000070c:	fef43423          	sd	a5,-24(s0)
    80000710:	fd843783          	ld	a5,-40(s0)
    80000714:	00c7d793          	srli	a5,a5,0xc
    80000718:	00a79713          	slli	a4,a5,0xa
    8000071c:	fd043783          	ld	a5,-48(s0)
    80000720:	00f76733          	or	a4,a4,a5
    80000724:	00001697          	auipc	a3,0x1
    80000728:	8dc68693          	addi	a3,a3,-1828 # 80001000 <pt>
    8000072c:	fe843783          	ld	a5,-24(s0)
    80000730:	60078793          	addi	a5,a5,1536 # 400600 <_start-0x7fbffa00>
    80000734:	00379793          	slli	a5,a5,0x3
    80000738:	00f687b3          	add	a5,a3,a5
    8000073c:	00e7b023          	sd	a4,0(a5)
    80000740:	00000013          	nop
    80000744:	02813403          	ld	s0,40(sp)
    80000748:	03010113          	addi	sp,sp,48
    8000074c:	00008067          	ret

0000000080000750 <config>:
    80000750:	fd010113          	addi	sp,sp,-48
    80000754:	02113423          	sd	ra,40(sp)
    80000758:	02813023          	sd	s0,32(sp)
    8000075c:	03010413          	addi	s0,sp,48
    80000760:	fca43c23          	sd	a0,-40(s0)
    80000764:	00600797          	auipc	a5,0x600
    80000768:	89c78793          	addi	a5,a5,-1892 # 80600000 <attack>
    8000076c:	0df00593          	li	a1,223
    80000770:	00078513          	mv	a0,a5
    80000774:	f0dff0ef          	jal	ra,80000680 <set_pte_attack>
    80000778:	00601797          	auipc	a5,0x601
    8000077c:	88878793          	addi	a5,a5,-1912 # 80601000 <shared>
    80000780:	0db00593          	li	a1,219
    80000784:	00078513          	mv	a0,a5
    80000788:	ef9ff0ef          	jal	ra,80000680 <set_pte_attack>
    8000078c:	00600797          	auipc	a5,0x600
    80000790:	87478793          	addi	a5,a5,-1932 # 80600000 <attack>
    80000794:	0df00593          	li	a1,223
    80000798:	00078513          	mv	a0,a5
    8000079c:	f49ff0ef          	jal	ra,800006e4 <set_pte_user>
    800007a0:	00601797          	auipc	a5,0x601
    800007a4:	86078793          	addi	a5,a5,-1952 # 80601000 <shared>
    800007a8:	0db00593          	li	a1,219
    800007ac:	00078513          	mv	a0,a5
    800007b0:	f35ff0ef          	jal	ra,800006e4 <set_pte_user>
    800007b4:	fe042623          	sw	zero,-20(s0)
    800007b8:	0580006f          	j	80000810 <config+0xc0>
    800007bc:	0d700793          	li	a5,215
    800007c0:	fef43023          	sd	a5,-32(s0)
    800007c4:	fec42783          	lw	a5,-20(s0)
    800007c8:	00c79713          	slli	a4,a5,0xc
    800007cc:	00602797          	auipc	a5,0x602
    800007d0:	83478793          	addi	a5,a5,-1996 # 80602000 <data>
    800007d4:	00f707b3          	add	a5,a4,a5
    800007d8:	fe043583          	ld	a1,-32(s0)
    800007dc:	00078513          	mv	a0,a5
    800007e0:	ea1ff0ef          	jal	ra,80000680 <set_pte_attack>
    800007e4:	fec42783          	lw	a5,-20(s0)
    800007e8:	00c79713          	slli	a4,a5,0xc
    800007ec:	00602797          	auipc	a5,0x602
    800007f0:	81478793          	addi	a5,a5,-2028 # 80602000 <data>
    800007f4:	00f707b3          	add	a5,a4,a5
    800007f8:	0d700593          	li	a1,215
    800007fc:	00078513          	mv	a0,a5
    80000800:	ee5ff0ef          	jal	ra,800006e4 <set_pte_user>
    80000804:	fec42783          	lw	a5,-20(s0)
    80000808:	0017879b          	addiw	a5,a5,1
    8000080c:	fef42623          	sw	a5,-20(s0)
    80000810:	fec42783          	lw	a5,-20(s0)
    80000814:	0007871b          	sext.w	a4,a5
    80000818:	00700793          	li	a5,7
    8000081c:	fae7d0e3          	bge	a5,a4,800007bc <config+0x6c>
    80000820:	00000013          	nop
    80000824:	00000013          	nop
    80000828:	02813083          	ld	ra,40(sp)
    8000082c:	02013403          	ld	s0,32(sp)
    80000830:	03010113          	addi	sp,sp,48
    80000834:	00008067          	ret

Disassembly of section .bss:

0000000080001000 <pt>:
	...

Disassembly of section .tohost:

0000000080005000 <tohost>:
	...

0000000080005040 <fromhost>:
	...

0000000080005080 <timing>:
	...

Disassembly of section .text.preattack0:

0000000080200000 <pre_attack0>:
    80200000:	f0090153          	fmv.w.x	ft2,s2

0000000080200004 <prp0.entry.l1>:
    80200004:	a2111953          	flt.d	s2,ft2,ft1

0000000080200008 <prp0.entry.l2>:
    80200008:	033b2933          	mulhsu	s2,s6,s3

000000008020000c <prp0.entry.l3>:
    8020000c:	00401097          	auipc	ra,0x401
    80200010:	068080e7          	jalr	104(ra) # 80601074 <fn2.exit>

0000000080200014 <prp0.entry.l4>:
    80200014:	1a20a1d3          	fdiv.d	ft3,ft1,ft2,rdn

0000000080200018 <prp0.entry.l5>:
    80200018:	22110053          	fsgnj.d	ft0,ft2,ft1

000000008020001c <prp0.entry.l6>:
    8020001c:	00401097          	auipc	ra,0x401
    80200020:	07c080e7          	jalr	124(ra) # 80601098 <fn3.exit>

0000000080200024 <prp0.entry.l7>:
    80200024:	00401097          	auipc	ra,0x401
    80200028:	fdc080e7          	jalr	-36(ra) # 80601000 <shared>

000000008020002c <prp0.entry.l8>:
    8020002c:	0529fc63          	bgeu	s3,s2,80200084 <prp0.bb2>

0000000080200030 <prp0.bb0>:
    80200030:	c0327ad3          	fcvt.lu.s	s5,ft4

0000000080200034 <prp0.bb0.l1>:
    80200034:	e2019b53          	fclass.d	s6,ft3

0000000080200038 <prp0.bb0.l2>:
    80200038:	18418053          	fdiv.s	ft0,ft3,ft4,rne

000000008020003c <prp0.bb0.l3>:
    8020003c:	c2317b53          	fcvt.lu.d	s6,ft2

0000000080200040 <prp0.bb0.l4>:
    80200040:	0a4170d3          	fsub.d	ft1,ft2,ft4

0000000080200044 <prp0.bb0.l5>:
    80200044:	d22b71d3          	fcvt.d.l	ft3,s6

0000000080200048 <prp0.bb0.l6>:
    80200048:	d03b7253          	fcvt.s.lu	ft4,s6

000000008020004c <prp0.bb0.l7>:
    8020004c:	22ba891b          	addiw	s2,s5,555

0000000080200050 <prp0.bb0.l8>:
    80200050:	e0010ad3          	fmv.x.w	s5,ft2

0000000080200054 <prp0.bb0.l9>:
    80200054:	1201a0c3          	fmadd.d	ft1,ft3,ft0,ft2,rdn

0000000080200058 <prp0.bb0.l10>:
    80200058:	0540096f          	jal	s2,802000ac <pre_attack0_end>

000000008020005c <prp0.bb1>:
    8020005c:	4099da9b          	sraiw	s5,s3,0x9

0000000080200060 <prp0.bb1.l1>:
    80200060:	05590663          	beq	s2,s5,802000ac <pre_attack0_end>

0000000080200064 <prp0.bb1.l2>:
    80200064:	01e9991b          	slliw	s2,s3,0x1e

0000000080200068 <prp0.bb1.l3>:
    80200068:	42010153          	fcvt.d.s	ft2,ft2

000000008020006c <prp0.bb1.l4>:
    8020006c:	56fa8a13          	addi	s4,s5,1391

0000000080200070 <prp0.bb1.l5>:
    80200070:	00178937          	lui	s2,0x178

0000000080200074 <prp0.bb1.l6>:
    80200074:	223200d3          	fsgnj.d	ft1,ft4,ft3

0000000080200078 <prp0.bb1.l7>:
    80200078:	00000997          	auipc	s3,0x0
    8020007c:	00c98993          	addi	s3,s3,12 # 80200084 <prp0.bb2>
    80200080:	00098ae7          	jalr	s5,s3

0000000080200084 <prp0.bb2>:
    80200084:	429adb13          	srai	s6,s5,0x29

0000000080200088 <prp0.bb2.l1>:
    80200088:	012a9a1b          	slliw	s4,s5,0x12

000000008020008c <prp0.bb2.l2>:
    8020008c:	22309153          	fsgnjn.d	ft2,ft1,ft3

0000000080200090 <prp0.bb2.l3>:
    80200090:	c03079d3          	fcvt.lu.s	s3,ft0

0000000080200094 <prp0.bb2.l4>:
    80200094:	00401097          	auipc	ra,0x401
    80200098:	fb4080e7          	jalr	-76(ra) # 80601048 <fn1.exit>

000000008020009c <prp0.bb2.l5>:
    8020009c:	d009f053          	fcvt.s.w	ft0,s3

00000000802000a0 <prp0.bb2.l6>:
    802000a0:	414a8933          	sub	s2,s5,s4

00000000802000a4 <prp0.bb2.l7>:
    802000a4:	28201253          	fmax.s	ft4,ft0,ft2

00000000802000a8 <prp0.bb2.l8>:
    802000a8:	015a1263          	bne	s4,s5,802000ac <pre_attack0_end>

00000000802000ac <pre_attack0_end>:
    802000ac:	00200097          	auipc	ra,0x200
    802000b0:	f54080e7          	jalr	-172(ra) # 80400000 <pre_attack1>

Disassembly of section .text.preattack1:

0000000080400000 <pre_attack1>:
    80400000:	d239f0d3          	fcvt.d.lu	ft1,s3

0000000080400004 <prp1.entry.l1>:
    80400004:	034a89bb          	mulw	s3,s5,s4

0000000080400008 <prp1.entry.l2>:
    80400008:	0329dab3          	divu	s5,s3,s2

000000008040000c <prp1.entry.l3>:
    8040000c:	00201097          	auipc	ra,0x201
    80400010:	068080e7          	jalr	104(ra) # 80601074 <fn2.exit>

0000000080400014 <prp1.entry.l4>:
    80400014:	a0010953          	fle.s	s2,ft2,ft0

0000000080400018 <prp1.entry.l5>:
    80400018:	05298063          	beq	s3,s2,80400058 <prp1.bb2>

000000008040001c <prp1.bb0>:
    8040001c:	00290a17          	auipc	s4,0x290

0000000080400020 <prp1.bb0.l1>:
    80400020:	c230fb53          	fcvt.lu.d	s6,ft1

0000000080400024 <prp1.bb0.l2>:
    80400024:	223010d3          	fsgnjn.d	ft1,ft0,ft3

0000000080400028 <prp1.bb0.l3>:
    80400028:	41cb5a13          	srai	s4,s6,0x1c

000000008040002c <prp1.bb0.l4>:
    8040002c:	032a7ab3          	remu	s5,s4,s2

0000000080400030 <prp1.bb0.l5>:
    80400030:	00400aef          	jal	s5,80400034 <prp1.bb1>

0000000080400034 <prp1.bb1>:
    80400034:	00201097          	auipc	ra,0x201
    80400038:	ff0080e7          	jalr	-16(ra) # 80601024 <fn0.exit>

000000008040003c <prp1.bb1.l1>:
    8040003c:	d22af253          	fcvt.d.l	ft4,s5

0000000080400040 <prp1.bb1.l2>:
    80400040:	4d4a3993          	sltiu	s3,s4,1236

0000000080400044 <prp1.bb1.l3>:
    80400044:	5a59e913          	ori	s2,s3,1445

0000000080400048 <prp1.bb1.l4>:
    80400048:	4011f1d3          	fcvt.s.d	ft3,ft3

000000008040004c <prp1.bb1.l5>:
    8040004c:	0369cab3          	div	s5,s3,s6

0000000080400050 <prp1.bb1.l6>:
    80400050:	e20009d3          	fmv.x.d	s3,ft0

0000000080400054 <prp1.bb1.l7>:
    80400054:	00400a6f          	jal	s4,80400058 <prp1.bb2>

0000000080400058 <prp1.bb2>:
    80400058:	a2208b53          	fle.d	s6,ft1,ft2

000000008040005c <prp1.bb2.l1>:
    8040005c:	032a39b3          	mulhu	s3,s4,s2

0000000080400060 <prp1.bb2.l2>:
    80400060:	d00af053          	fcvt.s.w	ft0,s5

0000000080400064 <prp1.bb2.l3>:
    80400064:	e2008a53          	fmv.x.d	s4,ft1

0000000080400068 <prp1.bb2.l4>:
    80400068:	c020fb53          	fcvt.l.s	s6,ft1

000000008040006c <prp1.bb2.l5>:
    8040006c:	00201097          	auipc	ra,0x201
    80400070:	fb8080e7          	jalr	-72(ra) # 80601024 <fn0.exit>

0000000080400074 <prp1.bb2.l6>:
    80400074:	013ada33          	srl	s4,s5,s3

0000000080400078 <prp1.bb2.l7>:
    80400078:	013a1263          	bne	s4,s3,8040007c <prp1.bb3>

000000008040007c <prp1.bb3>:
    8040007c:	00201097          	auipc	ra,0x201
    80400080:	f84080e7          	jalr	-124(ra) # 80601000 <shared>

0000000080400084 <prp1.bb3.l1>:
    80400084:	c0007b53          	fcvt.w.s	s6,ft0

0000000080400088 <prp1.bb3.l2>:
    80400088:	0369aa33          	mulhsu	s4,s3,s6

000000008040008c <prp1.bb3.l3>:
    8040008c:	a21219d3          	flt.d	s3,ft4,ft1

0000000080400090 <prp1.bb3.l4>:
    80400090:	0a0141c7          	fmsub.d	ft3,ft2,ft0,ft1,rmm

0000000080400094 <prp1.bb3.l5>:
    80400094:	0159bb33          	sltu	s6,s3,s5

0000000080400098 <prp1.bb3.l6>:
    80400098:	00201097          	auipc	ra,0x201
    8040009c:	f8c080e7          	jalr	-116(ra) # 80601024 <fn0.exit>

00000000804000a0 <prp1.bb3.l7>:
    804000a0:	0220b24b          	fnmsub.d	ft4,ft1,ft2,ft0,rup

00000000804000a4 <prp1.bb3.l8>:
    804000a4:	033adc63          	bge	s5,s3,804000dc <pre_attack1_end>

00000000804000a8 <prp1.bb4>:
    804000a8:	00491993          	slli	s3,s2,0x4

00000000804000ac <prp1.bb4.l1>:
    804000ac:	406ada1b          	sraiw	s4,s5,0x6

00000000804000b0 <prp1.bb4.l2>:
    804000b0:	e2010b53          	fmv.x.d	s6,ft2

00000000804000b4 <prp1.bb4.l3>:
    804000b4:	d2198253          	fcvt.d.wu	ft4,s3

00000000804000b8 <prp1.bb4.l4>:
    804000b8:	01ea9913          	slli	s2,s5,0x1e

00000000804000bc <prp1.bb4.l5>:
    804000bc:	00201097          	auipc	ra,0x201
    804000c0:	f8c080e7          	jalr	-116(ra) # 80601048 <fn1.exit>

00000000804000c4 <prp1.bb4.l6>:
    804000c4:	c02279d3          	fcvt.l.s	s3,ft4

00000000804000c8 <prp1.bb4.l7>:
    804000c8:	036a69b3          	rem	s3,s4,s6

00000000804000cc <prp1.bb4.l8>:
    804000cc:	a230aad3          	feq.d	s5,ft1,ft3

00000000804000d0 <prp1.bb4.l9>:
    804000d0:	00000a17          	auipc	s4,0x0
    804000d4:	00ca0a13          	addi	s4,s4,12 # 804000dc <pre_attack1_end>
    804000d8:	000a0b67          	jalr	s6,s4

00000000804000dc <pre_attack1_end>:
    804000dc:	00200097          	auipc	ra,0x200
    804000e0:	f24080e7          	jalr	-220(ra) # 80600000 <attack>

Disassembly of section .text.attack:

0000000080600000 <attack>:
    80600000:	074010ef          	jal	ra,80601074 <fn2.exit>

0000000080600004 <tc.entry.l1>:
    80600004:	c201fb53          	fcvt.w.d	s6,ft3

0000000080600008 <tc.entry.l2>:
    80600008:	4b2aa913          	slti	s2,s5,1202

000000008060000c <tc.entry.l3>:
    8060000c:	2a019153          	fmax.d	ft2,ft3,ft0

0000000080600010 <tc.entry.l4>:
    80600010:	e20109d3          	fmv.x.d	s3,ft2

0000000080600014 <tc.entry.l5>:
    80600014:	e2010a53          	fmv.x.d	s4,ft2

0000000080600018 <tc.entry.l6>:
    80600018:	e2009a53          	fclass.d	s4,ft1

000000008060001c <tc.entry.l7>:
    8060001c:	016ac263          	blt	s5,s6,80600020 <tc.bb0>

0000000080600020 <tc.bb0>:
    80600020:	455b091b          	addiw	s2,s6,1109

0000000080600024 <tc.bb0.l1>:
    80600024:	e2008a53          	fmv.x.d	s4,ft1

0000000080600028 <tc.bb0.l2>:
    80600028:	036a7abb          	remuw	s5,s4,s6

000000008060002c <tc.bb0.l3>:
    8060002c:	1a4130c3          	fmadd.d	ft1,ft2,ft4,ft3,rup

0000000080600030 <tc.bb0.l4>:
    80600030:	3aaa8a13          	addi	s4,s5,938

0000000080600034 <tc.bb0.l5>:
    80600034:	073a5863          	bge	s4,s3,806000a4 <tc.bb2>

0000000080600038 <tc.bb0.l6>:
    80600038:	462a0a9b          	addiw	s5,s4,1122

000000008060003c <tc.bb0.l7>:
    8060003c:	41ea599b          	sraiw	s3,s4,0x1e

0000000080600040 <tc.bb0.l8>:
    80600040:	076ae263          	bltu	s5,s6,806000a4 <tc.bb2>

0000000080600044 <tc.bb1>:
    80600044:	6019cb13          	xori	s6,s3,1537

0000000080600048 <tc.bb1.l1>:
    80600048:	033a3ab3          	mulhu	s5,s4,s3

000000008060004c <tc.bb1.l2>:
    8060004c:	036a4abb          	divw	s5,s4,s6

0000000080600050 <tc.bb1.l3>:
    80600050:	3f8afa93          	andi	s5,s5,1016
    80600054:	00009a17          	auipc	s4,0x9
    80600058:	faca0a13          	addi	s4,s4,-84 # 80609000 <data7>
    8060005c:	014a8ab3          	add	s5,s5,s4
    80600060:	008acb03          	lbu	s6,8(s5)

0000000080600064 <tc.bb1.l4>:
    80600064:	3f8afa93          	andi	s5,s5,1016
    80600068:	00009917          	auipc	s2,0x9
    8060006c:	f9890913          	addi	s2,s2,-104 # 80609000 <data7>
    80600070:	012a8ab3          	add	s5,s5,s2
    80600074:	002adb03          	lhu	s6,2(s5)

0000000080600078 <tc.bb1.l5>:
    80600078:	3f89f993          	andi	s3,s3,1016
    8060007c:	00003a17          	auipc	s4,0x3
    80600080:	f84a0a13          	addi	s4,s4,-124 # 80603000 <data1>
    80600084:	014989b3          	add	s3,s3,s4
    80600088:	4159bb2f          	amoor.d	s6,s5,(s3)

000000008060008c <tc.bb1.l6>:
    8060008c:	3f897913          	andi	s2,s2,1016
    80600090:	00006a97          	auipc	s5,0x6
    80600094:	f70a8a93          	addi	s5,s5,-144 # 80606000 <data4>
    80600098:	01590933          	add	s2,s2,s5
    8060009c:	00891983          	lh	s3,8(s2)

00000000806000a0 <tc.bb1.l7>:
    806000a0:	07497663          	bgeu	s2,s4,8060010c <attack_end>

00000000806000a4 <tc.bb2>:
    806000a4:	0a20b1d3          	fsub.d	ft3,ft1,ft2,rup

00000000806000a8 <tc.bb2.l1>:
    806000a8:	0ff0000f          	fence

00000000806000ac <tc.bb2.l2>:
    806000ac:	580030d3          	fsqrt.s	ft1,ft0,rup

00000000806000b0 <tc.bb2.l3>:
    806000b0:	223000d3          	fsgnj.d	ft1,ft0,ft3

00000000806000b4 <tc.bb2.l4>:
    806000b4:	3f8a7a13          	andi	s4,s4,1016
    806000b8:	00009997          	auipc	s3,0x9
    806000bc:	f4898993          	addi	s3,s3,-184 # 80609000 <data7>
    806000c0:	013a0a33          	add	s4,s4,s3
    806000c4:	215a2b2f          	amoxor.w	s6,s5,(s4)

00000000806000c8 <tc.bb2.l5>:
    806000c8:	3f89f993          	andi	s3,s3,1016
    806000cc:	00006b17          	auipc	s6,0x6
    806000d0:	f34b0b13          	addi	s6,s6,-204 # 80606000 <data4>
    806000d4:	016989b3          	add	s3,s3,s6
    806000d8:	e129ba2f          	amomaxu.d	s4,s2,(s3)

00000000806000dc <tc.bb2.l6>:
    806000dc:	d20b0153          	fcvt.d.w	ft2,s6

00000000806000e0 <tc.bb2.l7>:
    806000e0:	00400b6f          	jal	s6,806000e4 <tc.bb3>

00000000806000e4 <tc.bb3>:
    806000e4:	2a018153          	fmin.d	ft2,ft3,ft0

00000000806000e8 <tc.bb3.l1>:
    806000e8:	03496b33          	rem	s6,s2,s4

00000000806000ec <tc.bb3.l2>:
    806000ec:	a0321953          	flt.s	s2,ft4,ft3

00000000806000f0 <tc.bb3.l3>:
    806000f0:	7a9000ef          	jal	ra,80601098 <fn3.exit>

00000000806000f4 <tc.bb3.l4>:
    806000f4:	081221d3          	fsub.s	ft3,ft4,ft1,rdn

00000000806000f8 <tc.bb3.l5>:
    806000f8:	72c98a93          	addi	s5,s3,1836

00000000806000fc <tc.bb3.l6>:
    806000fc:	419ad99b          	sraiw	s3,s5,0x19

0000000080600100 <tc.bb3.l7>:
    80600100:	0349fabb          	remuw	s5,s3,s4

0000000080600104 <tc.bb3.l8>:
    80600104:	012a5463          	bge	s4,s2,8060010c <attack_end>

0000000080600108 <tc.bb3.l9>:
    80600108:	01595263          	bge	s2,s5,8060010c <attack_end>

000000008060010c <attack_end>:
    8060010c:	00000073          	ecall
    80600110:	00000013          	nop
    80600114:	00000013          	nop
    80600118:	00000013          	nop
    8060011c:	00000013          	nop
    80600120:	00000013          	nop
    80600124:	00000013          	nop
    80600128:	00000013          	nop
    8060012c:	00000013          	nop
    80600130:	00000013          	nop
    80600134:	00000013          	nop
    80600138:	00000013          	nop
    8060013c:	00000013          	nop

0000000080600140 <spdoc>:
	...
    80600148:	00000013          	nop
    8060014c:	00000013          	nop
    80600150:	00000013          	nop
    80600154:	00000013          	nop
    80600158:	00000013          	nop
    8060015c:	00000013          	nop
    80600160:	00000013          	nop
    80600164:	00000013          	nop
    80600168:	00000013          	nop
    8060016c:	00000013          	nop
    80600170:	00000013          	nop
    80600174:	00000013          	nop
    80600178:	00000013          	nop
    8060017c:	00000013          	nop
    80600180:	00000013          	nop
    80600184:	00000013          	nop
    80600188:	00000013          	nop
    8060018c:	00000013          	nop
    80600190:	00000013          	nop
    80600194:	00000013          	nop
    80600198:	00000013          	nop
    8060019c:	00000013          	nop
    806001a0:	00000013          	nop
    806001a4:	00000013          	nop
    806001a8:	00000013          	nop
    806001ac:	00000013          	nop
    806001b0:	00000013          	nop
    806001b4:	00000013          	nop
    806001b8:	00000013          	nop
    806001bc:	00000013          	nop
    806001c0:	00000013          	nop
    806001c4:	00000013          	nop
    806001c8:	00000013          	nop
    806001cc:	00000013          	nop
    806001d0:	00000013          	nop
    806001d4:	00000013          	nop
    806001d8:	00000013          	nop
    806001dc:	00000013          	nop
    806001e0:	00000013          	nop
    806001e4:	00000013          	nop
    806001e8:	00000013          	nop
    806001ec:	00000013          	nop
    806001f0:	00000013          	nop
    806001f4:	00000013          	nop
    806001f8:	00000013          	nop
    806001fc:	00000013          	nop
    80600200:	00000013          	nop
    80600204:	00000013          	nop
    80600208:	00000013          	nop
    8060020c:	00000013          	nop
    80600210:	00000013          	nop
    80600214:	00000013          	nop
    80600218:	00000013          	nop
    8060021c:	00000013          	nop
    80600220:	00000013          	nop
    80600224:	00000013          	nop
    80600228:	00000013          	nop
    8060022c:	00000013          	nop
    80600230:	00000013          	nop
    80600234:	00000013          	nop
    80600238:	00000013          	nop
    8060023c:	00000013          	nop
    80600240:	00000013          	nop
    80600244:	00000013          	nop
    80600248:	00000013          	nop
    8060024c:	00000013          	nop
    80600250:	00000013          	nop
    80600254:	00000013          	nop
    80600258:	00000013          	nop
    8060025c:	00000013          	nop
    80600260:	00000013          	nop
    80600264:	00000013          	nop
    80600268:	00000013          	nop
    8060026c:	00000013          	nop
    80600270:	00000013          	nop
    80600274:	00000013          	nop
    80600278:	00000013          	nop
    8060027c:	00000013          	nop
    80600280:	00000013          	nop
    80600284:	00000013          	nop
    80600288:	00000013          	nop
    8060028c:	00000013          	nop
    80600290:	00000013          	nop
    80600294:	00000013          	nop
    80600298:	00000013          	nop
    8060029c:	00000013          	nop
    806002a0:	00000013          	nop
    806002a4:	00000013          	nop
    806002a8:	00000013          	nop
    806002ac:	00000013          	nop
    806002b0:	00000013          	nop
    806002b4:	00000013          	nop
    806002b8:	00000013          	nop
    806002bc:	00000013          	nop
    806002c0:	00000013          	nop
    806002c4:	00000013          	nop
    806002c8:	00000013          	nop
    806002cc:	00000013          	nop
    806002d0:	00000013          	nop
    806002d4:	00000013          	nop
    806002d8:	00000013          	nop
    806002dc:	00000013          	nop
    806002e0:	00000013          	nop
    806002e4:	00000013          	nop
    806002e8:	00000013          	nop
    806002ec:	00000013          	nop
    806002f0:	00000013          	nop
    806002f4:	00000013          	nop
    806002f8:	00000013          	nop
    806002fc:	00000013          	nop
    80600300:	00000013          	nop
    80600304:	00000013          	nop
    80600308:	00000013          	nop
    8060030c:	00000013          	nop
    80600310:	00000013          	nop
    80600314:	00000013          	nop
    80600318:	00000013          	nop
    8060031c:	00000013          	nop
    80600320:	00000013          	nop
    80600324:	00000013          	nop
    80600328:	00000013          	nop
    8060032c:	00000013          	nop
    80600330:	00000013          	nop
    80600334:	00000013          	nop
    80600338:	00000013          	nop
    8060033c:	00000013          	nop
    80600340:	00000013          	nop
    80600344:	00000013          	nop
    80600348:	00000013          	nop
    8060034c:	00000013          	nop
    80600350:	00000013          	nop
    80600354:	00000013          	nop
    80600358:	00000013          	nop
    8060035c:	00000013          	nop
    80600360:	00000013          	nop
    80600364:	00000013          	nop
    80600368:	00000013          	nop
    8060036c:	00000013          	nop
    80600370:	00000013          	nop
    80600374:	00000013          	nop
    80600378:	00000013          	nop
    8060037c:	00000013          	nop
    80600380:	00000013          	nop
    80600384:	00000013          	nop
    80600388:	00000013          	nop
    8060038c:	00000013          	nop
    80600390:	00000013          	nop
    80600394:	00000013          	nop
    80600398:	00000013          	nop
    8060039c:	00000013          	nop
    806003a0:	00000013          	nop
    806003a4:	00000013          	nop
    806003a8:	00000013          	nop
    806003ac:	00000013          	nop
    806003b0:	00000013          	nop
    806003b4:	00000013          	nop
    806003b8:	00000013          	nop
    806003bc:	00000013          	nop
    806003c0:	00000013          	nop
    806003c4:	00000013          	nop
    806003c8:	00000013          	nop
    806003cc:	00000013          	nop
    806003d0:	00000013          	nop
    806003d4:	00000013          	nop
    806003d8:	00000013          	nop
    806003dc:	00000013          	nop
    806003e0:	00000013          	nop
    806003e4:	00000013          	nop
    806003e8:	00000013          	nop
    806003ec:	00000013          	nop
    806003f0:	00000013          	nop
    806003f4:	00000013          	nop
    806003f8:	00000013          	nop
    806003fc:	00000013          	nop
    80600400:	00000013          	nop
    80600404:	00000013          	nop
    80600408:	00000013          	nop
    8060040c:	00000013          	nop
    80600410:	00000013          	nop
    80600414:	00000013          	nop
    80600418:	00000013          	nop
    8060041c:	00000013          	nop
    80600420:	00000013          	nop
    80600424:	00000013          	nop
    80600428:	00000013          	nop
    8060042c:	00000013          	nop
    80600430:	00000013          	nop
    80600434:	00000013          	nop
    80600438:	00000013          	nop
    8060043c:	00000013          	nop
    80600440:	00000013          	nop
    80600444:	00000013          	nop
    80600448:	00000013          	nop
    8060044c:	00000013          	nop
    80600450:	00000013          	nop
    80600454:	00000013          	nop
    80600458:	00000013          	nop
    8060045c:	00000013          	nop
    80600460:	00000013          	nop
    80600464:	00000013          	nop
    80600468:	00000013          	nop
    8060046c:	00000013          	nop
    80600470:	00000013          	nop
    80600474:	00000013          	nop
    80600478:	00000013          	nop
    8060047c:	00000013          	nop
    80600480:	00000013          	nop
    80600484:	00000013          	nop
    80600488:	00000013          	nop
    8060048c:	00000013          	nop
    80600490:	00000013          	nop
    80600494:	00000013          	nop
    80600498:	00000013          	nop
    8060049c:	00000013          	nop
    806004a0:	00000013          	nop
    806004a4:	00000013          	nop
    806004a8:	00000013          	nop
    806004ac:	00000013          	nop
    806004b0:	00000013          	nop
    806004b4:	00000013          	nop
    806004b8:	00000013          	nop
    806004bc:	00000013          	nop
    806004c0:	00000013          	nop
    806004c4:	00000013          	nop
    806004c8:	00000013          	nop
    806004cc:	00000013          	nop
    806004d0:	00000013          	nop
    806004d4:	00000013          	nop
    806004d8:	00000013          	nop
    806004dc:	00000013          	nop
    806004e0:	00000013          	nop
    806004e4:	00000013          	nop
    806004e8:	00000013          	nop
    806004ec:	00000013          	nop
    806004f0:	00000013          	nop
    806004f4:	00000013          	nop
    806004f8:	00000013          	nop
    806004fc:	00000013          	nop
    80600500:	00000013          	nop
    80600504:	00000013          	nop
    80600508:	00000013          	nop
    8060050c:	00000013          	nop
    80600510:	00000013          	nop
    80600514:	00000013          	nop
    80600518:	00000013          	nop
    8060051c:	00000013          	nop
    80600520:	00000013          	nop
    80600524:	00000013          	nop
    80600528:	00000013          	nop
    8060052c:	00000013          	nop
    80600530:	00000013          	nop
    80600534:	00000013          	nop
    80600538:	00000013          	nop
    8060053c:	00000013          	nop
    80600540:	00000013          	nop
    80600544:	00000013          	nop
    80600548:	00000013          	nop
    8060054c:	00000013          	nop
    80600550:	00000013          	nop
    80600554:	00000013          	nop
    80600558:	00000013          	nop
    8060055c:	00000013          	nop
    80600560:	00000013          	nop
    80600564:	00000013          	nop
    80600568:	00000013          	nop
    8060056c:	00000013          	nop
    80600570:	00000013          	nop
    80600574:	00000013          	nop
    80600578:	00000013          	nop
    8060057c:	00000013          	nop
    80600580:	00000013          	nop
    80600584:	00000013          	nop
    80600588:	00000013          	nop
    8060058c:	00000013          	nop
    80600590:	00000013          	nop
    80600594:	00000013          	nop
    80600598:	00000013          	nop
    8060059c:	00000013          	nop
    806005a0:	00000013          	nop
    806005a4:	00000013          	nop
    806005a8:	00000013          	nop
    806005ac:	00000013          	nop
    806005b0:	00000013          	nop
    806005b4:	00000013          	nop
    806005b8:	00000013          	nop
    806005bc:	00000013          	nop
    806005c0:	00000013          	nop
    806005c4:	00000013          	nop
    806005c8:	00000013          	nop
    806005cc:	00000013          	nop
    806005d0:	00000013          	nop
    806005d4:	00000013          	nop
    806005d8:	00000013          	nop
    806005dc:	00000013          	nop
    806005e0:	00000013          	nop
    806005e4:	00000013          	nop
    806005e8:	00000013          	nop
    806005ec:	00000013          	nop
    806005f0:	00000013          	nop
    806005f4:	00000013          	nop
    806005f8:	00000013          	nop
    806005fc:	00000013          	nop
    80600600:	00000013          	nop
    80600604:	00000013          	nop
    80600608:	00000013          	nop
    8060060c:	00000013          	nop
    80600610:	00000013          	nop
    80600614:	00000013          	nop
    80600618:	00000013          	nop
    8060061c:	00000013          	nop
    80600620:	00000013          	nop
    80600624:	00000013          	nop
    80600628:	00000013          	nop
    8060062c:	00000013          	nop
    80600630:	00000013          	nop
    80600634:	00000013          	nop
    80600638:	00000013          	nop
    8060063c:	00000013          	nop
    80600640:	00000013          	nop
    80600644:	00000013          	nop
    80600648:	00000013          	nop
    8060064c:	00000013          	nop
    80600650:	00000013          	nop
    80600654:	00000013          	nop
    80600658:	00000013          	nop
    8060065c:	00000013          	nop
    80600660:	00000013          	nop
    80600664:	00000013          	nop
    80600668:	00000013          	nop
    8060066c:	00000013          	nop
    80600670:	00000013          	nop
    80600674:	00000013          	nop
    80600678:	00000013          	nop
    8060067c:	00000013          	nop
    80600680:	00000013          	nop
    80600684:	00000013          	nop
    80600688:	00000013          	nop
    8060068c:	00000013          	nop
    80600690:	00000013          	nop
    80600694:	00000013          	nop
    80600698:	00000013          	nop
    8060069c:	00000013          	nop
    806006a0:	00000013          	nop
    806006a4:	00000013          	nop
    806006a8:	00000013          	nop
    806006ac:	00000013          	nop
    806006b0:	00000013          	nop
    806006b4:	00000013          	nop
    806006b8:	00000013          	nop
    806006bc:	00000013          	nop
    806006c0:	00000013          	nop
    806006c4:	00000013          	nop
    806006c8:	00000013          	nop
    806006cc:	00000013          	nop
    806006d0:	00000013          	nop
    806006d4:	00000013          	nop
    806006d8:	00000013          	nop
    806006dc:	00000013          	nop
    806006e0:	00000013          	nop
    806006e4:	00000013          	nop
    806006e8:	00000013          	nop
    806006ec:	00000013          	nop
    806006f0:	00000013          	nop
    806006f4:	00000013          	nop
    806006f8:	00000013          	nop
    806006fc:	00000013          	nop
    80600700:	00000013          	nop
    80600704:	00000013          	nop
    80600708:	00000013          	nop
    8060070c:	00000013          	nop
    80600710:	00000013          	nop
    80600714:	00000013          	nop
    80600718:	00000013          	nop
    8060071c:	00000013          	nop
    80600720:	00000013          	nop
    80600724:	00000013          	nop
    80600728:	00000013          	nop
    8060072c:	00000013          	nop
    80600730:	00000013          	nop
    80600734:	00000013          	nop
    80600738:	00000013          	nop
    8060073c:	00000013          	nop
    80600740:	00000013          	nop
    80600744:	00000013          	nop
    80600748:	00000013          	nop
    8060074c:	00000013          	nop
    80600750:	00000013          	nop
    80600754:	00000013          	nop
    80600758:	00000013          	nop
    8060075c:	00000013          	nop
    80600760:	00000013          	nop
    80600764:	00000013          	nop
    80600768:	00000013          	nop
    8060076c:	00000013          	nop
    80600770:	00000013          	nop
    80600774:	00000013          	nop
    80600778:	00000013          	nop
    8060077c:	00000013          	nop
    80600780:	00000013          	nop
    80600784:	00000013          	nop
    80600788:	00000013          	nop
    8060078c:	00000013          	nop
    80600790:	00000013          	nop
    80600794:	00000013          	nop
    80600798:	00000013          	nop
    8060079c:	00000013          	nop
    806007a0:	00000013          	nop
    806007a4:	00000013          	nop
    806007a8:	00000013          	nop
    806007ac:	00000013          	nop
    806007b0:	00000013          	nop
    806007b4:	00000013          	nop
    806007b8:	00000013          	nop
    806007bc:	00000013          	nop
    806007c0:	00000013          	nop
    806007c4:	00000013          	nop
    806007c8:	00000013          	nop
    806007cc:	00000013          	nop
    806007d0:	00000013          	nop
    806007d4:	00000013          	nop
    806007d8:	00000013          	nop
    806007dc:	00000013          	nop
    806007e0:	00000013          	nop
    806007e4:	00000013          	nop
    806007e8:	00000013          	nop
    806007ec:	00000013          	nop
    806007f0:	00000013          	nop
    806007f4:	00000013          	nop
    806007f8:	00000013          	nop
    806007fc:	00000013          	nop
    80600800:	00000013          	nop
    80600804:	00000013          	nop
    80600808:	00000013          	nop
    8060080c:	00000013          	nop
    80600810:	00000013          	nop
    80600814:	00000013          	nop
    80600818:	00000013          	nop
    8060081c:	00000013          	nop
    80600820:	00000013          	nop
    80600824:	00000013          	nop
    80600828:	00000013          	nop
    8060082c:	00000013          	nop
    80600830:	00000013          	nop
    80600834:	00000013          	nop
    80600838:	00000013          	nop
    8060083c:	00000013          	nop
    80600840:	00000013          	nop
    80600844:	00000013          	nop
    80600848:	00000013          	nop
    8060084c:	00000013          	nop
    80600850:	00000013          	nop
    80600854:	00000013          	nop
    80600858:	00000013          	nop
    8060085c:	00000013          	nop
    80600860:	00000013          	nop
    80600864:	00000013          	nop
    80600868:	00000013          	nop
    8060086c:	00000013          	nop
    80600870:	00000013          	nop
    80600874:	00000013          	nop
    80600878:	00000013          	nop
    8060087c:	00000013          	nop
    80600880:	00000013          	nop
    80600884:	00000013          	nop
    80600888:	00000013          	nop
    8060088c:	00000013          	nop
    80600890:	00000013          	nop
    80600894:	00000013          	nop
    80600898:	00000013          	nop
    8060089c:	00000013          	nop
    806008a0:	00000013          	nop
    806008a4:	00000013          	nop
    806008a8:	00000013          	nop
    806008ac:	00000013          	nop
    806008b0:	00000013          	nop
    806008b4:	00000013          	nop
    806008b8:	00000013          	nop
    806008bc:	00000013          	nop
    806008c0:	00000013          	nop
    806008c4:	00000013          	nop
    806008c8:	00000013          	nop
    806008cc:	00000013          	nop
    806008d0:	00000013          	nop
    806008d4:	00000013          	nop
    806008d8:	00000013          	nop
    806008dc:	00000013          	nop
    806008e0:	00000013          	nop
    806008e4:	00000013          	nop
    806008e8:	00000013          	nop
    806008ec:	00000013          	nop
    806008f0:	00000013          	nop
    806008f4:	00000013          	nop
    806008f8:	00000013          	nop
    806008fc:	00000013          	nop
    80600900:	00000013          	nop
    80600904:	00000013          	nop
    80600908:	00000013          	nop
    8060090c:	00000013          	nop
    80600910:	00000013          	nop
    80600914:	00000013          	nop
    80600918:	00000013          	nop
    8060091c:	00000013          	nop
    80600920:	00000013          	nop
    80600924:	00000013          	nop
    80600928:	00000013          	nop
    8060092c:	00000013          	nop
    80600930:	00000013          	nop
    80600934:	00000013          	nop
    80600938:	00000013          	nop
    8060093c:	00000013          	nop
    80600940:	00000013          	nop
    80600944:	00000013          	nop
    80600948:	00000013          	nop
    8060094c:	00000013          	nop
    80600950:	00000013          	nop
    80600954:	00000013          	nop
    80600958:	00000013          	nop
    8060095c:	00000013          	nop
    80600960:	00000013          	nop
    80600964:	00000013          	nop
    80600968:	00000013          	nop
    8060096c:	00000013          	nop
    80600970:	00000013          	nop
    80600974:	00000013          	nop
    80600978:	00000013          	nop
    8060097c:	00000013          	nop
    80600980:	00000013          	nop
    80600984:	00000013          	nop
    80600988:	00000013          	nop
    8060098c:	00000013          	nop
    80600990:	00000013          	nop
    80600994:	00000013          	nop
    80600998:	00000013          	nop
    8060099c:	00000013          	nop
    806009a0:	00000013          	nop
    806009a4:	00000013          	nop
    806009a8:	00000013          	nop
    806009ac:	00000013          	nop
    806009b0:	00000013          	nop
    806009b4:	00000013          	nop
    806009b8:	00000013          	nop
    806009bc:	00000013          	nop
    806009c0:	00000013          	nop
    806009c4:	00000013          	nop
    806009c8:	00000013          	nop
    806009cc:	00000013          	nop
    806009d0:	00000013          	nop
    806009d4:	00000013          	nop
    806009d8:	00000013          	nop
    806009dc:	00000013          	nop
    806009e0:	00000013          	nop
    806009e4:	00000013          	nop
    806009e8:	00000013          	nop
    806009ec:	00000013          	nop
    806009f0:	00000013          	nop
    806009f4:	00000013          	nop
    806009f8:	00000013          	nop
    806009fc:	00000013          	nop
    80600a00:	00000013          	nop
    80600a04:	00000013          	nop
    80600a08:	00000013          	nop
    80600a0c:	00000013          	nop
    80600a10:	00000013          	nop
    80600a14:	00000013          	nop
    80600a18:	00000013          	nop
    80600a1c:	00000013          	nop
    80600a20:	00000013          	nop
    80600a24:	00000013          	nop
    80600a28:	00000013          	nop
    80600a2c:	00000013          	nop
    80600a30:	00000013          	nop
    80600a34:	00000013          	nop
    80600a38:	00000013          	nop
    80600a3c:	00000013          	nop
    80600a40:	00000013          	nop
    80600a44:	00000013          	nop
    80600a48:	00000013          	nop
    80600a4c:	00000013          	nop
    80600a50:	00000013          	nop
    80600a54:	00000013          	nop
    80600a58:	00000013          	nop
    80600a5c:	00000013          	nop
    80600a60:	00000013          	nop
    80600a64:	00000013          	nop
    80600a68:	00000013          	nop
    80600a6c:	00000013          	nop
    80600a70:	00000013          	nop
    80600a74:	00000013          	nop
    80600a78:	00000013          	nop
    80600a7c:	00000013          	nop
    80600a80:	00000013          	nop
    80600a84:	00000013          	nop
    80600a88:	00000013          	nop
    80600a8c:	00000013          	nop
    80600a90:	00000013          	nop
    80600a94:	00000013          	nop
    80600a98:	00000013          	nop
    80600a9c:	00000013          	nop
    80600aa0:	00000013          	nop
    80600aa4:	00000013          	nop
    80600aa8:	00000013          	nop
    80600aac:	00000013          	nop
    80600ab0:	00000013          	nop
    80600ab4:	00000013          	nop
    80600ab8:	00000013          	nop
    80600abc:	00000013          	nop
    80600ac0:	00000013          	nop
    80600ac4:	00000013          	nop
    80600ac8:	00000013          	nop
    80600acc:	00000013          	nop
    80600ad0:	00000013          	nop
    80600ad4:	00000013          	nop
    80600ad8:	00000013          	nop
    80600adc:	00000013          	nop
    80600ae0:	00000013          	nop
    80600ae4:	00000013          	nop
    80600ae8:	00000013          	nop
    80600aec:	00000013          	nop
    80600af0:	00000013          	nop
    80600af4:	00000013          	nop
    80600af8:	00000013          	nop
    80600afc:	00000013          	nop
    80600b00:	00000013          	nop
    80600b04:	00000013          	nop
    80600b08:	00000013          	nop
    80600b0c:	00000013          	nop
    80600b10:	00000013          	nop
    80600b14:	00000013          	nop
    80600b18:	00000013          	nop
    80600b1c:	00000013          	nop
    80600b20:	00000013          	nop
    80600b24:	00000013          	nop
    80600b28:	00000013          	nop
    80600b2c:	00000013          	nop
    80600b30:	00000013          	nop
    80600b34:	00000013          	nop
    80600b38:	00000013          	nop
    80600b3c:	00000013          	nop
    80600b40:	00000013          	nop
    80600b44:	00000013          	nop
    80600b48:	00000013          	nop
    80600b4c:	00000013          	nop
    80600b50:	00000013          	nop
    80600b54:	00000013          	nop
    80600b58:	00000013          	nop
    80600b5c:	00000013          	nop
    80600b60:	00000013          	nop
    80600b64:	00000013          	nop
    80600b68:	00000013          	nop
    80600b6c:	00000013          	nop
    80600b70:	00000013          	nop
    80600b74:	00000013          	nop
    80600b78:	00000013          	nop
    80600b7c:	00000013          	nop
    80600b80:	00000013          	nop
    80600b84:	00000013          	nop
    80600b88:	00000013          	nop
    80600b8c:	00000013          	nop
    80600b90:	00000013          	nop
    80600b94:	00000013          	nop
    80600b98:	00000013          	nop
    80600b9c:	00000013          	nop
    80600ba0:	00000013          	nop
    80600ba4:	00000013          	nop
    80600ba8:	00000013          	nop
    80600bac:	00000013          	nop
    80600bb0:	00000013          	nop
    80600bb4:	00000013          	nop
    80600bb8:	00000013          	nop
    80600bbc:	00000013          	nop
    80600bc0:	00000013          	nop
    80600bc4:	00000013          	nop
    80600bc8:	00000013          	nop
    80600bcc:	00000013          	nop
    80600bd0:	00000013          	nop
    80600bd4:	00000013          	nop
    80600bd8:	00000013          	nop
    80600bdc:	00000013          	nop
    80600be0:	00000013          	nop
    80600be4:	00000013          	nop
    80600be8:	00000013          	nop
    80600bec:	00000013          	nop
    80600bf0:	00000013          	nop
    80600bf4:	00000013          	nop
    80600bf8:	00000013          	nop
    80600bfc:	00000013          	nop
    80600c00:	00000013          	nop
    80600c04:	00000013          	nop
    80600c08:	00000013          	nop
    80600c0c:	00000013          	nop
    80600c10:	00000013          	nop
    80600c14:	00000013          	nop
    80600c18:	00000013          	nop
    80600c1c:	00000013          	nop
    80600c20:	00000013          	nop
    80600c24:	00000013          	nop
    80600c28:	00000013          	nop
    80600c2c:	00000013          	nop
    80600c30:	00000013          	nop
    80600c34:	00000013          	nop
    80600c38:	00000013          	nop
    80600c3c:	00000013          	nop
    80600c40:	00000013          	nop
    80600c44:	00000013          	nop
    80600c48:	00000013          	nop
    80600c4c:	00000013          	nop
    80600c50:	00000013          	nop
    80600c54:	00000013          	nop
    80600c58:	00000013          	nop
    80600c5c:	00000013          	nop
    80600c60:	00000013          	nop
    80600c64:	00000013          	nop
    80600c68:	00000013          	nop
    80600c6c:	00000013          	nop
    80600c70:	00000013          	nop
    80600c74:	00000013          	nop
    80600c78:	00000013          	nop
    80600c7c:	00000013          	nop
    80600c80:	00000013          	nop
    80600c84:	00000013          	nop
    80600c88:	00000013          	nop
    80600c8c:	00000013          	nop
    80600c90:	00000013          	nop
    80600c94:	00000013          	nop
    80600c98:	00000013          	nop
    80600c9c:	00000013          	nop
    80600ca0:	00000013          	nop
    80600ca4:	00000013          	nop
    80600ca8:	00000013          	nop
    80600cac:	00000013          	nop
    80600cb0:	00000013          	nop
    80600cb4:	00000013          	nop
    80600cb8:	00000013          	nop
    80600cbc:	00000013          	nop
    80600cc0:	00000013          	nop
    80600cc4:	00000013          	nop
    80600cc8:	00000013          	nop
    80600ccc:	00000013          	nop
    80600cd0:	00000013          	nop
    80600cd4:	00000013          	nop
    80600cd8:	00000013          	nop
    80600cdc:	00000013          	nop
    80600ce0:	00000013          	nop
    80600ce4:	00000013          	nop
    80600ce8:	00000013          	nop
    80600cec:	00000013          	nop
    80600cf0:	00000013          	nop
    80600cf4:	00000013          	nop
    80600cf8:	00000013          	nop
    80600cfc:	00000013          	nop
    80600d00:	00000013          	nop
    80600d04:	00000013          	nop
    80600d08:	00000013          	nop
    80600d0c:	00000013          	nop
    80600d10:	00000013          	nop
    80600d14:	00000013          	nop
    80600d18:	00000013          	nop
    80600d1c:	00000013          	nop
    80600d20:	00000013          	nop
    80600d24:	00000013          	nop
    80600d28:	00000013          	nop
    80600d2c:	00000013          	nop
    80600d30:	00000013          	nop
    80600d34:	00000013          	nop
    80600d38:	00000013          	nop
    80600d3c:	00000013          	nop
    80600d40:	00000013          	nop
    80600d44:	00000013          	nop
    80600d48:	00000013          	nop
    80600d4c:	00000013          	nop
    80600d50:	00000013          	nop
    80600d54:	00000013          	nop
    80600d58:	00000013          	nop
    80600d5c:	00000013          	nop
    80600d60:	00000013          	nop
    80600d64:	00000013          	nop
    80600d68:	00000013          	nop
    80600d6c:	00000013          	nop
    80600d70:	00000013          	nop
    80600d74:	00000013          	nop
    80600d78:	00000013          	nop
    80600d7c:	00000013          	nop
    80600d80:	00000013          	nop
    80600d84:	00000013          	nop
    80600d88:	00000013          	nop
    80600d8c:	00000013          	nop
    80600d90:	00000013          	nop
    80600d94:	00000013          	nop
    80600d98:	00000013          	nop
    80600d9c:	00000013          	nop
    80600da0:	00000013          	nop
    80600da4:	00000013          	nop
    80600da8:	00000013          	nop
    80600dac:	00000013          	nop
    80600db0:	00000013          	nop
    80600db4:	00000013          	nop
    80600db8:	00000013          	nop
    80600dbc:	00000013          	nop
    80600dc0:	00000013          	nop
    80600dc4:	00000013          	nop
    80600dc8:	00000013          	nop
    80600dcc:	00000013          	nop
    80600dd0:	00000013          	nop
    80600dd4:	00000013          	nop
    80600dd8:	00000013          	nop
    80600ddc:	00000013          	nop
    80600de0:	00000013          	nop
    80600de4:	00000013          	nop
    80600de8:	00000013          	nop
    80600dec:	00000013          	nop
    80600df0:	00000013          	nop
    80600df4:	00000013          	nop
    80600df8:	00000013          	nop
    80600dfc:	00000013          	nop
    80600e00:	00000013          	nop
    80600e04:	00000013          	nop
    80600e08:	00000013          	nop
    80600e0c:	00000013          	nop
    80600e10:	00000013          	nop
    80600e14:	00000013          	nop
    80600e18:	00000013          	nop
    80600e1c:	00000013          	nop
    80600e20:	00000013          	nop
    80600e24:	00000013          	nop
    80600e28:	00000013          	nop
    80600e2c:	00000013          	nop
    80600e30:	00000013          	nop
    80600e34:	00000013          	nop
    80600e38:	00000013          	nop
    80600e3c:	00000013          	nop
    80600e40:	00000013          	nop
    80600e44:	00000013          	nop
    80600e48:	00000013          	nop
    80600e4c:	00000013          	nop
    80600e50:	00000013          	nop
    80600e54:	00000013          	nop
    80600e58:	00000013          	nop
    80600e5c:	00000013          	nop
    80600e60:	00000013          	nop
    80600e64:	00000013          	nop
    80600e68:	00000013          	nop
    80600e6c:	00000013          	nop
    80600e70:	00000013          	nop
    80600e74:	00000013          	nop
    80600e78:	00000013          	nop
    80600e7c:	00000013          	nop
    80600e80:	00000013          	nop
    80600e84:	00000013          	nop
    80600e88:	00000013          	nop
    80600e8c:	00000013          	nop
    80600e90:	00000013          	nop
    80600e94:	00000013          	nop
    80600e98:	00000013          	nop
    80600e9c:	00000013          	nop
    80600ea0:	00000013          	nop
    80600ea4:	00000013          	nop
    80600ea8:	00000013          	nop
    80600eac:	00000013          	nop
    80600eb0:	00000013          	nop
    80600eb4:	00000013          	nop
    80600eb8:	00000013          	nop
    80600ebc:	00000013          	nop
    80600ec0:	00000013          	nop
    80600ec4:	00000013          	nop
    80600ec8:	00000013          	nop
    80600ecc:	00000013          	nop
    80600ed0:	00000013          	nop
    80600ed4:	00000013          	nop
    80600ed8:	00000013          	nop
    80600edc:	00000013          	nop
    80600ee0:	00000013          	nop
    80600ee4:	00000013          	nop
    80600ee8:	00000013          	nop
    80600eec:	00000013          	nop
    80600ef0:	00000013          	nop
    80600ef4:	00000013          	nop
    80600ef8:	00000013          	nop
    80600efc:	00000013          	nop
    80600f00:	00000013          	nop
    80600f04:	00000013          	nop
    80600f08:	00000013          	nop
    80600f0c:	00000013          	nop
    80600f10:	00000013          	nop
    80600f14:	00000013          	nop
    80600f18:	00000013          	nop
    80600f1c:	00000013          	nop
    80600f20:	00000013          	nop
    80600f24:	00000013          	nop
    80600f28:	00000013          	nop
    80600f2c:	00000013          	nop
    80600f30:	00000013          	nop
    80600f34:	00000013          	nop
    80600f38:	00000013          	nop
    80600f3c:	00000013          	nop
    80600f40:	00000013          	nop
    80600f44:	00000013          	nop
    80600f48:	00000013          	nop
    80600f4c:	00000013          	nop
    80600f50:	00000013          	nop
    80600f54:	00000013          	nop
    80600f58:	00000013          	nop
    80600f5c:	00000013          	nop
    80600f60:	00000013          	nop
    80600f64:	00000013          	nop
    80600f68:	00000013          	nop
    80600f6c:	00000013          	nop
    80600f70:	00000013          	nop
    80600f74:	00000013          	nop
    80600f78:	00000013          	nop
    80600f7c:	00000013          	nop
    80600f80:	00000013          	nop
    80600f84:	00000013          	nop
    80600f88:	00000013          	nop
    80600f8c:	00000013          	nop
    80600f90:	00000013          	nop
    80600f94:	00000013          	nop
    80600f98:	00000013          	nop
    80600f9c:	00000013          	nop
    80600fa0:	00000013          	nop
    80600fa4:	00000013          	nop
    80600fa8:	00000013          	nop
    80600fac:	00000013          	nop
    80600fb0:	00000013          	nop
    80600fb4:	00000013          	nop
    80600fb8:	00000013          	nop
    80600fbc:	00000013          	nop
    80600fc0:	00000013          	nop
    80600fc4:	00000013          	nop
    80600fc8:	00000013          	nop
    80600fcc:	00000013          	nop
    80600fd0:	00000013          	nop
    80600fd4:	00000013          	nop
    80600fd8:	00000013          	nop
    80600fdc:	00000013          	nop
    80600fe0:	00000013          	nop
    80600fe4:	00000013          	nop
    80600fe8:	00000013          	nop
    80600fec:	00000013          	nop
    80600ff0:	00000013          	nop
    80600ff4:	00000013          	nop
    80600ff8:	00000013          	nop
    80600ffc:	00000013          	nop

0000000080601000 <shared>:
    80601000:	c004fc53          	fcvt.w.s	s8,fs1

0000000080601004 <fn0.entry.l1>:
    80601004:	139d0d93          	addi	s11,s10,313

0000000080601008 <fn0.entry.l2>:
    80601008:	e2030bd3          	fmv.x.d	s7,ft6

000000008060100c <fn0.entry.l3>:
    8060100c:	d23bf353          	fcvt.d.lu	ft6,s7

0000000080601010 <fn0.entry.l4>:
    80601010:	2a6283d3          	fmin.d	ft7,ft5,ft6

0000000080601014 <fn0.entry.l5>:
    80601014:	28940353          	fmin.s	ft6,fs0,fs1

0000000080601018 <fn0.entry.l6>:
    80601018:	038becb3          	rem	s9,s7,s8

000000008060101c <fn0.entry.l7>:
    8060101c:	03ac3cb3          	mulhu	s9,s8,s10

0000000080601020 <fn0.entry.l8>:
    80601020:	00008067          	ret

0000000080601024 <fn0.exit>:
    80601024:	018cddb3          	srl	s11,s9,s8

0000000080601028 <fn1.entry.l1>:
    80601028:	449dfc93          	andi	s9,s11,1097

000000008060102c <fn1.entry.l2>:
    8060102c:	039c1db3          	mulh	s11,s8,s9

0000000080601030 <fn1.entry.l3>:
    80601030:	e2039cd3          	fclass.d	s9,ft7

0000000080601034 <fn1.entry.l4>:
    80601034:	d01c72d3          	fcvt.s.wu	ft5,s8

0000000080601038 <fn1.entry.l5>:
    80601038:	f20b83d3          	fmv.d.x	ft7,s7

000000008060103c <fn1.entry.l6>:
    8060103c:	2272a4d3          	fsgnjx.d	fs1,ft5,ft7

0000000080601040 <fn1.entry.l7>:
    80601040:	1064b3d3          	fmul.s	ft7,fs1,ft6,rup

0000000080601044 <fn1.entry.l8>:
    80601044:	00008067          	ret

0000000080601048 <fn1.exit>:
    80601048:	4a7372c3          	fmadd.d	ft5,ft6,ft7,fs1

000000008060104c <fn2.entry.l1>:
    8060104c:	0a7404d3          	fsub.d	fs1,fs0,ft7,rne

0000000080601050 <fn2.entry.l2>:
    80601050:	e0038dd3          	fmv.x.w	s11,ft7

0000000080601054 <fn2.entry.l3>:
    80601054:	e2039c53          	fclass.d	s8,ft7

0000000080601058 <fn2.entry.l4>:
    80601058:	08940353          	fsub.s	ft6,fs0,fs1,rne

000000008060105c <fn2.entry.l5>:
    8060105c:	6c3d0c9b          	addiw	s9,s10,1731

0000000080601060 <fn2.entry.l6>:
    80601060:	01ac7bb3          	and	s7,s8,s10

0000000080601064 <fn2.entry.l7>:
    80601064:	089442d3          	fsub.s	ft5,fs0,fs1,rmm

0000000080601068 <fn2.entry.l8>:
    80601068:	d03c74d3          	fcvt.s.lu	fs1,s8

000000008060106c <fn2.entry.l9>:
    8060106c:	04fd0b9b          	addiw	s7,s10,79

0000000080601070 <fn2.entry.l10>:
    80601070:	00008067          	ret

0000000080601074 <fn2.exit>:
    80601074:	038ced3b          	remw	s10,s9,s8

0000000080601078 <fn3.entry.l1>:
    80601078:	e2039cd3          	fclass.d	s9,ft7

000000008060107c <fn3.entry.l2>:
    8060107c:	038ddcbb          	divuw	s9,s11,s8

0000000080601080 <fn3.entry.l3>:
    80601080:	a054ad53          	feq.s	s10,fs1,ft5

0000000080601084 <fn3.entry.l4>:
    80601084:	d22df2d3          	fcvt.d.l	ft5,s11

0000000080601088 <fn3.entry.l5>:
    80601088:	d20c8353          	fcvt.d.w	ft6,s9

000000008060108c <fn3.entry.l6>:
    8060108c:	e0029bd3          	fclass.s	s7,ft5

0000000080601090 <fn3.entry.l7>:
    80601090:	086404d3          	fsub.s	fs1,fs0,ft6,rne

0000000080601094 <fn3.entry.l8>:
    80601094:	00008067          	ret

0000000080601098 <fn3.exit>:
    80601098:	0274b353          	fadd.d	ft6,fs1,ft7,rup

000000008060109c <fn4.entry.l1>:
    8060109c:	2a83a4c7          	fmsub.d	fs1,ft7,fs0,ft5,rdn

00000000806010a0 <fn4.entry.l2>:
    806010a0:	c0247bd3          	fcvt.l.s	s7,fs0

00000000806010a4 <fn4.entry.l3>:
    806010a4:	a2849dd3          	flt.d	s11,fs1,fs0

00000000806010a8 <fn4.entry.l4>:
    806010a8:	c2247c53          	fcvt.l.d	s8,fs0

00000000806010ac <fn4.entry.l5>:
    806010ac:	039d8bbb          	mulw	s7,s11,s9

00000000806010b0 <fn4.entry.l6>:
    806010b0:	004d9c9b          	slliw	s9,s11,0x4

00000000806010b4 <fn4.entry.l7>:
    806010b4:	03ac1bb3          	mulh	s7,s8,s10

00000000806010b8 <fn4.entry.l8>:
    806010b8:	c223fd53          	fcvt.l.d	s10,ft7

00000000806010bc <fn4.entry.l9>:
    806010bc:	00008067          	ret

00000000806010c0 <fn4.exit>:
	...

Disassembly of section .data:

0000000080602000 <data>:
    80602000:	ba4bdb2f          	0xba4bdb2f
    80602004:	d2b4                	sw	a3,96(a3)
    80602006:	7465                	lui	s0,0xffff9
    80602008:	4e76                	lw	t3,92(sp)
    8060200a:	d7bd651b          	0xd7bd651b
    8060200e:	c895aab3          	0xc895aab3
    80602012:	695a                	ld	s2,400(sp)
    80602014:	789f f705 5acb      	0x5acbf705789f
    8060201a:	4571                	li	a0,28
    8060201c:	571a3e7b          	0x571a3e7b
    80602020:	81fc30c7          	fmsub.s	ft1,fs8,ft11,fa6,rup
    80602024:	fd8e                	sd	gp,248(sp)
    80602026:	e4ce                	sd	s3,72(sp)
    80602028:	4225                	li	tp,9
    8060202a:	ddb4                	sw	a3,120(a1)
    8060202c:	43a66daf          	0x43a66daf
    80602030:	3550                	fld	fa2,168(a0)
    80602032:	a7f2d62f          	0xa7f2d62f
    80602036:	f402                	sd	zero,40(sp)
    80602038:	a751                	j	806027bc <data+0x7bc>
    8060203a:	91e1                	srli	a1,a1,0x38
    8060203c:	672a                	ld	a4,136(sp)
    8060203e:	b246                	fsd	fa7,288(sp)
    80602040:	0466                	slli	s0,s0,0x19
    80602042:	1768                	addi	a0,sp,940
    80602044:	1bfd                	addi	s7,s7,-1
    80602046:	b3c6                	fsd	fa7,480(sp)
    80602048:	88af197b          	0x88af197b
    8060204c:	932d                	srli	a4,a4,0x2b
    8060204e:	05506523          	0x5506523
    80602052:	e8d5                	bnez	s1,80602106 <data+0x106>
    80602054:	c4ff                	0xc4ff
    80602056:	6f66                	ld	t5,88(sp)
    80602058:	d12a3927          	fsd	fs2,-750(s4)
    8060205c:	c67e                	sw	t6,12(sp)
    8060205e:	2556                	fld	fa0,336(sp)
    80602060:	d2b2                	sw	a2,100(sp)
    80602062:	8f91                	sub	a5,a5,a2
    80602064:	4109                	li	sp,2
    80602066:	dce0                	sw	s0,124(s1)
    80602068:	0260                	addi	s0,sp,268
    8060206a:	650d                	lui	a0,0x3
    8060206c:	4494                	lw	a3,8(s1)
    8060206e:	7222                	ld	tp,40(sp)
    80602070:	4b15                	li	s6,5
    80602072:	eb74                	sd	a3,208(a4)
    80602074:	004f0207          	0x4f0207
    80602078:	c494                	sw	a3,8(s1)
    8060207a:	0011                	c.nop	4
    8060207c:	79b5                	lui	s3,0xfffed
    8060207e:	e4d0b093          	sltiu	ra,ra,-435
    80602082:	5003d157          	0x5003d157
    80602086:	8d6e                	mv	s10,s11
    80602088:	2019                	0x2019
    8060208a:	4b660103          	lb	sp,1206(a2)
    8060208e:	d469                	beqz	s0,80602058 <data+0x58>
    80602090:	c1cfcd43          	fmadd.s	fs10,ft11,ft8,fs8,rmm
    80602094:	7a79                	lui	s4,0xffffe
    80602096:	bfb2                	fsd	fa2,504(sp)
    80602098:	d0740fa7          	0xd0740fa7
    8060209c:	cf3b33cb          	fnmsub.q	ft7,fs6,fs3,fs9,rup
    806020a0:	62ae                	ld	t0,200(sp)
    806020a2:	7cde                	ld	s9,496(sp)
    806020a4:	97fa                	add	a5,a5,t5
    806020a6:	40b6fbab          	0x40b6fbab
    806020aa:	3e17c92f          	0x3e17c92f
    806020ae:	84cb813f be5c539b 	0xbe5c539b84cb813f
    806020b6:	eeff                	0xeeff
    806020b8:	571f21cb          	fnmsub.q	ft3,ft10,fa7,fa0,rdn
    806020bc:	33f48053          	0x33f48053
    806020c0:	ce81fc63          	bgeu	gp,s0,806015b8 <fn4.exit+0x4f8>
    806020c4:	6bfd                	lui	s7,0x1f
    806020c6:	abd0                	fsd	fa2,144(a5)
    806020c8:	15f2                	slli	a1,a1,0x3c
    806020ca:	fa931a77          	0xfa931a77
    806020ce:	1be8                	addi	a0,sp,508
    806020d0:	983e                	add	a6,a6,a5
    806020d2:	e2de                	sd	s7,320(sp)
    806020d4:	99f6                	add	s3,s3,t4
    806020d6:	975f2e4b          	fnmsub.q	ft8,ft10,fs5,fs2,rdn
    806020da:	02e1b8f3          	csrrc	a7,0x2e,gp
    806020de:	2f2092d7          	0x2f2092d7
    806020e2:	3ae9                	addiw	s5,s5,-6
    806020e4:	ef69                	bnez	a4,806021be <data+0x1be>
    806020e6:	1b4facf3          	csrrs	s9,0x1b4,t6
    806020ea:	747d                	lui	s0,0xfffff
    806020ec:	f34e                	sd	s3,416(sp)
    806020ee:	7209c22f          	0x7209c22f
    806020f2:	373c                	fld	fa5,104(a4)
    806020f4:	d656                	sw	s5,44(sp)
    806020f6:	64ce                	ld	s1,208(sp)
    806020f8:	6650                	ld	a2,136(a2)
    806020fa:	970c                	0x970c
    806020fc:	137e                	slli	t1,t1,0x3f
    806020fe:	9b8f9627          	0x9b8f9627
    80602102:	624d                	lui	tp,0x13
    80602104:	f1360a9b          	addiw	s5,a2,-237
    80602108:	3eac                	fld	fa1,120(a3)
    8060210a:	257d                	addiw	a0,a0,31
    8060210c:	b0aa                	fsd	fa0,96(sp)
    8060210e:	8932                	mv	s2,a2
    80602110:	253d                	addiw	a0,a0,15
    80602112:	ed361593          	0xed361593
    80602116:	0701                	addi	a4,a4,0
    80602118:	a7992faf          	amomax.w.aqrl	t6,s9,(s2)
    8060211c:	20f8                	fld	fa4,192(s1)
    8060211e:	876e                	mv	a4,s11
    80602120:	3586                	fld	fa1,96(sp)
    80602122:	2b62a35b          	0x2b62a35b
    80602126:	b664                	fsd	fs1,232(a2)
    80602128:	417f                	0x417f
    8060212a:	27a4                	fld	fs1,72(a5)
    8060212c:	d029e497          	auipc	s1,0xd029e
    80602130:	b460                	fsd	fs0,232(s0)
    80602132:	8402                	jr	s0
    80602134:	aa56                	fsd	fs5,272(sp)
    80602136:	5f9a                	lw	t6,164(sp)
    80602138:	533e                	lw	t1,236(sp)
    8060213a:	ebfe                	sd	t6,464(sp)
    8060213c:	e759                	bnez	a4,806021ca <data+0x1ca>
    8060213e:	bb70                	fsd	fa2,240(a4)
    80602140:	807c                	0x807c
    80602142:	4b85                	li	s7,1
    80602144:	b77d                	j	806020f2 <data+0xf2>
    80602146:	23d5                	addiw	t2,t2,21
    80602148:	f589a30f          	0xf589a30f
    8060214c:	605e                	0x605e
    8060214e:	9cfe952f          	0x9cfe952f
    80602152:	6b210dcf          	fnmadd.d	fs11,ft2,fs2,fa3,rne
    80602156:	4a2d                	li	s4,11
    80602158:	cd6bb82b          	0xcd6bb82b
    8060215c:	c51e                	sw	t2,136(sp)
    8060215e:	a3a8                	fsd	fa0,64(a5)
    80602160:	3478                	fld	fa4,232(s0)
    80602162:	1d41964f          	0x1d41964f
    80602166:	447f                	0x447f
    80602168:	58e1ea2b          	0x58e1ea2b
    8060216c:	73a0                	ld	s0,96(a5)
    8060216e:	b17433e3          	0xb17433e3
    80602172:	ab62                	fsd	fs8,400(sp)
    80602174:	d175                	beqz	a0,80602158 <data+0x158>
    80602176:	677d                	lui	a4,0x1f
    80602178:	a2f4                	fsd	fa3,192(a3)
    8060217a:	56f4                	lw	a3,108(a3)
    8060217c:	15de                	slli	a1,a1,0x37
    8060217e:	a9b5                	j	806025fa <data+0x5fa>
    80602180:	0eaa                	slli	t4,t4,0xa
    80602182:	c114                	sw	a3,0(a0)
    80602184:	2a94                	fld	fa3,16(a3)
    80602186:	3279                	addiw	tp,tp,-2
    80602188:	23b0                	fld	fa2,64(a5)
    8060218a:	d3894003          	lbu	zero,-712(s2)
    8060218e:	f925                	bnez	a0,806020fe <data+0xfe>
    80602190:	ad39                	j	806027ae <data+0x7ae>
    80602192:	6252                	ld	tp,272(sp)
    80602194:	b39f e1df b74c      	0xb74ce1dfb39f
    8060219a:	ebccdbcf          	fnmadd.d	fs7,fs9,ft8,ft9,unknown
    8060219e:	3612                	fld	fa2,288(sp)
    806021a0:	237e                	fld	ft6,472(sp)
    806021a2:	c877b207          	fld	ft4,-889(a5)
    806021a6:	38dd9f47          	fmsub.s	ft10,fs11,fa3,ft7,rtz
    806021aa:	41b1                	li	gp,12
    806021ac:	ad12                	fsd	ft4,152(sp)
    806021ae:	be0c                	fsd	fa1,56(a2)
    806021b0:	1608                	addi	a0,sp,800
    806021b2:	9734                	0x9734
    806021b4:	d250                	sw	a2,36(a2)
    806021b6:	5208                	lw	a0,32(a2)
    806021b8:	4ef9dceb          	0x4ef9dceb
    806021bc:	e580                	sd	s0,8(a1)
    806021be:	6fa8                	ld	a0,88(a5)
    806021c0:	18e6                	slli	a7,a7,0x39
    806021c2:	785d                	lui	a6,0xffff7
    806021c4:	b1ca                	fsd	fs2,224(sp)
    806021c6:	f10e                	sd	gp,160(sp)
    806021c8:	ea84c567          	0xea84c567
    806021cc:	a529                	j	806027d6 <data+0x7d6>
    806021ce:	251c                	fld	fa5,8(a0)
    806021d0:	3355                	addiw	t1,t1,-11
    806021d2:	08f2                	slli	a7,a7,0x1c
    806021d4:	4e9d                	li	t4,7
    806021d6:	f0f6                	sd	t4,96(sp)
    806021d8:	1381                	addi	t2,t2,-32
    806021da:	7b9b1a5b          	0x7b9b1a5b
    806021de:	b2f9                	j	80601bac <fn4.exit+0xaec>
    806021e0:	b890                	fsd	fa2,48(s1)
    806021e2:	85c8                	0x85c8
    806021e4:	5722c16b          	0x5722c16b
    806021e8:	a6c4                	fsd	fs1,136(a3)
    806021ea:	1178fb93          	andi	s7,a7,279
    806021ee:	b824                	fsd	fs1,112(s0)
    806021f0:	00ff                	0xff
    806021f2:	56ea0747          	fmsub.q	fa4,fs4,fa4,fa0,rne
    806021f6:	de28                	sw	a0,120(a2)
    806021f8:	1c46                	slli	s8,s8,0x31
    806021fa:	f94c396b          	0xf94c396b
    806021fe:	acf4                	fsd	fa3,216(s1)
    80602200:	9558                	0x9558
    80602202:	e141                	bnez	a0,80602282 <data+0x282>
    80602204:	02d9f5bb          	remuw	a1,s3,a3
    80602208:	6b8c                	ld	a1,16(a5)
    8060220a:	6de6b9cb          	0x6de6b9cb
    8060220e:	329a                	fld	ft5,416(sp)
    80602210:	4fd0                	lw	a2,28(a5)
    80602212:	e615                	bnez	a2,8060223e <data+0x23e>
    80602214:	f30d                	bnez	a4,80602136 <data+0x136>
    80602216:	62b210e7          	0x62b210e7
    8060221a:	11f5                	addi	gp,gp,-3
    8060221c:	90d2                	add	ra,ra,s4
    8060221e:	b4be4d83          	lbu	s11,-1205(t3)
    80602222:	e17e                	sd	t6,128(sp)
    80602224:	c3e2                	sw	s8,196(sp)
    80602226:	5514                	lw	a3,40(a0)
    80602228:	760c                	ld	a1,40(a2)
    8060222a:	113d                	addi	sp,sp,-17
    8060222c:	dacea1f7          	0xdacea1f7
    80602230:	eae0                	sd	s0,208(a3)
    80602232:	1d04                	addi	s1,sp,688
    80602234:	3e19                	addiw	t3,t3,-26
    80602236:	69c4                	ld	s1,144(a1)
    80602238:	9c9f 8590 2423      	0x242385909c9f
    8060223e:	116e                	slli	sp,sp,0x3b
    80602240:	6792                	ld	a5,256(sp)
    80602242:	77d0                	ld	a2,168(a5)
    80602244:	105e9993          	0x105e9993
    80602248:	b2801c8f          	0xb2801c8f
    8060224c:	19ee                	slli	s3,s3,0x3b
    8060224e:	61cc                	ld	a1,128(a1)
    80602250:	d6a4                	sw	s1,104(a3)
    80602252:	863e                	mv	a2,a5
    80602254:	c23c                	sw	a5,64(a2)
    80602256:	8855dbf7          	0x8855dbf7
    8060225a:	bd10c227          	fsq	fa7,-1084(ra)
    8060225e:	ec9c4c6b          	0xec9c4c6b
    80602262:	7284                	ld	s1,32(a3)
    80602264:	ccd5                	beqz	s1,80602320 <data+0x320>
    80602266:	5cce5387          	0x5cce5387
    8060226a:	f0df 1b97 84bf      	0x84bf1b97f0df
    80602270:	4994                	lw	a3,16(a1)
    80602272:	ce2d                	beqz	a2,806022ec <data+0x2ec>
    80602274:	c0bc66c7          	fmsub.s	fa3,fs8,fa1,fs8,unknown
    80602278:	04500f43          	0x4500f43
    8060227c:	4606                	lw	a2,64(sp)
    8060227e:	2f3a                	fld	ft10,392(sp)
    80602280:	6056                	0x6056
    80602282:	032e                	slli	t1,t1,0xb
    80602284:	2281e2cf          	fnmadd.d	ft5,ft3,fs0,ft4,unknown
    80602288:	e3e1                	bnez	a5,80602348 <data+0x348>
    8060228a:	8320                	0x8320
    8060228c:	94ac                	0x94ac
    8060228e:	cc78                	sw	a4,92(s0)
    80602290:	8cc9714f          	0x8cc9714f
    80602294:	2a04                	fld	fs1,16(a2)
    80602296:	f97a                	sd	t5,176(sp)
    80602298:	b709                	j	8060219a <data+0x19a>
    8060229a:	87aa                	mv	a5,a0
    8060229c:	aeca                	fsd	fs2,344(sp)
    8060229e:	cfcc                	sw	a1,28(a5)
    806022a0:	c398                	sw	a4,0(a5)
    806022a2:	8d88                	0x8d88
    806022a4:	fc51                	bnez	s0,80602240 <data+0x240>
    806022a6:	9225                	srli	a2,a2,0x29
    806022a8:	3d34                	fld	fa3,120(a0)
    806022aa:	8f2c                	0x8f2c
    806022ac:	4a71                	li	s4,28
    806022ae:	5794                	lw	a3,40(a5)
    806022b0:	3ad0                	fld	fa2,176(a3)
    806022b2:	7c06                	ld	s8,96(sp)
    806022b4:	7cf8e9e7          	0x7cf8e9e7
    806022b8:	c2fc                	sw	a5,68(a3)
    806022ba:	4c4298b7          	lui	a7,0x4c429
    806022be:	387d                	addiw	a6,a6,-1
    806022c0:	2687c857          	0x2687c857
    806022c4:	8f6d                	and	a4,a4,a1
    806022c6:	e7a5                	bnez	a5,8060232e <data+0x32e>
    806022c8:	e858                	sd	a4,144(s0)
    806022ca:	c049                	beqz	s0,8060234c <data+0x34c>
    806022cc:	d6a8                	sw	a0,104(a3)
    806022ce:	4e90                	lw	a2,24(a3)
    806022d0:	9bdd                	andi	a5,a5,-9
    806022d2:	5c14                	lw	a3,56(s0)
    806022d4:	aac5                	j	806024c4 <data+0x4c4>
    806022d6:	50c2                	lw	ra,48(sp)
    806022d8:	8e05                	sub	a2,a2,s1
    806022da:	0c88                	addi	a0,sp,592
    806022dc:	ac2a                	fsd	fa0,24(sp)
    806022de:	8236                	mv	tp,a3
    806022e0:	f51e                	sd	t2,168(sp)
    806022e2:	839e                	mv	t2,t2
    806022e4:	683c                	ld	a5,80(s0)
    806022e6:	4441432b          	0x4441432b
    806022ea:	1418                	addi	a4,sp,544
    806022ec:	fa65                	bnez	a2,806022dc <data+0x2dc>
    806022ee:	6d80                	ld	s0,24(a1)
    806022f0:	4452                	lw	s0,20(sp)
    806022f2:	880e                	mv	a6,gp
    806022f4:	1b4a                	slli	s6,s6,0x32
    806022f6:	8d98                	0x8d98
    806022f8:	777e68ab          	0x777e68ab
    806022fc:	b09a                	fsd	ft6,96(sp)
    806022fe:	12dd                	addi	t0,t0,-9
    80602300:	a402                	fsd	ft0,8(sp)
    80602302:	8f81                	sub	a5,a5,s0
    80602304:	2682                	fld	fa3,0(sp)
    80602306:	947d                	srai	s0,s0,0x3f
    80602308:	d491                	beqz	s1,80602214 <data+0x214>
    8060230a:	4c91                	li	s9,4
    8060230c:	34f4                	fld	fa3,232(s1)
    8060230e:	b2f0                	fsd	fa2,224(a3)
    80602310:	45ad                	li	a1,11
    80602312:	48e4                	lw	s1,84(s1)
    80602314:	3976                	fld	fs2,376(sp)
    80602316:	281c                	fld	fa5,16(s0)
    80602318:	6f1a                	ld	t5,384(sp)
    8060231a:	935c                	0x935c
    8060231c:	2eb5                	addiw	t4,t4,13
    8060231e:	806c                	0x806c
    80602320:	c720                	sw	s0,72(a4)
    80602322:	a1f43dfb          	0xa1f43dfb
    80602326:	6b36                	ld	s6,328(sp)
    80602328:	5cb45877          	0x5cb45877
    8060232c:	7ad8                	ld	a4,176(a3)
    8060232e:	cdf6                	sw	t4,216(sp)
    80602330:	383a9027          	0x383a9027
    80602334:	2182                	fld	ft3,0(sp)
    80602336:	94f2                	add	s1,s1,t3
    80602338:	02f4                	addi	a3,sp,332
    8060233a:	ed12de07          	0xed12de07
    8060233e:	f2b6b70b          	0xf2b6b70b
    80602342:	3482                	fld	fs1,32(sp)
    80602344:	2461                	addiw	s0,s0,24
    80602346:	bca0                	fsd	fs0,120(s1)
    80602348:	f3b2                	sd	a2,480(sp)
    8060234a:	d550                	sw	a2,44(a0)
    8060234c:	870f86e7          	jalr	a3,-1936(t6)
    80602350:	44cd                	li	s1,19
    80602352:	deb5178b          	0xdeb5178b
    80602356:	6f79                	lui	t5,0x1e
    80602358:	49be                	lw	s3,204(sp)
    8060235a:	3eee88c3          	fmadd.q	fa7,ft9,fa4,ft7,rne
    8060235e:	5898                	lw	a4,48(s1)
    80602360:	69747bab          	0x69747bab
    80602364:	13a6                	slli	t2,t2,0x29
    80602366:	97d5                	srai	a5,a5,0x35
    80602368:	8225                	srli	a2,a2,0x9
    8060236a:	d824                	sw	s1,112(s0)
    8060236c:	b43d                	j	80601d9a <fn4.exit+0xcda>
    8060236e:	f3ce                	sd	s3,480(sp)
    80602370:	e0ff                	0xe0ff
    80602372:	74e9c8b7          	lui	a7,0x74e9c
    80602376:	a51e                	fsd	ft7,136(sp)
    80602378:	a221                	j	80602480 <data+0x480>
    8060237a:	f358                	sd	a4,160(a4)
    8060237c:	ff48                	sd	a0,184(a4)
    8060237e:	2cdc                	fld	fa5,152(s1)
    80602380:	2596                	fld	fa1,320(sp)
    80602382:	a8ce                	fsd	fs3,80(sp)
    80602384:	6265                	lui	tp,0x19
    80602386:	4716                	lw	a4,68(sp)
    80602388:	ce71                	beqz	a2,80602464 <data+0x464>
    8060238a:	ea9f 795d f897      	0xf897795dea9f
    80602390:	77ea                	ld	a5,184(sp)
    80602392:	1148e753          	fmul.s	fa4,fa7,fs4,unknown
    80602396:	9079                	srli	s0,s0,0x3e
    80602398:	10562657          	0x10562657
    8060239c:	6595                	lui	a1,0x5
    8060239e:	0185                	addi	gp,gp,1
    806023a0:	5177e957          	0x5177e957
    806023a4:	c452                	sw	s4,8(sp)
    806023a6:	51b6                	lw	gp,108(sp)
    806023a8:	d3ebe743          	fmadd.d	fa4,fs7,ft10,fs10,unknown
    806023ac:	ac75                	j	80602668 <data+0x668>
    806023ae:	9b69                	andi	a4,a4,-6
    806023b0:	8229                	srli	a2,a2,0xa
    806023b2:	7cc1                	lui	s9,0xffff0
    806023b4:	c70b1377          	0xc70b1377
    806023b8:	53208fb3          	0x53208fb3
    806023bc:	63c6                	ld	t2,80(sp)
    806023be:	705f 05c9 c64b      	0xc64b05c9705f
    806023c4:	052e                	slli	a0,a0,0xb
    806023c6:	e2ae                	sd	a1,320(sp)
    806023c8:	26c2                	fld	fa3,16(sp)
    806023ca:	c900                	sw	s0,16(a0)
    806023cc:	707e                	0x707e
    806023ce:	e428                	sd	a0,72(s0)
    806023d0:	ed69                	bnez	a0,806024aa <data+0x4aa>
    806023d2:	55eb5623          	0x55eb5623
    806023d6:	dea0                	sw	s0,120(a3)
    806023d8:	4a55                	li	s4,21
    806023da:	139f 826b 9178      	0x9178826b139f
    806023e0:	e2080ebb          	0xe2080ebb
    806023e4:	0c04                	addi	s1,sp,528
    806023e6:	3edc79d3          	0x3edc79d3
    806023ea:	0e08                	addi	a0,sp,784
    806023ec:	9b06                	add	s6,s6,ra
    806023ee:	4775                	li	a4,29
    806023f0:	737a                	ld	t1,440(sp)
    806023f2:	a71b5977          	0xa71b5977
    806023f6:	70d4                	ld	a3,160(s1)
    806023f8:	ac2fad9b          	0xac2fad9b
    806023fc:	047d                	addi	s0,s0,31
    806023fe:	499d                	li	s3,7
	...

0000000080603000 <data1>:
    80603000:	b825                	j	80602838 <data+0x838>
    80603002:	25ce                	fld	fa1,208(sp)
    80603004:	898a                	mv	s3,sp
    80603006:	a405                	j	80603226 <data1+0x226>
    80603008:	11be                	slli	gp,gp,0x2f
    8060300a:	4898                	lw	a4,16(s1)
    8060300c:	201d                	0x201d
    8060300e:	7705                	lui	a4,0xfffe1
    80603010:	aa80                	fsd	fs0,16(a3)
    80603012:	18ba28b3          	0x18ba28b3
    80603016:	1255                	addi	tp,tp,-11
    80603018:	ded6                	sw	s5,124(sp)
    8060301a:	f7a2                	sd	s0,488(sp)
    8060301c:	dbd699b7          	lui	s3,0xdbd69
    80603020:	4758                	lw	a4,12(a4)
    80603022:	80d82937          	lui	s2,0x80d82
    80603026:	9130                	0x9130
    80603028:	82e0                	0x82e0
    8060302a:	75e4                	ld	s1,232(a1)
    8060302c:	22e1                	addiw	t0,t0,24
    8060302e:	05b6                	slli	a1,a1,0xd
    80603030:	b8c0                	fsd	fs0,176(s1)
    80603032:	f6c762e7          	0xf6c762e7
    80603036:	42a5                	li	t0,9
    80603038:	e692ba77          	0xe692ba77
    8060303c:	74dc                	ld	a5,168(s1)
    8060303e:	2356                	fld	ft6,336(sp)
    80603040:	41de                	lw	gp,212(sp)
    80603042:	1e85                	addi	t4,t4,-31
    80603044:	567a                	lw	a2,188(sp)
    80603046:	bd80                	fsd	fs0,56(a1)
    80603048:	92c4                	0x92c4
    8060304a:	09e1c1f7          	0x9e1c1f7
    8060304e:	2c9c                	fld	fa5,24(s1)
    80603050:	41bc                	lw	a5,64(a1)
    80603052:	6c54192f          	0x6c54192f
    80603056:	274d                	addiw	a4,a4,19
    80603058:	9340                	0x9340
    8060305a:	7bc8a3f3          	csrrs	t2,0x7bc,a7
    8060305e:	a4d72907          	flw	fs2,-1459(a4) # fffffffffffe0a4d <secret+0xffffffff7f3e0a4d>
    80603062:	92c4                	0x92c4
    80603064:	22e9                	addiw	t0,t0,26
    80603066:	ffa4                	sd	s1,120(a5)
    80603068:	25c75507          	0x25c75507
    8060306c:	e3659af3          	csrrw	s5,0xe36,a1
    80603070:	e65f c05c 7aa7      	0x7aa7c05ce65f
    80603076:	e5ee                	sd	s11,200(sp)
    80603078:	d106                	sw	ra,160(sp)
    8060307a:	93bd7d33          	0x93bd7d33
    8060307e:	777c                	ld	a5,232(a4)
    80603080:	c091                	beqz	s1,80603084 <data1+0x84>
    80603082:	9ab9                	andi	a3,a3,-18
    80603084:	13be                	slli	t2,t2,0x2f
    80603086:	6fa5                	lui	t6,0x9
    80603088:	03bd                	addi	t2,t2,15
    8060308a:	a1a2                	fsd	fs0,192(sp)
    8060308c:	7546                	ld	a0,112(sp)
    8060308e:	68704d2b          	0x68704d2b
    80603092:	1a70                	addi	a2,sp,316
    80603094:	607c                	ld	a5,192(s0)
    80603096:	15c78147          	0x15c78147
    8060309a:	db0a                	sw	sp,180(sp)
    8060309c:	e624                	sd	s1,72(a2)
    8060309e:	b69d                	j	80602c04 <data+0xc04>
    806030a0:	fecd                	bnez	a3,8060305a <data1+0x5a>
    806030a2:	06d0                	addi	a2,sp,836
    806030a4:	8142                	mv	sp,a6
    806030a6:	d112                	sw	tp,160(sp)
    806030a8:	a178                	fsd	fa4,192(a0)
    806030aa:	1d8a                	slli	s11,s11,0x22
    806030ac:	cfae                	sw	a1,220(sp)
    806030ae:	5675                	li	a2,-3
    806030b0:	fc40                	sd	s0,184(s0)
    806030b2:	5f3e                	lw	t5,236(sp)
    806030b4:	9bf2                	add	s7,s7,t3
    806030b6:	62f1f43f da781cc7 	0xda781cc762f1f43f
    806030be:	fcdc                	sd	a5,184(s1)
    806030c0:	1fda                	slli	t6,t6,0x36
    806030c2:	81186903          	lwu	s2,-2031(a6) # ffffffffffff6811 <secret+0xffffffff7f3f6811>
    806030c6:	51ed                	li	gp,-5
    806030c8:	8e40                	0x8e40
    806030ca:	2cfe8ca3          	sb	a5,729(t4)
    806030ce:	40c9                	li	ra,18
    806030d0:	65d4b68f          	0x65d4b68f
    806030d4:	321bbecb          	fnmsub.d	ft9,fs7,ft1,ft6,rup
    806030d8:	4c5a                	lw	s8,148(sp)
    806030da:	c90c                	sw	a1,16(a0)
    806030dc:	71c6                	ld	gp,112(sp)
    806030de:	e7cd                	bnez	a5,80603188 <data1+0x188>
    806030e0:	e8572a43          	fmadd.s	fs4,fa4,ft5,ft9,rdn
    806030e4:	1e5c                	addi	a5,sp,820
    806030e6:	166e                	slli	a2,a2,0x3b
    806030e8:	c904                	sw	s1,16(a0)
    806030ea:	c7ddda07          	0xc7ddda07
    806030ee:	2afd                	addiw	s5,s5,31
    806030f0:	b08e                	fsd	ft3,96(sp)
    806030f2:	0ce1                	addi	s9,s9,24
    806030f4:	aeb1                	j	80603450 <data1+0x450>
    806030f6:	1655                	addi	a2,a2,-11
    806030f8:	b11dd16b          	0xb11dd16b
    806030fc:	31e3fa87          	0x31e3fa87
    80603100:	3221b017          	auipc	zero,0x3221b
    80603104:	35c6                	fld	fa1,112(sp)
    80603106:	0bac                	addi	a1,sp,472
    80603108:	cd30                	sw	a2,88(a0)
    8060310a:	7653bc8b          	0x7653bc8b
    8060310e:	3a42                	fld	fs4,48(sp)
    80603110:	5392                	lw	t2,36(sp)
    80603112:	0f9dbcbf bccd2b4a 	0xbccd2b4a0f9dbcbf
    8060311a:	5b6c                	lw	a1,116(a4)
    8060311c:	5cac                	lw	a1,120(s1)
    8060311e:	984e                	add	a6,a6,s3
    80603120:	16f6                	slli	a3,a3,0x3d
    80603122:	6a2a                	ld	s4,136(sp)
    80603124:	ae05                	j	80603454 <data1+0x454>
    80603126:	66a2                	ld	a3,8(sp)
    80603128:	3c68                	fld	fa0,248(s0)
    8060312a:	d6a0                	sw	s0,104(a3)
    8060312c:	f785                	bnez	a5,80603054 <data1+0x54>
    8060312e:	d4ee                	sw	s11,104(sp)
    80603130:	d168a4d3          	0xd168a4d3
    80603134:	556d                	li	a0,-5
    80603136:	6dc0748b          	0x6dc0748b
    8060313a:	60e2                	ld	ra,24(sp)
    8060313c:	1e02                	slli	t3,t3,0x20
    8060313e:	a0b1                	j	8060318a <data1+0x18a>
    80603140:	bda4                	fsd	fs1,120(a1)
    80603142:	d4a9                	beqz	s1,8060308c <data1+0x8c>
    80603144:	b565                	j	80602fec <data+0xfec>
    80603146:	6110                	ld	a2,0(a0)
    80603148:	df52                	sw	s4,188(sp)
    8060314a:	bfd84483          	lbu	s1,-1027(a6)
    8060314e:	fb8e                	sd	gp,496(sp)
    80603150:	b19f 81bf d98d      	0xd98d81bfb19f
    80603156:	1f88                	addi	a0,sp,1008
    80603158:	547f                	0x547f
    8060315a:	4d49                	li	s10,18
    8060315c:	6b74                	ld	a3,208(a4)
    8060315e:	658c                	ld	a1,8(a1)
    80603160:	4d3c                	lw	a5,88(a0)
    80603162:	e6dc                	sd	a5,136(a3)
    80603164:	ec58                	sd	a4,152(s0)
    80603166:	6d52                	ld	s10,272(sp)
    80603168:	9bf6                	add	s7,s7,t4
    8060316a:	338d                	addiw	t2,t2,-29
    8060316c:	5d2cadfb          	0x5d2cadfb
    80603170:	fa8d                	bnez	a3,806030a2 <data1+0xa2>
    80603172:	fae5                	bnez	a3,80603162 <data1+0x162>
    80603174:	c0051db3          	0xc0051db3
    80603178:	5a88                	lw	a0,48(a3)
    8060317a:	e381                	bnez	a5,8060317a <data1+0x17a>
    8060317c:	23e5b793          	sltiu	a5,a1,574
    80603180:	42dc                	lw	a5,4(a3)
    80603182:	c631898b          	0xc631898b
    80603186:	1de9                	addi	s11,s11,-6
    80603188:	acbe                	fsd	fa5,88(sp)
    8060318a:	075c3f2b          	0x75c3f2b
    8060318e:	ccea                	sw	s10,88(sp)
    80603190:	4a15                	li	s4,5
    80603192:	14ae                	slli	s1,s1,0x2b
    80603194:	2208                	fld	fa0,0(a2)
    80603196:	c54283db          	0xc54283db
    8060319a:	b1d8                	fsd	fa4,160(a1)
    8060319c:	2d2d                	addiw	s10,s10,11
    8060319e:	d3c0                	sw	s0,36(a5)
    806031a0:	1014                	addi	a3,sp,32
    806031a2:	8207d92b          	0x8207d92b
    806031a6:	8cf8                	0x8cf8
    806031a8:	38df a737 40b5      	0x40b5a73738df
    806031ae:	b5cc                	fsd	fa1,168(a1)
    806031b0:	799d86c7          	fmsub.s	fa3,fs11,fs9,fa5,rne
    806031b4:	7b64                	ld	s1,240(a4)
    806031b6:	fe7a                	sd	t5,312(sp)
    806031b8:	5a82                	lw	s5,32(sp)
    806031ba:	2dc4                	fld	fs1,152(a1)
    806031bc:	9d2b96a3          	sh	s2,-1587(s7) # 1e9cd <_start-0x7ffe1633>
    806031c0:	b1e4ead7          	0xb1e4ead7
    806031c4:	7eed                	lui	t4,0xffffb
    806031c6:	4c618553          	0x4c618553
    806031ca:	e93e                	sd	a5,144(sp)
    806031cc:	5179                	li	sp,-2
    806031ce:	38df b27b d1ae      	0xd1aeb27b38df
    806031d4:	0375                	addi	t1,t1,29
    806031d6:	0ca1                	addi	s9,s9,8
    806031d8:	95a5                	srai	a1,a1,0x29
    806031da:	2631e30f          	0x2631e30f
    806031de:	f8e8                	sd	a0,240(s1)
    806031e0:	a672                	fsd	ft8,264(sp)
    806031e2:	218a                	fld	ft3,128(sp)
    806031e4:	38eb47cb          	fnmsub.s	fa5,fs6,fa4,ft7,rmm
    806031e8:	9d0cf8e3          	bgeu	s9,a6,80602bb8 <data+0xbb8>
    806031ec:	bc81                	j	80602c3c <data+0xc3c>
    806031ee:	c318                	sw	a4,0(a4)
    806031f0:	1745                	addi	a4,a4,-15
    806031f2:	5312fbf7          	0x5312fbf7
    806031f6:	a851                	j	8060328a <data1+0x28a>
    806031f8:	97c2                	add	a5,a5,a6
    806031fa:	d250                	sw	a2,36(a2)
    806031fc:	aa2e                	fsd	fa1,272(sp)
    806031fe:	e4c0                	sd	s0,136(s1)
    80603200:	af3c                	fsd	fa5,88(a4)
    80603202:	8255                	srli	a2,a2,0x15
    80603204:	025a                	slli	tp,tp,0x16
    80603206:	8b46                	mv	s6,a7
    80603208:	b88cc0c7          	fmsub.s	ft1,fs9,fs0,fs7,rmm
    8060320c:	ae40                	fsd	fs0,152(a2)
    8060320e:	79aa                	ld	s3,168(sp)
    80603210:	6e12                	ld	t3,256(sp)
    80603212:	021d                	addi	tp,tp,7
    80603214:	412a                	lw	sp,136(sp)
    80603216:	1618                	addi	a4,sp,800
    80603218:	1006                	c.slli	zero,0x21
    8060321a:	aff9                	j	806039f8 <data1+0x9f8>
    8060321c:	5bbf498b          	0x5bbf498b
    80603220:	d925                	beqz	a0,80603190 <data1+0x190>
    80603222:	a9c9                	j	806036f4 <data1+0x6f4>
    80603224:	ddb9                	beqz	a1,80603182 <data1+0x182>
    80603226:	06d3aa33          	0x6d3aa33
    8060322a:	c255                	beqz	a2,806032ce <data1+0x2ce>
    8060322c:	500e0e87          	0x500e0e87
    80603230:	b9fe                	fsd	ft11,240(sp)
    80603232:	8a8c                	0x8a8c
    80603234:	c71d                	beqz	a4,80603262 <data1+0x262>
    80603236:	3571                	addiw	a0,a0,-4
    80603238:	c035                	beqz	s0,8060329c <data1+0x29c>
    8060323a:	a812                	fsd	ft4,16(sp)
    8060323c:	b707a56b          	0xb707a56b
    80603240:	637a                	ld	t1,408(sp)
    80603242:	2005                	0x2005
    80603244:	2fde                	fld	ft11,464(sp)
    80603246:	f99f e247 98f3      	0x98f3e247f99f
    8060324c:	0cd9                	addi	s9,s9,22
    8060324e:	d04e9c23          	sh	tp,-744(t4) # ffffffffffffad18 <secret+0xffffffff7f3fad18>
    80603252:	fd94                	sd	a3,56(a1)
    80603254:	c61182d7          	0xc61182d7
    80603258:	2da1                	addiw	s11,s11,8
    8060325a:	4f01                	li	t5,0
    8060325c:	3f78                	fld	fa4,248(a4)
    8060325e:	0f19                	addi	t5,t5,6
    80603260:	4014                	lw	a3,0(s0)
    80603262:	5a65                	li	s4,-7
    80603264:	8231                	srli	a2,a2,0xc
    80603266:	e612                	sd	tp,264(sp)
    80603268:	82ff                	0x82ff
    8060326a:	a5d8                	fsd	fa4,136(a1)
    8060326c:	1b91                	addi	s7,s7,-28
    8060326e:	8f62                	mv	t5,s8
    80603270:	0d0ef3bf 050c9937 	0x50c99370d0ef3bf
    80603278:	4fa8                	lw	a0,88(a5)
    8060327a:	5716                	lw	a4,100(sp)
    8060327c:	2a09                	addiw	s4,s4,2
    8060327e:	710d7677          	0x710d7677
    80603282:	9eca                	add	t4,t4,s2
    80603284:	d7fd                	beqz	a5,80603272 <data1+0x272>
    80603286:	d87be483          	lwu	s1,-633(s7)
    8060328a:	727a                	ld	tp,440(sp)
    8060328c:	995e                	add	s2,s2,s7
    8060328e:	d2e9                	beqz	a3,80603250 <data1+0x250>
    80603290:	ce64                	sw	s1,92(a2)
    80603292:	aec0                	fsd	fs0,152(a3)
    80603294:	ad4a                	fsd	fs2,152(sp)
    80603296:	fa71                	bnez	a2,8060326a <data1+0x26a>
    80603298:	c988                	sw	a0,16(a1)
    8060329a:	81fa                	mv	gp,t5
    8060329c:	ed68                	sd	a0,216(a0)
    8060329e:	b391                	j	80602fe2 <data+0xfe2>
    806032a0:	80b9                	srli	s1,s1,0xe
    806032a2:	7254                	ld	a3,160(a2)
    806032a4:	ca3a                	sw	a4,20(sp)
    806032a6:	38bc                	fld	fa5,112(s1)
    806032a8:	99c9                	andi	a1,a1,-14
    806032aa:	4132                	lw	sp,12(sp)
    806032ac:	8c62                	mv	s8,s8
    806032ae:	a6fa                	fsd	ft10,328(sp)
    806032b0:	e95a                	sd	s6,144(sp)
    806032b2:	5cea                	lw	s9,184(sp)
    806032b4:	f1f9                	bnez	a1,8060327a <data1+0x27a>
    806032b6:	1ed78a93          	addi	s5,a5,493
    806032ba:	0cc0                	addi	s0,sp,596
    806032bc:	4014                	lw	a3,0(s0)
    806032be:	221f05f7          	0x221f05f7
    806032c2:	d45e93e7          	0xd45e93e7
    806032c6:	c5c75243          	0xc5c75243
    806032ca:	3e3c                	fld	fa5,120(a2)
    806032cc:	df3a                	sw	a4,188(sp)
    806032ce:	639f0c13          	addi	s8,t5,1593 # 1e639 <_start-0x7ffe19c7>
    806032d2:	5eda7fa7          	0x5eda7fa7
    806032d6:	86451de7          	0x86451de7
    806032da:	a2c4                	fsd	fs1,128(a3)
    806032dc:	8df4                	0x8df4
    806032de:	2646                	fld	fa2,80(sp)
    806032e0:	35f1                	addiw	a1,a1,-4
    806032e2:	7039                	c.lui	zero,0xfffee
    806032e4:	d2b1                	beqz	a3,80603228 <data1+0x228>
    806032e6:	7d49                	lui	s10,0xffff2
    806032e8:	1129                	addi	sp,sp,-22
    806032ea:	8e76                	mv	t3,t4
    806032ec:	1b86806f          	j	8066b4a4 <data7+0x624a4>
    806032f0:	ebd9                	bnez	a5,80603386 <data1+0x386>
    806032f2:	4352                	lw	t1,20(sp)
    806032f4:	30c4                	fld	fs1,160(s1)
    806032f6:	5f16a53f cfaf15a6 	0xcfaf15a65f16a53f
    806032fe:	93e5                	srli	a5,a5,0x39
    80603300:	2f15                	addiw	t5,t5,5
    80603302:	f0be6997          	auipc	s3,0xf0be6
    80603306:	2026                	fld	ft0,72(sp)
    80603308:	f7dc                	sd	a5,168(a5)
    8060330a:	571f c35d a4ab      	0xa4abc35d571f
    80603310:	ecfe                	sd	t6,88(sp)
    80603312:	4c7e                	lw	s8,220(sp)
    80603314:	ca75                	beqz	a2,80603408 <data1+0x408>
    80603316:	2219                	addiw	tp,tp,6
    80603318:	5b83893f c077139f 	0xc077139f5b83893f
    80603320:	0eec                	addi	a1,sp,860
    80603322:	7dc220d3          	0x7dc220d3
    80603326:	e23d                	bnez	a2,8060338c <data1+0x38c>
    80603328:	86d8                	0x86d8
    8060332a:	43f6                	lw	t2,92(sp)
    8060332c:	44c4                	lw	s1,12(s1)
    8060332e:	886a                	mv	a6,s10
    80603330:	e3ae                	sd	a1,448(sp)
    80603332:	28f8                	fld	fa4,208(s1)
    80603334:	75d81aaf          	0x75d81aaf
    80603338:	be9aa2a3          	sw	s1,-1051(s5)
    8060333c:	5df5                	li	s11,-3
    8060333e:	f4ae                	sd	a1,104(sp)
    80603340:	e59ee713          	ori	a4,t4,-423
    80603344:	b9da                	fsd	fs6,240(sp)
    80603346:	f09ec383          	lbu	t2,-247(t4)
    8060334a:	6121                	addi	sp,sp,64
    8060334c:	35b4                	fld	fa3,104(a1)
    8060334e:	49dd                	li	s3,23
    80603350:	3271                	addiw	tp,tp,-4
    80603352:	4d3e                	lw	s10,204(sp)
    80603354:	601f 649c 9af6      	0x9af6649c601f
    8060335a:	b6c9                	j	80602f1c <data+0xf1c>
    8060335c:	437a                	lw	t1,156(sp)
    8060335e:	6fa2                	ld	t6,8(sp)
    80603360:	1b6c                	addi	a1,sp,444
    80603362:	1f30                	addi	a2,sp,952
    80603364:	3a6d                	addiw	s4,s4,-5
    80603366:	f5550a6f          	jal	s4,805542ba <pre_attack1_end+0x1541de>
    8060336a:	5196                	lw	gp,100(sp)
    8060336c:	8c10                	0x8c10
    8060336e:	0da4                	addi	s1,sp,728
    80603370:	6af8e81b          	0x6af8e81b
    80603374:	d13c                	sw	a5,96(a0)
    80603376:	1a343ca3          	sd	gp,441(s0) # fffffffffffff1b9 <secret+0xffffffff7f3ff1b9>
    8060337a:	0e08                	addi	a0,sp,784
    8060337c:	4e0c                	lw	a1,24(a2)
    8060337e:	dbb0                	sw	a2,112(a5)
    80603380:	0ddd                	addi	s11,s11,23
    80603382:	922ac1fb          	0x922ac1fb
    80603386:	ff0a                	sd	sp,440(sp)
    80603388:	fa7ebd37          	lui	s10,0xfa7eb
    8060338c:	984a7e6f          	jal	t3,805aa510 <pre_attack1_end+0x1aa434>
    80603390:	fc76                	sd	t4,56(sp)
    80603392:	8554                	0x8554
    80603394:	03aa                	slli	t2,t2,0xa
    80603396:	5db9e9af          	0x5db9e9af
    8060339a:	7882                	ld	a7,32(sp)
    8060339c:	e622                	sd	s0,264(sp)
    8060339e:	0e26                	slli	t3,t3,0x9
    806033a0:	711c                	ld	a5,32(a0)
    806033a2:	e549                	bnez	a0,8060342c <data1+0x42c>
    806033a4:	7d35                	lui	s10,0xfffed
    806033a6:	1d89                	addi	s11,s11,-30
    806033a8:	5c7c                	lw	a5,124(s0)
    806033aa:	8f3e                	mv	t5,a5
    806033ac:	b3a9                	j	806030f6 <data1+0xf6>
    806033ae:	bc7e                	fsd	ft11,56(sp)
    806033b0:	1499                	addi	s1,s1,-26
    806033b2:	4e3a3f6b          	0x4e3a3f6b
    806033b6:	6938                	ld	a4,80(a0)
    806033b8:	c23e                	sw	a5,4(sp)
    806033ba:	3e9b860f          	0x3e9b860f
    806033be:	3bbc                	fld	fa5,112(a5)
    806033c0:	7d1798d7          	0x7d1798d7
    806033c4:	00e1                	addi	ra,ra,24
    806033c6:	bdde                	fsd	fs7,248(sp)
    806033c8:	3d96                	fld	fs11,352(sp)
    806033ca:	6dbe                	ld	s11,456(sp)
    806033cc:	e366                	sd	s9,384(sp)
    806033ce:	465a                	lw	a2,148(sp)
    806033d0:	26c5                	addiw	a3,a3,17
    806033d2:	a586                	fsd	ft1,200(sp)
    806033d4:	7672                	ld	a2,312(sp)
    806033d6:	a041                	j	80603456 <data1+0x456>
    806033d8:	0c52                	slli	s8,s8,0x14
    806033da:	a779                	j	80603b68 <data1+0xb68>
    806033dc:	d41e923b          	0xd41e923b
    806033e0:	427f                	0x427f
    806033e2:	b11f f4c6 8438      	0x8438f4c6b11f
    806033e8:	ec5e                	sd	s7,24(sp)
    806033ea:	61cd                	lui	gp,0x13
    806033ec:	27e9                	addiw	a5,a5,26
    806033ee:	ecb0                	sd	a2,88(s1)
    806033f0:	e894                	sd	a3,16(s1)
    806033f2:	3279                	addiw	tp,tp,-2
    806033f4:	0fd8                	addi	a4,sp,980
    806033f6:	f111                	bnez	a0,806032fa <data1+0x2fa>
    806033f8:	6e92                	ld	t4,256(sp)
    806033fa:	9491                	srai	s1,s1,0x24
    806033fc:	f2d5                	bnez	a3,806033a0 <data1+0x3a0>
    806033fe:	4c15                	li	s8,5
	...

0000000080604000 <data2>:
    80604000:	adc0                	fsd	fs0,152(a1)
    80604002:	373a                	fld	fa4,424(sp)
    80604004:	1b99                	addi	s7,s7,-26
    80604006:	ccf0727b          	0xccf0727b
    8060400a:	c146                	sw	a7,128(sp)
    8060400c:	9566                	add	a0,a0,s9
    8060400e:	a5a1                	j	80604656 <data2+0x656>
    80604010:	bdf8                	fsd	fa4,248(a1)
    80604012:	d4a5                	beqz	s1,80603f7a <data1+0xf7a>
    80604014:	7618                	ld	a4,40(a2)
    80604016:	7724                	ld	s1,104(a4)
    80604018:	029d                	addi	t0,t0,7
    8060401a:	ba60                	fsd	fs0,240(a2)
    8060401c:	16bc                	addi	a5,sp,872
    8060401e:	1eb813af          	0x1eb813af
    80604022:	e7bc                	sd	a5,72(a5)
    80604024:	baff                	0xbaff
    80604026:	3332                	fld	ft6,296(sp)
    80604028:	5726                	lw	a4,104(sp)
    8060402a:	af3d                	j	80604768 <data2+0x768>
    8060402c:	0ec9                	addi	t4,t4,18
    8060402e:	6512                	ld	a0,256(sp)
    80604030:	6f9a                	ld	t6,384(sp)
    80604032:	9660                	0x9660
    80604034:	f4032aab          	0xf4032aab
    80604038:	de41                	beqz	a2,80603fd0 <data1+0xfd0>
    8060403a:	56b9                	li	a3,-18
    8060403c:	1d1f5d23          	0x1d1f5d23
    80604040:	d37104af          	0xd37104af
    80604044:	5fd1                	li	t6,-12
    80604046:	e415                	bnez	s0,80604072 <data2+0x72>
    80604048:	5d18449b          	0x5d18449b
    8060404c:	e812                	sd	tp,16(sp)
    8060404e:	4b4d                	li	s6,19
    80604050:	05b5                	addi	a1,a1,13
    80604052:	6732                	ld	a4,264(sp)
    80604054:	829d                	srli	a3,a3,0x7
    80604056:	9498                	0x9498
    80604058:	33e6                	fld	ft7,120(sp)
    8060405a:	01bf08af          	0x1bf08af
    8060405e:	8b7e                	mv	s6,t6
    80604060:	7dda                	ld	s11,432(sp)
    80604062:	6cde                	ld	s9,464(sp)
    80604064:	9d95                	subw	a1,a1,a3
    80604066:	5674                	lw	a3,108(a2)
    80604068:	9431784f          	0x9431784f
    8060406c:	adea                	fsd	fs10,216(sp)
    8060406e:	e77e                	sd	t6,392(sp)
    80604070:	92c77807          	0x92c77807
    80604074:	7af8                	ld	a4,240(a3)
    80604076:	b9706337          	lui	t1,0xb9706
    8060407a:	8f4c2d53          	0x8f4c2d53
    8060407e:	b731                	j	80603f8a <data1+0xf8a>
    80604080:	f4ce                	sd	s3,104(sp)
    80604082:	7d85                	lui	s11,0xfffe1
    80604084:	8b176e63          	bltu	a4,a7,80603140 <data1+0x140>
    80604088:	4a46                	lw	s4,80(sp)
    8060408a:	b010                	fsd	fa2,32(s0)
    8060408c:	b09e                	fsd	ft7,96(sp)
    8060408e:	2e88                	fld	fa0,24(a3)
    80604090:	9f68                	0x9f68
    80604092:	ad14                	fsd	fa3,24(a0)
    80604094:	bfffb2af          	0xbfffb2af
    80604098:	23c2                	fld	ft7,16(sp)
    8060409a:	85ca                	mv	a1,s2
    8060409c:	be8e                	fsd	ft3,376(sp)
    8060409e:	158a                	slli	a1,a1,0x22
    806040a0:	8a8e75bb          	0x8a8e75bb
    806040a4:	9feecb4f          	fnmadd.q	fs6,ft9,ft10,fs3,rmm
    806040a8:	f1ea                	sd	s10,224(sp)
    806040aa:	3f2c                	fld	fa1,120(a4)
    806040ac:	4fc5                	li	t6,17
    806040ae:	4046                	0x4046
    806040b0:	751e                	ld	a0,480(sp)
    806040b2:	2c45                	addiw	s8,s8,17
    806040b4:	541e                	lw	s0,228(sp)
    806040b6:	20d8                	fld	fa4,128(s1)
    806040b8:	3d44                	fld	fs1,184(a0)
    806040ba:	5c82                	lw	s9,32(sp)
    806040bc:	89a14c47          	fmsub.s	fs8,ft2,fs10,fa7,rmm
    806040c0:	ccc5                	beqz	s1,80604178 <data2+0x178>
    806040c2:	a414                	fsd	fa3,8(s0)
    806040c4:	52a2                	lw	t0,40(sp)
    806040c6:	d61667db          	0xd61667db
    806040ca:	b1da1d2f          	0xb1da1d2f
    806040ce:	839c4737          	lui	a4,0x839c4
    806040d2:	719330a3          	sd	s9,1793(t1) # ffffffffb9706701 <secret+0xffffffff38b06701>
    806040d6:	d586                	sw	ra,232(sp)
    806040d8:	9248                	0x9248
    806040da:	43c4                	lw	s1,4(a5)
    806040dc:	badec06f          	j	805f0c88 <pre_attack1_end+0x1f0bac>
    806040e0:	0839                	addi	a6,a6,14
    806040e2:	638e                	ld	t2,192(sp)
    806040e4:	7fff                	0x7fff
    806040e6:	60f6                	ld	ra,344(sp)
    806040e8:	6ec6                	ld	t4,80(sp)
    806040ea:	ad3d                	j	80604728 <data2+0x728>
    806040ec:	2af0                	fld	fa2,208(a3)
    806040ee:	5a158e03          	lb	t3,1441(a1) # 55a1 <_start-0x7fffaa5f>
    806040f2:	5bdd                	li	s7,-9
    806040f4:	590c                	lw	a1,48(a0)
    806040f6:	31bead4f          	fnmadd.s	fs10,ft9,fs11,ft6,rdn
    806040fa:	eb56                	sd	s5,400(sp)
    806040fc:	ade31ef7          	0xade31ef7
    80604100:	06ca                	slli	a3,a3,0x12
    80604102:	2c25                	addiw	s8,s8,9
    80604104:	46ef7acb          	fnmsub.q	fs5,ft10,fa4,fs0
    80604108:	94ed                	srai	s1,s1,0x3b
    8060410a:	f93d                	bnez	a0,80604080 <data2+0x80>
    8060410c:	3cfa                	fld	fs9,440(sp)
    8060410e:	4e46                	lw	t3,80(sp)
    80604110:	9835                	andi	s0,s0,-19
    80604112:	e9ae                	sd	a1,208(sp)
    80604114:	3a28                	fld	fa0,112(a2)
    80604116:	10fe                	slli	ra,ra,0x3f
    80604118:	ce8a                	sw	sp,92(sp)
    8060411a:	974a                	add	a4,a4,s2
    8060411c:	dcdbfc03          	0xdcdbfc03
    80604120:	7ae9                	lui	s5,0xffffa
    80604122:	b7cc                	fsd	fa1,168(a5)
    80604124:	ece9e727          	0xece9e727
    80604128:	87f6b59b          	0x87f6b59b
    8060412c:	279d                	addiw	a5,a5,7
    8060412e:	3fc6                	fld	ft11,112(sp)
    80604130:	a4f0                	fsd	fa2,200(s1)
    80604132:	336d74c7          	fmsub.d	fs1,fs10,fs6,ft6
    80604136:	c620                	sw	s0,72(a2)
    80604138:	a1c2                	fsd	fa6,192(sp)
    8060413a:	57ac                	lw	a1,104(a5)
    8060413c:	823e                	mv	tp,a5
    8060413e:	1ec1                	addi	t4,t4,-16
    80604140:	268c                	fld	fa1,8(a3)
    80604142:	358c                	fld	fa1,40(a1)
    80604144:	8ba2                	mv	s7,s0
    80604146:	a9cc                	fsd	fa1,144(a1)
    80604148:	6362                	ld	t1,24(sp)
    8060414a:	3a34                	fld	fa3,112(a2)
    8060414c:	4991                	li	s3,4
    8060414e:	8922                	mv	s2,s0
    80604150:	defc                	sw	a5,124(a3)
    80604152:	c09ddeb3          	0xc09ddeb3
    80604156:	eb58                	sd	a4,144(a4)
    80604158:	83444563          	blt	s0,s4,80603182 <data1+0x182>
    8060415c:	0220                	addi	s0,sp,264
    8060415e:	3c19                	addiw	s8,s8,-26
    80604160:	4fe9cdbb          	0x4fe9cdbb
    80604164:	ffdc                	sd	a5,184(a5)
    80604166:	a3c0                	fsd	fs0,128(a5)
    80604168:	7006                	0x7006
    8060416a:	2229                	addiw	tp,tp,10
    8060416c:	ea7a                	sd	t5,272(sp)
    8060416e:	da36                	sw	a3,52(sp)
    80604170:	b655                	j	80603d14 <data1+0xd14>
    80604172:	f0b8                	sd	a4,96(s1)
    80604174:	466665bb          	0x466665bb
    80604178:	fe36                	sd	a3,312(sp)
    8060417a:	7824                	ld	s1,112(s0)
    8060417c:	fd6a                	sd	s10,184(sp)
    8060417e:	6166                	ld	sp,88(sp)
    80604180:	68ce                	ld	a7,208(sp)
    80604182:	0388                	addi	a0,sp,448
    80604184:	5161                	li	sp,-8
    80604186:	d829                	beqz	s0,806040d8 <data2+0xd8>
    80604188:	3c8d                	addiw	s9,s9,-29
    8060418a:	12c2                	slli	t0,t0,0x30
    8060418c:	4431                	li	s0,12
    8060418e:	b3e04a3b          	0xb3e04a3b
    80604192:	1546                	slli	a0,a0,0x31
    80604194:	0bb2                	slli	s7,s7,0xc
    80604196:	5ee4                	lw	s1,124(a3)
    80604198:	efc0                	sd	s0,152(a5)
    8060419a:	e340                	sd	s0,128(a4)
    8060419c:	9a045b0f          	0x9a045b0f
    806041a0:	41642347          	fmsub.s	ft6,fs0,fs6,fs0,rdn
    806041a4:	0fea2fd3          	fsub.q	ft11,fs4,ft10,rdn
    806041a8:	fd45                	bnez	a0,80604160 <data2+0x160>
    806041aa:	baa2                	fsd	fs0,368(sp)
    806041ac:	faa5                	bnez	a3,8060411c <data2+0x11c>
    806041ae:	a1a9a247          	fmsub.s	ft4,fs3,fs10,fs4,rdn
    806041b2:	0535                	addi	a0,a0,13
    806041b4:	9f0a5abb          	0x9f0a5abb
    806041b8:	949c                	0x949c
    806041ba:	108d                	addi	ra,ra,-29
    806041bc:	a412                	fsd	ft4,8(sp)
    806041be:	7e283daf          	0x7e283daf
    806041c2:	4cc2                	lw	s9,16(sp)
    806041c4:	fe24                	sd	s1,120(a2)
    806041c6:	f384c7ab          	0xf384c7ab
    806041ca:	5709                	li	a4,-30
    806041cc:	c717f2ef          	jal	t0,80583e3c <pre_attack1_end+0x183d60>
    806041d0:	e65a                	sd	s6,264(sp)
    806041d2:	bc52                	fsd	fs4,56(sp)
    806041d4:	de41                	beqz	a2,8060416c <data2+0x16c>
    806041d6:	be7d                	j	80603d94 <data1+0xd94>
    806041d8:	8569                	srai	a0,a0,0x1a
    806041da:	24c9                	addiw	s1,s1,18
    806041dc:	5344                	lw	s1,36(a4)
    806041de:	ac15                	j	80604412 <data2+0x412>
    806041e0:	c5a8                	sw	a0,72(a1)
    806041e2:	995c890f          	0x995c890f
    806041e6:	ee82                	sd	zero,344(sp)
    806041e8:	fa32                	sd	a2,304(sp)
    806041ea:	2b0d                	addiw	s6,s6,3
    806041ec:	3a82                	fld	fs5,32(sp)
    806041ee:	17be6957          	0x17be6957
    806041f2:	50a040e7          	0x50a040e7
    806041f6:	99b8                	0x99b8
    806041f8:	4c34                	lw	a3,88(s0)
    806041fa:	2741                	addiw	a4,a4,16
    806041fc:	0581                	addi	a1,a1,0
    806041fe:	38914faf          	0x38914faf
    80604202:	7d7d                	lui	s10,0xfffff
    80604204:	e518                	sd	a4,8(a0)
    80604206:	af19                	j	8060491c <data2+0x91c>
    80604208:	1c25                	addi	s8,s8,-23
    8060420a:	484426ab          	0x484426ab
    8060420e:	bfad84cb          	fnmsub.q	fs1,fs11,fs10,fs7,rne
    80604212:	25da                	fld	fa1,400(sp)
    80604214:	422a                	lw	tp,136(sp)
    80604216:	8ece                	mv	t4,s3
    80604218:	270db08f          	0x270db08f
    8060421c:	0bd0                	addi	a2,sp,468
    8060421e:	dd66                	sw	s9,184(sp)
    80604220:	6d32229b          	0x6d32229b
    80604224:	0951                	addi	s2,s2,20
    80604226:	6110                	ld	a2,0(a0)
    80604228:	ac9e                	fsd	ft7,88(sp)
    8060422a:	a32d                	j	80604754 <data2+0x754>
    8060422c:	6378                	ld	a4,192(a4)
    8060422e:	e93c933f fddb5ffa 	0xfddb5ffae93c933f
    80604236:	6a8d                	lui	s5,0x3
    80604238:	b236                	fsd	fa3,288(sp)
    8060423a:	8db0                	0x8db0
    8060423c:	1ee6                	slli	t4,t4,0x39
    8060423e:	a7d5                	j	80604a22 <data2+0xa22>
    80604240:	22006cfb          	0x22006cfb
    80604244:	4014                	lw	a3,0(s0)
    80604246:	0f80                	addi	s0,sp,976
    80604248:	5ced                	li	s9,-5
    8060424a:	836c                	0x836c
    8060424c:	4456                	lw	s0,84(sp)
    8060424e:	ee04                	sd	s1,24(a2)
    80604250:	1a3a519b          	0x1a3a519b
    80604254:	c0e9                	beqz	s1,80604316 <data2+0x316>
    80604256:	b734                	fsd	fa3,104(a4)
    80604258:	f566                	sd	s9,168(sp)
    8060425a:	cb19b647          	fmsub.d	fa2,fs3,fa7,fs9,rup
    8060425e:	525c2ecb          	fnmsub.d	ft9,fs8,ft5,fa0,rdn
    80604262:	fcaa                	sd	a0,120(sp)
    80604264:	9806                	add	a6,a6,ra
    80604266:	160b486f          	jal	a6,806b83c6 <data7+0xaf3c6>
    8060426a:	106d                	c.nop	-5
    8060426c:	a10e                	fsd	ft3,128(sp)
    8060426e:	da3c5dc3          	fmadd.d	fs11,fs8,ft3,fs11,unknown
    80604272:	f43e                	sd	a5,40(sp)
    80604274:	f4df 4542 49a6      	0x49a64542f4df
    8060427a:	f4ae                	sd	a1,104(sp)
    8060427c:	1091                	addi	ra,ra,-28
    8060427e:	58f0                	lw	a2,116(s1)
    80604280:	0e71                	addi	t3,t3,28
    80604282:	27ed                	addiw	a5,a5,27
    80604284:	0972                	slli	s2,s2,0x1c
    80604286:	b8c5                	j	80603b76 <data1+0xb76>
    80604288:	acae                	fsd	fa1,88(sp)
    8060428a:	6d2c                	ld	a1,88(a0)
    8060428c:	7cca                	ld	s9,176(sp)
    8060428e:	4256a183          	lw	gp,1061(a3)
    80604292:	0735                	addi	a4,a4,13
    80604294:	c0bc                	sw	a5,64(s1)
    80604296:	32d1f513          	andi	a0,gp,813
    8060429a:	9521                	srai	a0,a0,0x28
    8060429c:	61a7f28b          	0x61a7f28b
    806042a0:	594d                	li	s2,-13
    806042a2:	a138                	fsd	fa4,64(a0)
    806042a4:	c099                	beqz	s1,806042aa <data2+0x2aa>
    806042a6:	cc974fa3          	0xcc974fa3
    806042aa:	fff4                	sd	a3,248(a5)
    806042ac:	933c0033          	0x933c0033
    806042b0:	7a02                	ld	s4,32(sp)
    806042b2:	9a38                	0x9a38
    806042b4:	3925                	addiw	s2,s2,-23
    806042b6:	d3f5e357          	0xd3f5e357
    806042ba:	5e5b938b          	0x5e5b938b
    806042be:	3d31                	addiw	s10,s10,-20
    806042c0:	49da                	lw	s3,148(sp)
    806042c2:	ef05                	bnez	a4,806042fa <data2+0x2fa>
    806042c4:	bca2                	fsd	fs0,120(sp)
    806042c6:	4218                	lw	a4,0(a2)
    806042c8:	6705                	lui	a4,0x1
    806042ca:	7da4                	ld	s1,120(a1)
    806042cc:	3f35                	addiw	t5,t5,-19
    806042ce:	9961                	andi	a0,a0,-8
    806042d0:	a6ff46b7          	lui	a3,0xa6ff4
    806042d4:	4969                	li	s2,26
    806042d6:	5bfd                	li	s7,-1
    806042d8:	c9ba                	sw	a4,208(sp)
    806042da:	9336                	add	t1,t1,a3
    806042dc:	6dc8                	ld	a0,152(a1)
    806042de:	5cdd                	li	s9,-9
    806042e0:	3769                	addiw	a4,a4,-6
    806042e2:	6fe6                	ld	t6,88(sp)
    806042e4:	e570                	sd	a2,200(a0)
    806042e6:	d5a1                	beqz	a1,8060422e <data2+0x22e>
    806042e8:	cbaa                	sw	a0,212(sp)
    806042ea:	cd51                	beqz	a0,80604386 <data2+0x386>
    806042ec:	1145                	addi	sp,sp,-15
    806042ee:	6c90                	ld	a2,24(s1)
    806042f0:	b850                	fsd	fa2,176(s0)
    806042f2:	48c2                	lw	a7,16(sp)
    806042f4:	a801                	j	80604304 <data2+0x304>
    806042f6:	973d2b03          	lw	s6,-1677(s10) # ffffffffffffe973 <secret+0xffffffff7f3fe973>
    806042fa:	4eece6c7          	fmsub.q	fa3,fs9,fa4,fs1,unknown
    806042fe:	e3c00117          	auipc	sp,0xe3c00
    80604302:	f8e5                	bnez	s1,806042f2 <data2+0x2f2>
    80604304:	4484                	lw	s1,8(s1)
    80604306:	4221ab93          	slti	s7,gp,1058
    8060430a:	01d6                	slli	gp,gp,0x15
    8060430c:	21e45877          	0x21e45877
    80604310:	26d5                	addiw	a3,a3,21
    80604312:	3309                	addiw	t1,t1,-30
    80604314:	4604                	lw	s1,8(a2)
    80604316:	e901                	bnez	a0,80604326 <data2+0x326>
    80604318:	a48fca73          	0xa48fca73
    8060431c:	c39c                	sw	a5,0(a5)
    8060431e:	cec4                	sw	s1,28(a3)
    80604320:	3899                	addiw	a7,a7,-26
    80604322:	6726                	ld	a4,72(sp)
    80604324:	77ff                	0x77ff
    80604326:	0a94                	addi	a3,sp,336
    80604328:	4a9a5b3f 260b39ae 	0x260b39ae4a9a5b3f
    80604330:	140d5db7          	lui	s11,0x140d5
    80604334:	35a4                	fld	fs1,104(a1)
    80604336:	c559                	beqz	a0,806043c4 <data2+0x3c4>
    80604338:	5026                	0x5026
    8060433a:	d215                	beqz	a2,8060425e <data2+0x25e>
    8060433c:	a75c                	fsd	fa5,136(a4)
    8060433e:	a005                	j	8060435e <data2+0x35e>
    80604340:	99bc                	0x99bc
    80604342:	fc62                	sd	s8,56(sp)
    80604344:	1366                	slli	t1,t1,0x39
    80604346:	5cced447          	0x5cced447
    8060434a:	179d                	addi	a5,a5,-25
    8060434c:	035c                	addi	a5,sp,388
    8060434e:	efc1                	bnez	a5,806043e6 <data2+0x3e6>
    80604350:	e234                	sd	a3,64(a2)
    80604352:	4a7e                	lw	s4,220(sp)
    80604354:	2f34                	fld	fa3,88(a4)
    80604356:	b716                	fsd	ft5,424(sp)
    80604358:	22e1                	addiw	t0,t0,24
    8060435a:	530c                	lw	a1,32(a4)
    8060435c:	6dfbfa93          	andi	s5,s7,1759
    80604360:	d9ac                	sw	a1,112(a1)
    80604362:	e96c                	sd	a1,208(a0)
    80604364:	9e54                	0x9e54
    80604366:	0e34c34b          	fnmsub.q	ft6,fs1,ft3,ft1,rmm
    8060436a:	3405b1db          	0x3405b1db
    8060436e:	3da2                	fld	fs11,40(sp)
    80604370:	376e                	fld	fa4,248(sp)
    80604372:	edf6                	sd	t4,216(sp)
    80604374:	ea09                	bnez	a2,80604386 <data2+0x386>
    80604376:	06ee                	slli	a3,a3,0x1b
    80604378:	5584                	lw	s1,40(a1)
    8060437a:	3a02                	fld	fs4,32(sp)
    8060437c:	0154                	addi	a3,sp,132
    8060437e:	360e                	fld	fa2,224(sp)
    80604380:	83bd                	srli	a5,a5,0xf
    80604382:	f90c                	sd	a1,48(a0)
    80604384:	2b8e                	fld	fs7,192(sp)
    80604386:	00fe                	slli	ra,ra,0x1f
    80604388:	7abc                	ld	a5,112(a3)
    8060438a:	b2dd3a17          	auipc	s4,0xb2dd3
    8060438e:	3e963a67          	0x3e963a67
    80604392:	005f 21c2 fd81      	0xfd8121c2005f
    80604398:	1c1a                	slli	s8,s8,0x26
    8060439a:	e708                	sd	a0,8(a4)
    8060439c:	ee7c                	sd	a5,216(a2)
    8060439e:	5f367e77          	0x5f367e77
    806043a2:	23f79613          	0x23f79613
    806043a6:	6c19                	lui	s8,0x6
    806043a8:	214e                	fld	ft2,208(sp)
    806043aa:	679e                	ld	a5,448(sp)
    806043ac:	1820                	addi	s0,sp,56
    806043ae:	26e0                	fld	fs0,200(a3)
    806043b0:	ad3e3ccb          	0xad3e3ccb
    806043b4:	bb8a                	fsd	ft2,496(sp)
    806043b6:	9030                	0x9030
    806043b8:	1506                	slli	a0,a0,0x21
    806043ba:	aa91                	j	8060450e <data2+0x50e>
    806043bc:	6188                	ld	a0,0(a1)
    806043be:	7e64                	ld	s1,248(a2)
    806043c0:	7608                	ld	a0,40(a2)
    806043c2:	1a66                	slli	s4,s4,0x39
    806043c4:	2821                	addiw	a6,a6,8
    806043c6:	af86                	fsd	ft1,472(sp)
    806043c8:	1bf4                	addi	a3,sp,508
    806043ca:	612a                	ld	sp,136(sp)
    806043cc:	a47e                	fsd	ft11,8(sp)
    806043ce:	1746                	slli	a4,a4,0x31
    806043d0:	1286                	slli	t0,t0,0x21
    806043d2:	79a9                	lui	s3,0xfffea
    806043d4:	327c                	fld	fa5,224(a2)
    806043d6:	9b2fe83b          	0x9b2fe83b
    806043da:	4378                	lw	a4,68(a4)
    806043dc:	a49e                	fsd	ft7,72(sp)
    806043de:	36f0                	fld	fa2,232(a3)
    806043e0:	224a                	fld	ft4,144(sp)
    806043e2:	ea56                	sd	s5,272(sp)
    806043e4:	74e8                	ld	a0,232(s1)
    806043e6:	7dde                	ld	s11,496(sp)
    806043e8:	e848                	sd	a0,144(s0)
    806043ea:	d7732497          	auipc	s1,0xd7732
    806043ee:	daf6                	sw	t4,116(sp)
    806043f0:	4368                	lw	a0,68(a4)
    806043f2:	99b0                	0x99b0
    806043f4:	5d5a                	lw	s10,180(sp)
    806043f6:	ca49                	beqz	a2,80604488 <data2+0x488>
    806043f8:	00e0                	addi	s0,sp,76
    806043fa:	8e4c                	0x8e4c
    806043fc:	ffd9                	bnez	a5,8060439a <data2+0x39a>
    806043fe:	000021bb          	0x21bb
	...

0000000080605000 <data3>:
    80605000:	bb3c                	fsd	fa5,112(a4)
    80605002:	32770b03          	lb	s6,807(a4) # 1327 <_start-0x7fffecd9>
    80605006:	22cd                	addiw	t0,t0,19
    80605008:	7794                	ld	a3,40(a5)
    8060500a:	f9fe                	sd	t6,240(sp)
    8060500c:	66a6ce63          	blt	a3,a0,80605688 <data3+0x688>
    80605010:	9e38                	0x9e38
    80605012:	d45c                	sw	a5,44(s0)
    80605014:	aa480103          	lb	sp,-1372(a6)
    80605018:	cd8d                	beqz	a1,80605052 <data3+0x52>
    8060501a:	0f4526ab          	0xf4526ab
    8060501e:	b82caaef          	jal	s5,805cf3a0 <pre_attack1_end+0x1cf2c4>
    80605022:	7169                	addi	sp,sp,-304
    80605024:	6394                	ld	a3,0(a5)
    80605026:	0c72c98b          	0xc72c98b
    8060502a:	09bc                	addi	a5,sp,216
    8060502c:	9a071fdb          	0x9a071fdb
    80605030:	5be0                	lw	s0,116(a5)
    80605032:	c39d898b          	0xc39d898b
    80605036:	07fd                	addi	a5,a5,31
    80605038:	c771                	beqz	a4,80605104 <data3+0x104>
    8060503a:	f6ea                	sd	s10,360(sp)
    8060503c:	e664                	sd	s1,200(a2)
    8060503e:	d041                	beqz	s0,80604fbe <data2+0xfbe>
    80605040:	c556                	sw	s5,136(sp)
    80605042:	7769                	lui	a4,0xffffa
    80605044:	60856ca3          	0x60856ca3
    80605048:	53ec                	lw	a1,100(a5)
    8060504a:	3bc3708b          	0x3bc3708b
    8060504e:	2b5e5fcf          	fnmadd.d	ft11,ft8,fs5,ft5,unknown
    80605052:	cb2d                	beqz	a4,806050c4 <data3+0xc4>
    80605054:	6e7cca17          	auipc	s4,0x6e7cc
    80605058:	9d84                	0x9d84
    8060505a:	f5b50adb          	0xf5b50adb
    8060505e:	2cb6                	fld	fs9,328(sp)
    80605060:	66b7518b          	0x66b7518b
    80605064:	fcf5                	bnez	s1,80605060 <data3+0x60>
    80605066:	246e                	fld	fs0,216(sp)
    80605068:	c08afd07          	0xc08afd07
    8060506c:	3ef5                	addiw	t4,t4,-3
    8060506e:	d0fd                	beqz	s1,80605054 <data3+0x54>
    80605070:	ffc2                	sd	a6,504(sp)
    80605072:	99b8                	0x99b8
    80605074:	a9a6                	fsd	fs1,208(sp)
    80605076:	8fdd                	or	a5,a5,a5
    80605078:	b870                	fsd	fa2,240(s0)
    8060507a:	a4d3817b          	0xa4d3817b
    8060507e:	e3a96a77          	0xe3a96a77
    80605082:	e7b9                	bnez	a5,806050d0 <data3+0xd0>
    80605084:	b025                	j	806048ac <data2+0x8ac>
    80605086:	15cd                	addi	a1,a1,-13
    80605088:	1520                	addi	s0,sp,680
    8060508a:	d6f8                	sw	a4,108(a3)
    8060508c:	f0564e6f          	jal	t3,80569f90 <pre_attack1_end+0x169eb4>
    80605090:	6435fe13          	andi	t3,a1,1603
    80605094:	e5bd                	bnez	a1,80605102 <data3+0x102>
    80605096:	ace0                	fsd	fs0,216(s1)
    80605098:	590610ab          	0x590610ab
    8060509c:	8a7c                	0x8a7c
    8060509e:	8279                	srli	a2,a2,0x1e
    806050a0:	495a                	lw	s2,148(sp)
    806050a2:	6cc5714b          	0x6cc5714b
    806050a6:	f2eb839b          	addiw	t2,s7,-210
    806050aa:	5a5c                	lw	a5,52(a2)
    806050ac:	52a5                	li	t0,-23
    806050ae:	0f291037          	lui	zero,0xf291
    806050b2:	b87a                	fsd	ft10,48(sp)
    806050b4:	b726                	fsd	fs1,424(sp)
    806050b6:	7530                	ld	a2,104(a0)
    806050b8:	804a                	c.mv	zero,s2
    806050ba:	aa18                	fsd	fa4,16(a2)
    806050bc:	211a                	fld	ft2,384(sp)
    806050be:	7b95                	lui	s7,0xfffe5
    806050c0:	a9f5d307          	0xa9f5d307
    806050c4:	5ea6                	lw	t4,104(sp)
    806050c6:	fc7d016b          	0xfc7d016b
    806050ca:	52ffcd43          	fmadd.d	fs10,ft11,fa5,fa0,rmm
    806050ce:	9edd                	0x9edd
    806050d0:	1416                	slli	s0,s0,0x25
    806050d2:	4678                	lw	a4,76(a2)
    806050d4:	cf95                	beqz	a5,80605110 <data3+0x110>
    806050d6:	353bdce3          	bge	s7,s3,80605c2e <data3+0xc2e>
    806050da:	4fda                	lw	t6,148(sp)
    806050dc:	4ece                	lw	t4,208(sp)
    806050de:	6b60                	ld	s0,208(a4)
    806050e0:	f9e5                	bnez	a1,806050d0 <data3+0xd0>
    806050e2:	a121                	j	806054ea <data3+0x4ea>
    806050e4:	cdf5d86b          	0xcdf5d86b
    806050e8:	5ada                	lw	s5,180(sp)
    806050ea:	4602e657          	0x4602e657
    806050ee:	c72afe47          	fmsub.q	ft8,fs5,fs2,fs8
    806050f2:	cbdd                	beqz	a5,806051a8 <data3+0x1a8>
    806050f4:	9b70664f          	fnmadd.d	fa2,ft0,fs7,fs3,unknown
    806050f8:	9315                	srli	a4,a4,0x25
    806050fa:	d4b9                	beqz	s1,80605048 <data3+0x48>
    806050fc:	1442                	slli	s0,s0,0x30
    806050fe:	5c25                	li	s8,-23
    80605100:	5444                	lw	s1,44(s0)
    80605102:	fa1d                	bnez	a2,80605038 <data3+0x38>
    80605104:	e95d0547          	fmsub.s	fa0,fs10,fs5,ft9,rne
    80605108:	2164                	fld	fs1,192(a0)
    8060510a:	3142                	fld	ft2,48(sp)
    8060510c:	8961                	andi	a0,a0,24
    8060510e:	8619                	srai	a2,a2,0x6
    80605110:	de89                	beqz	a3,8060502a <data3+0x2a>
    80605112:	30cc                	fld	fa1,160(s1)
    80605114:	76e2                	ld	a3,56(sp)
    80605116:	8c362ae7          	0x8c362ae7
    8060511a:	c2be                	sw	a5,68(sp)
    8060511c:	2e9c1e53          	fmax.q	ft8,fs8,fs1
    80605120:	8730                	0x8730
    80605122:	1077873b          	0x1077873b
    80605126:	5765                	li	a4,-7
    80605128:	246e06d7          	0x246e06d7
    8060512c:	907e                	c.add	zero,t6
    8060512e:	af74                	fsd	fa3,216(a4)
    80605130:	b14f72c3          	fmadd.s	ft5,ft10,fs4,fs6
    80605134:	d9b0                	sw	a2,112(a1)
    80605136:	db40a8d3          	0xdb40a8d3
    8060513a:	97ed                	srai	a5,a5,0x3b
    8060513c:	7046                	0x7046
    8060513e:	d8c5                	beqz	s1,806050ee <data3+0xee>
    80605140:	0148                	addi	a0,sp,132
    80605142:	22c2                	fld	ft5,16(sp)
    80605144:	24a9                	addiw	s1,s1,10
    80605146:	bc89                	j	80604b98 <data2+0xb98>
    80605148:	e830                	sd	a2,80(s0)
    8060514a:	0ad2d847          	fmsub.d	fa6,ft5,fa3,ft1,unknown
    8060514e:	a7e2                	fsd	fs8,456(sp)
    80605150:	38a8                	fld	fa0,112(s1)
    80605152:	3a24                	fld	fs1,112(a2)
    80605154:	17ed                	addi	a5,a5,-5
    80605156:	9b84                	0x9b84
    80605158:	fe08                	sd	a0,56(a2)
    8060515a:	fac8                	sd	a0,176(a3)
    8060515c:	3b64                	fld	fs1,240(a4)
    8060515e:	db11                	beqz	a4,80605072 <data3+0x72>
    80605160:	14f5ed53          	0x14f5ed53
    80605164:	dafa                	sw	t5,116(sp)
    80605166:	0f1e                	slli	t5,t5,0x7
    80605168:	091e                	slli	s2,s2,0x7
    8060516a:	be4e                	fsd	fs3,312(sp)
    8060516c:	f9e0                	sd	s0,240(a1)
    8060516e:	a4d2                	fsd	fs4,72(sp)
    80605170:	f49e                	sd	t2,104(sp)
    80605172:	c9e3fc63          	bgeu	t2,t5,8060460a <data2+0x60a>
    80605176:	f444                	sd	s1,168(s0)
    80605178:	fdb8                	sd	a4,120(a1)
    8060517a:	f820                	sd	s0,112(s0)
    8060517c:	30d5                	addiw	ra,ra,-11
    8060517e:	5f22                	lw	t5,40(sp)
    80605180:	e334                	sd	a3,64(a4)
    80605182:	0728                	addi	a0,sp,904
    80605184:	3952                	fld	fs2,304(sp)
    80605186:	5768                	lw	a0,108(a4)
    80605188:	f61d                	bnez	a2,806050b6 <data3+0xb6>
    8060518a:	67b4                	ld	a3,72(a5)
    8060518c:	6a20                	ld	s0,80(a2)
    8060518e:	e008                	sd	a0,0(s0)
    80605190:	0149                	addi	sp,sp,18
    80605192:	b4b2                	fsd	fa2,104(sp)
    80605194:	1a00                	addi	s0,sp,304
    80605196:	02b96927          	0x2b96927
    8060519a:	0a59                	addi	s4,s4,22
    8060519c:	f1fe19b3          	0xf1fe19b3
    806051a0:	be294897          	auipc	a7,0xbe294
    806051a4:	6d9a                	ld	s11,384(sp)
    806051a6:	053d6cbf 0d303c27 	0xd303c27053d6cbf
    806051ae:	9194                	0x9194
    806051b0:	16d2d85b          	0x16d2d85b
    806051b4:	e32d49ef          	jal	s3,805d97e6 <pre_attack1_end+0x1d970a>
    806051b8:	98a8                	0x98a8
    806051ba:	744a3e5b          	0x744a3e5b
    806051be:	565c                	lw	a5,44(a2)
    806051c0:	13a441b7          	lui	gp,0x13a44
    806051c4:	4a00                	lw	s0,16(a2)
    806051c6:	57ee                	lw	a5,248(sp)
    806051c8:	4939                	li	s2,14
    806051ca:	73b8                	ld	a4,96(a5)
    806051cc:	3985                	addiw	s3,s3,-31
    806051ce:	0781                	addi	a5,a5,0
    806051d0:	cef9                	beqz	a3,806052ae <data3+0x2ae>
    806051d2:	6c2a                	ld	s8,136(sp)
    806051d4:	6e3d                	lui	t3,0xf
    806051d6:	02f4                	addi	a3,sp,332
    806051d8:	da59                	beqz	a2,8060516e <data3+0x16e>
    806051da:	1964                	addi	s1,sp,188
    806051dc:	5505                	li	a0,-31
    806051de:	44b546f3          	0x44b546f3
    806051e2:	977a                	add	a4,a4,t5
    806051e4:	1ef4                	addi	a3,sp,892
    806051e6:	d42e                	sw	a1,40(sp)
    806051e8:	cc822787          	flw	fa5,-824(tp) # 18cc8 <_start-0x7ffe7338>
    806051ec:	3de3a9d7          	0x3de3a9d7
    806051f0:	a009                	j	806051f2 <data3+0x1f2>
    806051f2:	bf76                	fsd	ft9,440(sp)
    806051f4:	56f9                	li	a3,-2
    806051f6:	d921                	beqz	a0,80605146 <data3+0x146>
    806051f8:	3394                	fld	fa3,32(a5)
    806051fa:	91ea                	add	gp,gp,s10
    806051fc:	d730                	sw	a2,104(a4)
    806051fe:	69e9                	lui	s3,0x1a
    80605200:	5b10                	lw	a2,48(a4)
    80605202:	ea05                	bnez	a2,80605232 <data3+0x232>
    80605204:	a5d2                	fsd	fs4,200(sp)
    80605206:	c7a5                	beqz	a5,8060526e <data3+0x26e>
    80605208:	457d                	li	a0,31
    8060520a:	9544                	0x9544
    8060520c:	f782                	sd	zero,488(sp)
    8060520e:	6f31                	lui	t5,0xc
    80605210:	80d9c4f3          	0x80d9c4f3
    80605214:	3ab9                	addiw	s5,s5,-18
    80605216:	6da0                	ld	s0,88(a1)
    80605218:	3f0598a3          	sh	a6,1009(a1)
    8060521c:	dd72                	sw	t3,184(sp)
    8060521e:	136c                	addi	a1,sp,428
    80605220:	f6c6                	sd	a7,360(sp)
    80605222:	9991                	andi	a1,a1,-28
    80605224:	f5ea                	sd	s10,232(sp)
    80605226:	2be14783          	lbu	a5,702(sp) # 642045bc <_start-0x1bdfba44>
    8060522a:	d158                	sw	a4,36(a0)
    8060522c:	633de0c7          	fmsub.d	ft1,fs11,fs3,fa2,unknown
    80605230:	a98e                	fsd	ft3,208(sp)
    80605232:	13a2                	slli	t2,t2,0x28
    80605234:	a5df1d27          	0xa5df1d27
    80605238:	b929                	j	80604e52 <data2+0xe52>
    8060523a:	2442                	fld	fs0,16(sp)
    8060523c:	9066                	c.add	zero,s9
    8060523e:	e19e                	sd	t2,192(sp)
    80605240:	af249d2b          	0xaf249d2b
    80605244:	3abc                	fld	fa5,112(a3)
    80605246:	b574                	fsd	fa3,232(a0)
    80605248:	ccf8                	sw	a4,92(s1)
    8060524a:	13ce                	slli	t2,t2,0x33
    8060524c:	faf6                	sd	t4,368(sp)
    8060524e:	9a9c                	0x9a9c
    80605250:	1281                	addi	t0,t0,-32
    80605252:	b8a512f3          	csrrw	t0,mhpmcounter10h,a0
    80605256:	031f d0d3 afcf      	0xafcfd0d3031f
    8060525c:	1311                	addi	t1,t1,-28
    8060525e:	814a                	mv	sp,s2
    80605260:	352d                	addiw	a0,a0,-21
    80605262:	f163fe8f          	0xf163fe8f
    80605266:	5841                	li	a6,-16
    80605268:	e8cc                	sd	a1,144(s1)
    8060526a:	d359                	beqz	a4,806051f0 <data3+0x1f0>
    8060526c:	a90a                	fsd	ft2,144(sp)
    8060526e:	c99a                	sw	t1,208(sp)
    80605270:	053d                	addi	a0,a0,15
    80605272:	53ce                	lw	t2,240(sp)
    80605274:	16a5e5b7          	lui	a1,0x16a5e
    80605278:	19b7522b          	0x19b7522b
    8060527c:	a979                	j	8060571a <data3+0x71a>
    8060527e:	bd0621f7          	0xbd0621f7
    80605282:	53c1                	li	t2,-16
    80605284:	99f7e22f          	0x99f7e22f
    80605288:	e5c50763          	beq	a0,t3,806048d6 <data2+0x8d6>
    8060528c:	7f16                	ld	t5,352(sp)
    8060528e:	a65f ab34 80c1      	0x80c1ab34a65f
    80605294:	9f05                	subw	a4,a4,s1
    80605296:	29cd                	addiw	s3,s3,19
    80605298:	d06b1f6b          	0xd06b1f6b
    8060529c:	1782                	slli	a5,a5,0x20
    8060529e:	5f25                	li	t5,-23
    806052a0:	ff50                	sd	a2,184(a4)
    806052a2:	28da303b          	0x28da303b
    806052a6:	8569                	srai	a0,a0,0x1a
    806052a8:	d74e                	sw	s3,172(sp)
    806052aa:	7f52                	ld	t5,304(sp)
    806052ac:	fd4e                	sd	s3,184(sp)
    806052ae:	18f5                	addi	a7,a7,-3
    806052b0:	526c                	lw	a1,100(a2)
    806052b2:	e062                	sd	s8,0(sp)
    806052b4:	79e5fd47          	fmsub.s	fs10,fa1,ft10,fa5
    806052b8:	d04ed48b          	0xd04ed48b
    806052bc:	583a                	lw	a6,172(sp)
    806052be:	a556                	fsd	fs5,136(sp)
    806052c0:	792e                	ld	s2,232(sp)
    806052c2:	83fe                	mv	t2,t6
    806052c4:	9f5e                	add	t5,t5,s7
    806052c6:	e1a515c7          	fmsub.s	fa1,fa0,fs10,ft8,rtz
    806052ca:	c305                	beqz	a4,806052ea <data3+0x2ea>
    806052cc:	a559                	j	80605952 <data3+0x952>
    806052ce:	281e                	fld	fa6,448(sp)
    806052d0:	4c62                	lw	s8,24(sp)
    806052d2:	d2d93a7b          	0xd2d93a7b
    806052d6:	0a04                	addi	s1,sp,272
    806052d8:	2809eeab          	0x2809eeab
    806052dc:	0bea                	slli	s7,s7,0x1a
    806052de:	e996                	sd	t0,208(sp)
    806052e0:	41df b411 1768      	0x1768b41141df
    806052e6:	ac92                	fsd	ft4,88(sp)
    806052e8:	16a9                	addi	a3,a3,-22
    806052ea:	c3ca                	sw	s2,196(sp)
    806052ec:	8d1d                	sub	a0,a0,a5
    806052ee:	f040                	sd	s0,160(s0)
    806052f0:	367a                	fld	fa2,440(sp)
    806052f2:	5842                	lw	a6,48(sp)
    806052f4:	dd92                	sw	tp,248(sp)
    806052f6:	afe9456b          	0xafe9456b
    806052fa:	09a9                	addi	s3,s3,10
    806052fc:	e12e                	sd	a1,128(sp)
    806052fe:	d0602143          	fmadd.s	ft2,ft0,ft6,fs10,rdn
    80605302:	5eb9                	li	t4,-18
    80605304:	f461                	bnez	s0,806052cc <data3+0x2cc>
    80605306:	f51c                	sd	a5,40(a0)
    80605308:	5286                	lw	t0,96(sp)
    8060530a:	8cad                	xor	s1,s1,a1
    8060530c:	76a6                	ld	a3,104(sp)
    8060530e:	2642                	fld	fa2,16(sp)
    80605310:	ce76                	sw	t4,28(sp)
    80605312:	5cf0                	lw	a2,124(s1)
    80605314:	fea4                	sd	s1,120(a3)
    80605316:	9693570f          	0x9693570f
    8060531a:	8bb5                	andi	a5,a5,13
    8060531c:	f060                	sd	s0,224(s0)
    8060531e:	df61                	beqz	a4,806052f6 <data3+0x2f6>
    80605320:	06de                	slli	a3,a3,0x17
    80605322:	ed31                	bnez	a0,8060537e <data3+0x37e>
    80605324:	24df4423          	0x24df4423
    80605328:	9925aacf          	fnmadd.s	fs5,fa1,fs2,fs3,rdn
    8060532c:	b2af9913          	0xb2af9913
    80605330:	3971                	addiw	s2,s2,-4
    80605332:	511b2123          	sw	a7,1282(s6)
    80605336:	31be                	fld	ft3,488(sp)
    80605338:	5e6b35af          	0x5e6b35af
    8060533c:	c9e1                	beqz	a1,8060540c <data3+0x40c>
    8060533e:	d46d24a3          	sw	t1,-695(s10)
    80605342:	54319ecb          	0x54319ecb
    80605346:	27e06db3          	0x27e06db3
    8060534a:	72f1                	lui	t0,0xffffc
    8060534c:	318e                	fld	ft3,224(sp)
    8060534e:	1bff                	0x1bff
    80605350:	85ea                	mv	a1,s10
    80605352:	f3bd                	bnez	a5,806052b8 <data3+0x2b8>
    80605354:	0604                	addi	s1,sp,768
    80605356:	521e                	lw	tp,228(sp)
    80605358:	0726                	slli	a4,a4,0x9
    8060535a:	feb99b17          	auipc	s6,0xfeb99
    8060535e:	2d4c                	fld	fa1,152(a0)
    80605360:	c10e                	sw	gp,128(sp)
    80605362:	8058                	0x8058
    80605364:	1e64                	addi	s1,sp,828
    80605366:	c64e                	sw	s3,12(sp)
    80605368:	7db4                	ld	a3,120(a1)
    8060536a:	958e                	add	a1,a1,gp
    8060536c:	c061                	beqz	s0,8060542c <data3+0x42c>
    8060536e:	ada0                	fsd	fs0,88(a1)
    80605370:	6d7d                	lui	s10,0x1f
    80605372:	7fd08acb          	fnmsub.q	fs5,ft1,ft9,fa5,rne
    80605376:	a8f8                	fsd	fa4,208(s1)
    80605378:	c94a                	sw	s2,144(sp)
    8060537a:	cd32                	sw	a2,152(sp)
    8060537c:	c630                	sw	a2,72(a2)
    8060537e:	b37c                	fsd	fa5,224(a4)
    80605380:	5054                	lw	a3,36(s0)
    80605382:	26e2                	fld	fa3,24(sp)
    80605384:	c02c                	sw	a1,64(s0)
    80605386:	fad4                	sd	a3,176(a3)
    80605388:	50dc                	lw	a5,36(s1)
    8060538a:	e62e                	sd	a1,264(sp)
    8060538c:	1306                	slli	t1,t1,0x21
    8060538e:	8bcd                	andi	a5,a5,19
    80605390:	3726                	fld	fa4,104(sp)
    80605392:	14ff                	0x14ff
    80605394:	84ac                	0x84ac
    80605396:	98d4                	0x98d4
    80605398:	5f94                	lw	a3,56(a5)
    8060539a:	efb0                	sd	a2,88(a5)
    8060539c:	5f1e                	lw	t5,228(sp)
    8060539e:	0005d783          	lhu	a5,0(a1) # 16a5e000 <_start-0x695a2000>
    806053a2:	59b2                	lw	s3,44(sp)
    806053a4:	ef28                	sd	a0,88(a4)
    806053a6:	3cc28327          	0x3cc28327
    806053aa:	51e1                	li	gp,-8
    806053ac:	57bd                	li	a5,-17
    806053ae:	f51e0ecb          	0xf51e0ecb
    806053b2:	58c2                	lw	a7,48(sp)
    806053b4:	e52a                	sd	a0,136(sp)
    806053b6:	7e26                	ld	t3,104(sp)
    806053b8:	7058                	ld	a4,160(s0)
    806053ba:	e9f5                	bnez	a1,806054ae <data3+0x4ae>
    806053bc:	05c5                	addi	a1,a1,17
    806053be:	c128                	sw	a0,64(a0)
    806053c0:	2e61                	addiw	t3,t3,24
    806053c2:	e40d                	bnez	s0,806053ec <data3+0x3ec>
    806053c4:	16a9                	addi	a3,a3,-22
    806053c6:	6f1ba93f c786eb42 	0xc786eb426f1ba93f
    806053ce:	4a76                	lw	s4,92(sp)
    806053d0:	10b5                	addi	ra,ra,-19
    806053d2:	c490                	sw	a2,8(s1)
    806053d4:	7ff0a747          	fmsub.q	fa4,ft1,ft11,fa5,rdn
    806053d8:	2b11                	addiw	s6,s6,4
    806053da:	b591                	j	8060521e <data3+0x21e>
    806053dc:	b6c5                	j	80604fbc <data2+0xfbc>
    806053de:	5d16                	lw	s10,100(sp)
    806053e0:	659f4897          	auipc	a7,0x659f4
    806053e4:	5b4a                	lw	s6,176(sp)
    806053e6:	5ef0                	lw	a2,124(a3)
    806053e8:	cadb9707          	0xcadb9707
    806053ec:	62dc                	ld	a5,128(a3)
    806053ee:	28ce                	fld	fa7,208(sp)
    806053f0:	9a6fdf77          	0x9a6fdf77
    806053f4:	297548af          	0x297548af
    806053f8:	6e7e                	ld	t3,472(sp)
    806053fa:	23ae                	fld	ft7,200(sp)
    806053fc:	2226                	fld	ft4,72(sp)
    806053fe:	002a                	c.slli	zero,0xa
	...

0000000080606000 <data4>:
    80606000:	3186                	fld	ft3,96(sp)
    80606002:	25d4                	fld	fa3,136(a1)
    80606004:	a18a                	fsd	ft2,192(sp)
    80606006:	256d                	addiw	a0,a0,27
    80606008:	cd42                	sw	a6,152(sp)
    8060600a:	90028e0f          	0x90028e0f
    8060600e:	05d9                	addi	a1,a1,22
    80606010:	3b5d                	addiw	s6,s6,-9
    80606012:	652e                	ld	a0,200(sp)
    80606014:	e629                	bnez	a2,8060605e <data4+0x5e>
    80606016:	8d6a                	mv	s10,s10
    80606018:	97d8                	0x97d8
    8060601a:	ead9                	bnez	a3,806060b0 <data4+0xb0>
    8060601c:	12c56aef          	jal	s5,8065c148 <data7+0x53148>
    80606020:	5a50                	lw	a2,52(a2)
    80606022:	2f7c                	fld	fa5,216(a4)
    80606024:	7439                	lui	s0,0xfffee
    80606026:	11c4                	addi	s1,sp,228
    80606028:	1a52                	slli	s4,s4,0x34
    8060602a:	549b8543          	0x549b8543
    8060602e:	ca51                	beqz	a2,806060c2 <data4+0xc2>
    80606030:	4a9bfacf          	fnmadd.d	fs5,fs7,fs1,fs1
    80606034:	9d92                	add	s11,s11,tp
    80606036:	464b8c93          	addi	s9,s7,1124 # fffffffffffe5464 <secret+0xffffffff7f3e5464>
    8060603a:	7031                	c.lui	zero,0xfffec
    8060603c:	4145                	li	sp,17
    8060603e:	0edc                	addi	a5,sp,852
    80606040:	e246                	sd	a7,256(sp)
    80606042:	9b7c                	0x9b7c
    80606044:	2a2d                	addiw	s4,s4,11
    80606046:	a180                	fsd	fs0,0(a1)
    80606048:	5fba                	lw	t6,172(sp)
    8060604a:	8de6                	mv	s11,s9
    8060604c:	8370                	0x8370
    8060604e:	40e9                	li	ra,26
    80606050:	6ad51eaf          	0x6ad51eaf
    80606054:	93d7bd17          	auipc	s10,0x93d7b
    80606058:	5373719b          	0x5373719b
    8060605c:	4585d95b          	0x4585d95b
    80606060:	08b8                	addi	a4,sp,88
    80606062:	4018                	lw	a4,0(s0)
    80606064:	d1f9                	beqz	a1,8060602a <data4+0x2a>
    80606066:	8e6223f3          	csrrs	t2,0x8e6,tp
    8060606a:	995d                	andi	a0,a0,-9
    8060606c:	4b7c                	lw	a5,84(a4)
    8060606e:	d92c                	sw	a1,112(a0)
    80606070:	6c24                	ld	s1,88(s0)
    80606072:	7791                	lui	a5,0xfffe4
    80606074:	1e8e                	slli	t4,t4,0x23
    80606076:	bcce                	fsd	fs3,120(sp)
    80606078:	8ebc                	0x8ebc
    8060607a:	a3d6fb03          	0xa3d6fb03
    8060607e:	542c                	lw	a1,104(s0)
    80606080:	8f84                	0x8f84
    80606082:	acea                	fsd	fs10,88(sp)
    80606084:	394a                	fld	fs2,176(sp)
    80606086:	e5f8345b          	0xe5f8345b
    8060608a:	ee09                	bnez	a2,806060a4 <data4+0xa4>
    8060608c:	1160                	addi	s0,sp,172
    8060608e:	e6f2                	sd	t3,328(sp)
    80606090:	bc0d                	j	80605ac2 <data3+0xac2>
    80606092:	107bf187          	0x107bf187
    80606096:	57973f47          	fmsub.q	ft10,fa4,fs9,fa0,rup
    8060609a:	5282f6ef          	jal	a3,806355c2 <data7+0x2c5c2>
    8060609e:	81fa                	mv	gp,t5
    806060a0:	4afd000f          	0x4afd000f
    806060a4:	2d7a                	fld	fs10,408(sp)
    806060a6:	3616                	fld	fa2,352(sp)
    806060a8:	e2803f7b          	0xe2803f7b
    806060ac:	47a0                	lw	s0,72(a5)
    806060ae:	af84284f          	fnmadd.q	fa6,fs0,fs8,fs5,rdn
    806060b2:	d4c4                	sw	s1,44(s1)
    806060b4:	58e9                	li	a7,-6
    806060b6:	02e2                	slli	t0,t0,0x18
    806060b8:	883e                	mv	a6,a5
    806060ba:	f875                	bnez	s0,806060ae <data4+0xae>
    806060bc:	22f4                	fld	fa3,192(a3)
    806060be:	6a06                	ld	s4,64(sp)
    806060c0:	3978                	fld	fa4,240(a0)
    806060c2:	6836                	ld	a6,328(sp)
    806060c4:	0b81                	addi	s7,s7,0
    806060c6:	1e0e                	slli	t3,t3,0x23
    806060c8:	10c2                	slli	ra,ra,0x30
    806060ca:	09fe                	slli	s3,s3,0x1f
    806060cc:	822a                	mv	tp,a0
    806060ce:	e48e                	sd	gp,72(sp)
    806060d0:	f3b6                	sd	a3,480(sp)
    806060d2:	6985                	lui	s3,0x1
    806060d4:	5ae9                	li	s5,-6
    806060d6:	dbe4bd57          	0xdbe4bd57
    806060da:	caa9                	beqz	a3,8060612c <data4+0x12c>
    806060dc:	37ad                	addiw	a5,a5,-21
    806060de:	7ad0                	ld	a2,176(a3)
    806060e0:	249d                	addiw	s1,s1,7
    806060e2:	8c86                	mv	s9,ra
    806060e4:	3d54                	fld	fa3,184(a0)
    806060e6:	c0589417          	auipc	s0,0xc0589
    806060ea:	0705                	addi	a4,a4,1
    806060ec:	0f0e                	slli	t5,t5,0x3
    806060ee:	5c12                	lw	s8,36(sp)
    806060f0:	ca7d                	beqz	a2,806061e6 <data4+0x1e6>
    806060f2:	dac2                	sw	a6,116(sp)
    806060f4:	cd9c                	sw	a5,24(a1)
    806060f6:	9904                	0x9904
    806060f8:	5fe0                	lw	s0,124(a5)
    806060fa:	9640                	0x9640
    806060fc:	2124                	fld	fs1,64(a0)
    806060fe:	81d9                	srli	a1,a1,0x16
    80606100:	b2ff                	0xb2ff
    80606102:	f572                	sd	t3,168(sp)
    80606104:	5418f433          	0x5418f433
    80606108:	4a7a3c5b          	0x4a7a3c5b
    8060610c:	906c3fa3          	sd	t1,-1761(s8) # 591f <_start-0x7fffa6e1>
    80606110:	94ba                	add	s1,s1,a4
    80606112:	bea2                	fsd	fs0,376(sp)
    80606114:	c648                	sw	a0,12(a2)
    80606116:	f8ae                	sd	a1,112(sp)
    80606118:	5128                	lw	a0,96(a0)
    8060611a:	87ac                	0x87ac
    8060611c:	268a                	fld	fa3,128(sp)
    8060611e:	329a                	fld	ft5,416(sp)
    80606120:	9a01                	andi	a2,a2,-32
    80606122:	5b7a432f          	0x5b7a432f
    80606126:	b39a                	fsd	ft6,480(sp)
    80606128:	d7ea                	sw	s10,236(sp)
    8060612a:	4a98                	lw	a4,16(a3)
    8060612c:	494b2c5b          	0x494b2c5b
    80606130:	3ead                	addiw	t4,t4,-21
    80606132:	ffa38f6b          	0xffa38f6b
    80606136:	91ed                	srli	a1,a1,0x3b
    80606138:	3928                	fld	fa0,112(a0)
    8060613a:	0514                	addi	a3,sp,640
    8060613c:	6254fc6f          	jal	s8,80655f60 <data7+0x4cf60>
    80606140:	4f64                	lw	s1,92(a4)
    80606142:	b194                	fsd	fa3,32(a1)
    80606144:	30b8                	fld	fa4,96(s1)
    80606146:	a4c9                	j	80606408 <data4+0x408>
    80606148:	be8a                	fsd	ft2,376(sp)
    8060614a:	2dbd                	addiw	s11,s11,15
    8060614c:	4730                	lw	a2,72(a4)
    8060614e:	3574734b          	0x3574734b
    80606152:	375c                	fld	fa5,168(a4)
    80606154:	e74d                	bnez	a4,806061fe <data4+0x1fe>
    80606156:	9f33790f          	0x9f33790f
    8060615a:	8321                	srli	a4,a4,0x8
    8060615c:	4042                	0x4042
    8060615e:	b918                	fsd	fa4,48(a0)
    80606160:	f7ba                	sd	a4,488(sp)
    80606162:	c31f 1ed5 5c0b      	0x5c0b1ed5c31f
    80606168:	2200                	fld	fs0,0(a2)
    8060616a:	f6a5                	bnez	a3,806060d2 <data4+0xd2>
    8060616c:	491a                	lw	s2,132(sp)
    8060616e:	7782                	ld	a5,32(sp)
    80606170:	3d50                	fld	fa2,184(a0)
    80606172:	80cc                	0x80cc
    80606174:	7bee1587          	0x7bee1587
    80606178:	0789                	addi	a5,a5,2
    8060617a:	a018                	fsd	fa4,0(s0)
    8060617c:	4bd2                	lw	s7,20(sp)
    8060617e:	3a08                	fld	fa0,48(a2)
    80606180:	4530                	lw	a2,72(a0)
    80606182:	e749                	bnez	a4,8060620c <data4+0x20c>
    80606184:	0e0a                	slli	t3,t3,0x2
    80606186:	099f 3054 f779      	0xf7793054099f
    8060618c:	d49a                	sw	t1,104(sp)
    8060618e:	2ed8                	fld	fa4,152(a3)
    80606190:	c0c1f5d3          	0xc0c1f5d3
    80606194:	2d36                	fld	fs10,328(sp)
    80606196:	dc7e                	sw	t6,56(sp)
    80606198:	7f24                	ld	s1,120(a4)
    8060619a:	cc64                	sw	s1,92(s0)
    8060619c:	f221                	bnez	a2,806060dc <data4+0xdc>
    8060619e:	4296                	lw	t0,68(sp)
    806061a0:	f5ea                	sd	s10,232(sp)
    806061a2:	72c0a9bb          	0x72c0a9bb
    806061a6:	ba45                	j	80605b56 <data3+0xb56>
    806061a8:	b531002f          	0xb531002f
    806061ac:	f0b9                	bnez	s1,806060f2 <data4+0xf2>
    806061ae:	6b9a                	ld	s7,384(sp)
    806061b0:	8ac9eb97          	auipc	s7,0x8ac9e
    806061b4:	e9b9                	bnez	a1,8060620a <data4+0x20a>
    806061b6:	a371                	j	80606742 <data4+0x742>
    806061b8:	72fd                	lui	t0,0xfffff
    806061ba:	5738                	lw	a4,104(a4)
    806061bc:	6a8d39a3          	sd	s0,1715(s10) # 14381707 <_start-0x6bc7e8f9>
    806061c0:	073a                	slli	a4,a4,0xe
    806061c2:	2e40                	fld	fs0,152(a2)
    806061c4:	e885                	bnez	s1,806061f4 <data4+0x1f4>
    806061c6:	f54a03e7          	jalr	t2,-172(s4) # eedd0fa8 <secret+0x6e1d0fa8>
    806061ca:	1c387a87          	0x1c387a87
    806061ce:	44a2                	lw	s1,8(sp)
    806061d0:	0a39                	addi	s4,s4,14
    806061d2:	f628                	sd	a0,104(a2)
    806061d4:	d89984eb          	0xd89984eb
    806061d8:	9dd01eeb          	0x9dd01eeb
    806061dc:	fbb2                	sd	a2,496(sp)
    806061de:	bab8                	fsd	fa4,112(a3)
    806061e0:	426a05b3          	0x426a05b3
    806061e4:	dbb8                	sw	a4,112(a5)
    806061e6:	6e8e                	ld	t4,192(sp)
    806061e8:	1cb1                	addi	s9,s9,-20
    806061ea:	dc10                	sw	a2,56(s0)
    806061ec:	c1ed                	beqz	a1,806062ce <data4+0x2ce>
    806061ee:	71d2                	ld	gp,304(sp)
    806061f0:	5d0a                	lw	s10,160(sp)
    806061f2:	36df da94 91af      	0x91afda9436df
    806061f8:	371c                	fld	fa5,40(a4)
    806061fa:	7a06                	ld	s4,96(sp)
    806061fc:	3b21                	addiw	s6,s6,-24
    806061fe:	def5248b          	0xdef5248b
    80606202:	a0ac                	fsd	fa1,64(s1)
    80606204:	e1a0                	sd	s0,64(a1)
    80606206:	aa5eb1d7          	0xaa5eb1d7
    8060620a:	303a                	fld	ft0,424(sp)
    8060620c:	968edd7b          	0x968edd7b
    80606210:	713e                	ld	sp,488(sp)
    80606212:	6401                	0x6401
    80606214:	c5ce                	sw	s3,200(sp)
    80606216:	94aa3203          	ld	tp,-1718(s4)
    8060621a:	93de81e3          	beq	t4,t4,80605b3c <data3+0xb3c>
    8060621e:	5082                	lw	ra,32(sp)
    80606220:	a64e                	fsd	fs3,264(sp)
    80606222:	b278630b          	0xb278630b
    80606226:	bc9960f3          	csrrsi	ra,0xbc9,18
    8060622a:	bca5                	j	80605ca2 <data3+0xca2>
    8060622c:	d54e                	sw	s3,168(sp)
    8060622e:	edf5                	bnez	a1,8060632a <data4+0x32a>
    80606230:	dc9a                	sw	t1,120(sp)
    80606232:	f7ee                	sd	s11,488(sp)
    80606234:	2ac05ed3          	0x2ac05ed3
    80606238:	dbeb694b          	fnmsub.d	fs2,fs6,ft10,fs11,unknown
    8060623c:	3700                	fld	fs0,40(a4)
    8060623e:	6720                	ld	s0,72(a4)
    80606240:	1d35                	addi	s10,s10,-19
    80606242:	4182                	lw	gp,0(sp)
    80606244:	6a2a                	ld	s4,136(sp)
    80606246:	1da5                	addi	s11,s11,-23
    80606248:	e9f5                	bnez	a1,8060633c <data4+0x33c>
    8060624a:	506d                	c.li	zero,-5
    8060624c:	3312                	fld	ft6,288(sp)
    8060624e:	cb35                	beqz	a4,806062c2 <data4+0x2c2>
    80606250:	18f2                	slli	a7,a7,0x3c
    80606252:	e0e1                	bnez	s1,80606312 <data4+0x312>
    80606254:	41a0                	lw	s0,64(a1)
    80606256:	6000                	ld	s0,0(s0)
    80606258:	2900                	fld	fs0,16(a0)
    8060625a:	e314                	sd	a3,0(a4)
    8060625c:	99d2                	add	s3,s3,s4
    8060625e:	52e1f37b          	0x52e1f37b
    80606262:	4cb1                	li	s9,12
    80606264:	0e6e                	slli	t3,t3,0x1b
    80606266:	c14d                	beqz	a0,80606308 <data4+0x308>
    80606268:	8ff1                	and	a5,a5,a2
    8060626a:	c309                	beqz	a4,8060626c <data4+0x26c>
    8060626c:	f59c                	sd	a5,40(a1)
    8060626e:	4ee8f25b          	0x4ee8f25b
    80606272:	ac64                	fsd	fs1,216(s0)
    80606274:	f528                	sd	a0,104(a0)
    80606276:	501c                	lw	a5,32(s0)
    80606278:	a0fd                	j	80606366 <data4+0x366>
    8060627a:	6bb2                	ld	s7,264(sp)
    8060627c:	12d8                	addi	a4,sp,356
    8060627e:	4df6cea7          	fsq	ft11,1245(a3) # ffffffffa6ff44dd <secret+0xffffffff263f44dd>
    80606282:	f878                	sd	a4,240(s0)
    80606284:	a350                	fsd	fa2,128(a4)
    80606286:	b7e2                	fsd	fs8,488(sp)
    80606288:	5cfe                	lw	s9,252(sp)
    8060628a:	b2c8                	fsd	fa0,160(a3)
    8060628c:	024a                	slli	tp,tp,0x12
    8060628e:	2b25                	addiw	s6,s6,9
    80606290:	7b35                	lui	s6,0xfffed
    80606292:	8c22                	mv	s8,s0
    80606294:	1078                	addi	a4,sp,44
    80606296:	d1ac                	sw	a1,96(a1)
    80606298:	03e1                	addi	t2,t2,24
    8060629a:	beec                	fsd	fa1,248(a3)
    8060629c:	6054                	ld	a3,128(s0)
    8060629e:	3854                	fld	fa3,176(s0)
    806062a0:	de9c                	sw	a5,56(a3)
    806062a2:	783a                	ld	a6,424(sp)
    806062a4:	6f504f27          	fsq	fs5,1790(zero) # 6fe <_start-0x7ffff902>
    806062a8:	f590                	sd	a2,40(a1)
    806062aa:	a15e83d3          	fle.s	t2,ft9,fs5
    806062ae:	0b8a                	slli	s7,s7,0x2
    806062b0:	f401                	bnez	s0,806061b8 <data4+0x1b8>
    806062b2:	ebb6                	sd	a3,464(sp)
    806062b4:	58499567          	0x58499567
    806062b8:	63ec                	ld	a1,192(a5)
    806062ba:	d4b0                	sw	a2,104(s1)
    806062bc:	0c6a                	slli	s8,s8,0x1a
    806062be:	51ff                	0x51ff
    806062c0:	26b5                	addiw	a3,a3,13
    806062c2:	1752                	slli	a4,a4,0x34
    806062c4:	a35c                	fsd	fa5,128(a4)
    806062c6:	84a84c0f          	0x84a84c0f
    806062ca:	8ee4                	0x8ee4
    806062cc:	c480                	sw	s0,8(s1)
    806062ce:	e9fe                	sd	t6,208(sp)
    806062d0:	e82a                	sd	a0,16(sp)
    806062d2:	225cb803          	ld	a6,549(s9) # ffffffffffff0225 <secret+0xffffffff7f3f0225>
    806062d6:	0445                	addi	s0,s0,17
    806062d8:	10fa30f3          	csrrc	ra,0x10f,s4
    806062dc:	4215                	li	tp,5
    806062de:	8180                	0x8180
    806062e0:	dc96                	sw	t0,120(sp)
    806062e2:	1afe                	slli	s5,s5,0x3f
    806062e4:	fbfe                	sd	t6,496(sp)
    806062e6:	d932                	sw	a2,176(sp)
    806062e8:	198d                	addi	s3,s3,-29
    806062ea:	67ec9657          	0x67ec9657
    806062ee:	a162                	fsd	fs8,128(sp)
    806062f0:	bb20                	fsd	fs0,112(a4)
    806062f2:	c8b1                	beqz	s1,80606346 <data4+0x346>
    806062f4:	94fc                	0x94fc
    806062f6:	ec50                	sd	a2,152(s0)
    806062f8:	b4a0                	fsd	fs0,104(s1)
    806062fa:	865cd2fb          	0x865cd2fb
    806062fe:	7b06                	ld	s6,96(sp)
    80606300:	d612                	sw	tp,44(sp)
    80606302:	1f7d                	addi	t5,t5,-1
    80606304:	0f8a                	slli	t6,t6,0x2
    80606306:	7f56                	ld	t5,368(sp)
    80606308:	4270                	lw	a2,68(a2)
    8060630a:	9f4a                	add	t5,t5,s2
    8060630c:	fdec872b          	0xfdec872b
    80606310:	0936                	slli	s2,s2,0xd
    80606312:	c68c                	sw	a1,8(a3)
    80606314:	1cbd                	addi	s9,s9,-17
    80606316:	af1c                	fsd	fa5,24(a4)
    80606318:	705299e7          	0x705299e7
    8060631c:	8185f76f          	jal	a4,80565334 <pre_attack1_end+0x165258>
    80606320:	725e02fb          	0x725e02fb
    80606324:	72ae7c37          	lui	s8,0x72ae7
    80606328:	f435                	bnez	s0,80606294 <data4+0x294>
    8060632a:	b8dd                	j	80605c20 <data3+0xc20>
    8060632c:	b9d4                	fsd	fa3,176(a1)
    8060632e:	0a91                	addi	s5,s5,4
    80606330:	bf8c2067          	0xbf8c2067
    80606334:	42c6                	lw	t0,80(sp)
    80606336:	3368                	fld	fa0,224(a4)
    80606338:	d0fe                	sw	t6,96(sp)
    8060633a:	1e5e                	slli	t3,t3,0x37
    8060633c:	e8a12acb          	fnmsub.s	fs5,ft2,fa0,ft9,rdn
    80606340:	0f86                	slli	t6,t6,0x1
    80606342:	d09d6b0b          	0xd09d6b0b
    80606346:	d43d                	beqz	s0,806062b4 <data4+0x2b4>
    80606348:	e1d6                	sd	s5,192(sp)
    8060634a:	74ed                	lui	s1,0xffffb
    8060634c:	dc78                	sw	a4,124(s0)
    8060634e:	9ba6f623          	0x9ba6f623
    80606352:	3012                	fld	ft0,288(sp)
    80606354:	9744                	0x9744
    80606356:	38514453          	0x38514453
    8060635a:	3536                	fld	fa0,360(sp)
    8060635c:	ae2a                	fsd	fa0,280(sp)
    8060635e:	1274                	addi	a3,sp,300
    80606360:	6ab5                	lui	s5,0xd
    80606362:	8efa                	mv	t4,t5
    80606364:	900d                	srli	s0,s0,0x23
    80606366:	2fad                	addiw	t6,t6,11
    80606368:	4099                	li	ra,6
    8060636a:	7cd6                	ld	s9,368(sp)
    8060636c:	08b2                	slli	a7,a7,0xc
    8060636e:	abd218ef          	jal	a7,80527e2a <pre_attack1_end+0x127d4e>
    80606372:	cd25bc63          	0xcd25bc63
    80606376:	4970                	lw	a2,84(a0)
    80606378:	f638                	sd	a4,104(a2)
    8060637a:	a079                	j	80606408 <data4+0x408>
    8060637c:	5090                	lw	a2,32(s1)
    8060637e:	c4cc                	sw	a1,12(s1)
    80606380:	5414                	lw	a3,40(s0)
    80606382:	bd191433          	0xbd191433
    80606386:	7214                	ld	a3,32(a2)
    80606388:	2752                	fld	fa4,272(sp)
    8060638a:	4458                	lw	a4,12(s0)
    8060638c:	2814                	fld	fa3,16(s0)
    8060638e:	bf857b9b          	0xbf857b9b
    80606392:	6214                	ld	a3,0(a2)
    80606394:	8a34                	0x8a34
    80606396:	c0fa                	sw	t5,64(sp)
    80606398:	b16a                	fsd	fs10,160(sp)
    8060639a:	6d70                	ld	a2,216(a0)
    8060639c:	e53c                	sd	a5,72(a0)
    8060639e:	4448                	lw	a0,12(s0)
    806063a0:	7e9a                	ld	t4,416(sp)
    806063a2:	a5df 1071 86f7      	0x86f71071a5df
    806063a8:	823f6def          	jal	s11,805fcbca <pre_attack1_end+0x1fcaee>
    806063ac:	397a                	fld	fs2,440(sp)
    806063ae:	e6ea                	sd	s10,328(sp)
    806063b0:	9c54                	0x9c54
    806063b2:	8371                	srli	a4,a4,0x1c
    806063b4:	8d5f 1d6e 43ac      	0x43ac1d6e8d5f
    806063ba:	3a392f73          	csrrs	t5,pmpcfg3,s2
    806063be:	aa7f                	0xaa7f
    806063c0:	34d0                	fld	fa2,168(s1)
    806063c2:	a351                	j	80606946 <data4+0x946>
    806063c4:	f65c                	sd	a5,168(a2)
    806063c6:	bc1a                	fsd	ft6,56(sp)
    806063c8:	f686                	sd	ra,360(sp)
    806063ca:	f7c4                	sd	s1,168(a5)
    806063cc:	917a                	add	sp,sp,t5
    806063ce:	04c8                	addi	a0,sp,580
    806063d0:	85d750db          	0x85d750db
    806063d4:	cd13bbe7          	0xcd13bbe7
    806063d8:	71042207          	flw	ft4,1808(s0) # 40b8f7f6 <_start-0x3f47080a>
    806063dc:	46c0                	lw	s0,12(a3)
    806063de:	f1de                	sd	s7,224(sp)
    806063e0:	f35d                	bnez	a4,80606386 <data4+0x386>
    806063e2:	1975                	addi	s2,s2,-3
    806063e4:	96b0                	0x96b0
    806063e6:	4e25                	li	t3,9
    806063e8:	14c4                	addi	s1,sp,612
    806063ea:	5e26                	lw	t3,104(sp)
    806063ec:	fe3c                	sd	a5,120(a2)
    806063ee:	b4f2                	fsd	ft8,104(sp)
    806063f0:	0856                	slli	a6,a6,0x15
    806063f2:	1314                	addi	a3,sp,416
    806063f4:	77112703          	lw	a4,1905(sp)
    806063f8:	f1b2                	sd	a2,224(sp)
    806063fa:	f59fc027          	fsq	fs9,-192(t6) # 8f40 <_start-0x7fff70c0>
    806063fe:	f97f                	0xf97f
	...

0000000080607000 <data5>:
    80607000:	65a4                	ld	s1,72(a1)
    80607002:	d849                	beqz	s0,80606f94 <data4+0xf94>
    80607004:	ef4e                	sd	s3,408(sp)
    80607006:	156e                	slli	a0,a0,0x3b
    80607008:	745771af          	0x745771af
    8060700c:	adf8                	fsd	fa4,216(a1)
    8060700e:	0309                	addi	t1,t1,2
    80607010:	4bae                	lw	s7,200(sp)
    80607012:	3ffd                	addiw	t6,t6,-1
    80607014:	79c6                	ld	s3,112(sp)
    80607016:	91ce                	add	gp,gp,s3
    80607018:	0a36                	slli	s4,s4,0xd
    8060701a:	802c                	0x802c
    8060701c:	8d2c                	0x8d2c
    8060701e:	28e0                	fld	fs0,208(s1)
    80607020:	c83c                	sw	a5,80(s0)
    80607022:	fc96                	sd	t0,120(sp)
    80607024:	1741                	addi	a4,a4,-16
    80607026:	adb8                	fsd	fa4,88(a1)
    80607028:	489c                	lw	a5,16(s1)
    8060702a:	3380                	fld	fs0,32(a5)
    8060702c:	c6238deb          	0xc6238deb
    80607030:	8c3e                	mv	s8,a5
    80607032:	5a836327          	0x5a836327
    80607036:	38be                	fld	fa7,488(sp)
    80607038:	58ff                	0x58ff
    8060703a:	ac9d                	j	806072b0 <data5+0x2b0>
    8060703c:	e3f9                	bnez	a5,80607102 <data5+0x102>
    8060703e:	80348f17          	auipc	t5,0x80348
    80607042:	d548                	sw	a0,44(a0)
    80607044:	a3b6                	fsd	fa3,448(sp)
    80607046:	ba22                	fsd	fs0,304(sp)
    80607048:	1021                	c.nop	-24
    8060704a:	2acfa077          	0x2acfa077
    8060704e:	49a2                	lw	s3,8(sp)
    80607050:	515167e3          	bltu	sp,s5,80607d5e <data5+0xd5e>
    80607054:	0a32a887          	flw	fa7,163(t0) # fffffffffffff0a3 <secret+0xffffffff7f3ff0a3>
    80607058:	b00d                	j	8060687a <data4+0x87a>
    8060705a:	d0f5                	beqz	s1,8060703e <data5+0x3e>
    8060705c:	31d0                	fld	fa2,160(a1)
    8060705e:	fc04                	sd	s1,56(s0)
    80607060:	7d16                	ld	s10,352(sp)
    80607062:	7cca                	ld	s9,176(sp)
    80607064:	b26c                	fsd	fa1,224(a2)
    80607066:	3c961a13          	0x3c961a13
    8060706a:	c745                	beqz	a4,80607112 <data5+0x112>
    8060706c:	747e                	ld	s0,504(sp)
    8060706e:	c10acf2f          	0xc10acf2f
    80607072:	349a                	fld	fs1,416(sp)
    80607074:	5012a2d3          	0x5012a2d3
    80607078:	65708df7          	0x65708df7
    8060707c:	4de5ee9b          	0x4de5ee9b
    80607080:	e9160357          	0xe9160357
    80607084:	5af0                	lw	a2,116(a3)
    80607086:	1cc1ff3b          	0x1cc1ff3b
    8060708a:	c2bd                	beqz	a3,806070f0 <data5+0xf0>
    8060708c:	a6fa                	fsd	ft10,328(sp)
    8060708e:	568c                	lw	a1,40(a3)
    80607090:	4dd25a37          	lui	s4,0x4dd25
    80607094:	b548dcbf 612ea298 	0x612ea298b548dcbf
    8060709c:	2778                	fld	fa4,200(a4)
    8060709e:	a1e0                	fsd	fs0,192(a1)
    806070a0:	eb4a3577          	0xeb4a3577
    806070a4:	4718                	lw	a4,8(a4)
    806070a6:	1b5f9f47          	fmsub.d	ft10,ft11,fs5,ft3,rtz
    806070aa:	4e7e                	lw	t3,220(sp)
    806070ac:	2a90                	fld	fa2,16(a3)
    806070ae:	53e6386b          	0x53e6386b
    806070b2:	c39609fb          	0xc39609fb
    806070b6:	8526                	mv	a0,s1
    806070b8:	e949                	bnez	a0,8060714a <data5+0x14a>
    806070ba:	fa74                	sd	a3,240(a2)
    806070bc:	8712                	mv	a4,tp
    806070be:	4c58                	lw	a4,28(s0)
    806070c0:	23a6                	fld	ft7,72(sp)
    806070c2:	f2be                	sd	a5,352(sp)
    806070c4:	c3e0                	sw	s0,68(a5)
    806070c6:	f762                	sd	s8,424(sp)
    806070c8:	77b9                	lui	a5,0xfffee
    806070ca:	ec1acd7b          	0xec1acd7b
    806070ce:	b356                	fsd	fs5,416(sp)
    806070d0:	5339                	li	t1,-18
    806070d2:	17cd                	addi	a5,a5,-13
    806070d4:	88a0                	0x88a0
    806070d6:	50547a63          	bgeu	s0,t0,806075ea <data5+0x5ea>
    806070da:	e46e                	sd	s11,8(sp)
    806070dc:	83b6                	mv	t2,a3
    806070de:	7fdd                	lui	t6,0xffff7
    806070e0:	8c3d                	xor	s0,s0,a5
    806070e2:	528d                	li	t0,-29
    806070e4:	4a4c                	lw	a1,20(a2)
    806070e6:	4319                	li	t1,6
    806070e8:	1504                	addi	s1,sp,672
    806070ea:	0702                	c.slli64	a4
    806070ec:	4881                	li	a7,0
    806070ee:	625e                	ld	tp,464(sp)
    806070f0:	9f7c                	0x9f7c
    806070f2:	7a62                	ld	s4,56(sp)
    806070f4:	8f96                	mv	t6,t0
    806070f6:	4885                	li	a7,1
    806070f8:	7afc                	ld	a5,240(a3)
    806070fa:	69d75903          	lhu	s2,1693(a4) # ffffffffffffa69d <secret+0xffffffff7f3fa69d>
    806070fe:	5960                	lw	s0,116(a0)
    80607100:	ff94                	sd	a3,56(a5)
    80607102:	65d0                	ld	a2,136(a1)
    80607104:	e639                	bnez	a2,80607152 <data5+0x152>
    80607106:	398e                	fld	fs3,224(sp)
    80607108:	b414                	fsd	fa3,40(s0)
    8060710a:	ff46                	sd	a7,440(sp)
    8060710c:	9495                	srai	s1,s1,0x25
    8060710e:	d785793f 5073f6fa 	0x5073f6fad785793f
    80607116:	d86e                	sw	s11,48(sp)
    80607118:	e310                	sd	a2,0(a4)
    8060711a:	b8bcddd7          	0xb8bcddd7
    8060711e:	0df2                	slli	s11,s11,0x1c
    80607120:	4276                	lw	tp,92(sp)
    80607122:	b000                	fsd	fs0,32(s0)
    80607124:	53b1                	li	t2,-20
    80607126:	ed06                	sd	ra,152(sp)
    80607128:	02e8                	addi	a0,sp,332
    8060712a:	043a                	slli	s0,s0,0xe
    8060712c:	3d5ff68b          	0x3d5ff68b
    80607130:	d79e                	sw	t2,236(sp)
    80607132:	e22a                	sd	a0,256(sp)
    80607134:	3465                	addiw	s0,s0,-7
    80607136:	1f41                	addi	t5,t5,-16
    80607138:	e79977bf 2d869116 	0x2d869116e79977bf
    80607140:	582ac363          	blt	s5,sp,806076c6 <data5+0x6c6>
    80607144:	c6e8                	sw	a0,76(a3)
    80607146:	bbb8                	fsd	fa4,112(a5)
    80607148:	4879                	li	a6,30
    8060714a:	b2e1                	j	80606b12 <data4+0xb12>
    8060714c:	f38c                	sd	a1,32(a5)
    8060714e:	be5a8a4f          	fnmadd.q	fs4,fs5,ft5,fs7,rne
    80607152:	5d34                	lw	a3,120(a0)
    80607154:	4236                	lw	tp,76(sp)
    80607156:	c264                	sw	s1,68(a2)
    80607158:	a4b0                	fsd	fa2,72(s1)
    8060715a:	a590                	fsd	fa2,8(a1)
    8060715c:	d31f 0c40 f4a2      	0xf4a20c40d31f
    80607162:	11d64fbf dc79e5f2 	0xdc79e5f211d64fbf
    8060716a:	cf12                	sw	tp,156(sp)
    8060716c:	62f2                	ld	t0,280(sp)
    8060716e:	835f 6a57 55cd      	0x55cd6a57835f
    80607174:	a37a                	fsd	ft10,384(sp)
    80607176:	fe5c                	sd	a5,184(a2)
    80607178:	12d5                	addi	t0,t0,-11
    8060717a:	1034                	addi	a3,sp,40
    8060717c:	7e88                	ld	a0,56(a3)
    8060717e:	fe48                	sd	a0,184(a2)
    80607180:	51a9                	li	gp,-22
    80607182:	88b9147b          	0x88b9147b
    80607186:	c78e3db3          	0xc78e3db3
    8060718a:	90f8                	0x90f8
    8060718c:	c188                	sw	a0,0(a1)
    8060718e:	9e26                	add	t3,t3,s1
    80607190:	8844                	0x8844
    80607192:	370a                	fld	fa4,160(sp)
    80607194:	ee8d                	bnez	a3,806071ce <data5+0x1ce>
    80607196:	d1b8710f          	0xd1b8710f
    8060719a:	76ae                	ld	a3,232(sp)
    8060719c:	0af99a43          	fmadd.d	fs4,fs3,fa5,ft1,rtz
    806071a0:	2e114c7b          	0x2e114c7b
    806071a4:	3e533767          	0x3e533767
    806071a8:	05e1                	addi	a1,a1,24
    806071aa:	c45c                	sw	a5,12(s0)
    806071ac:	76ac38fb          	0x76ac38fb
    806071b0:	4740                	lw	s0,12(a4)
    806071b2:	97fe                	add	a5,a5,t6
    806071b4:	6acd                	lui	s5,0x13
    806071b6:	2bf0                	fld	fa2,208(a5)
    806071b8:	96932a53          	0x96932a53
    806071bc:	8634                	0x8634
    806071be:	fcad                	bnez	s1,80607138 <data5+0x138>
    806071c0:	38487c93          	andi	s9,a6,900
    806071c4:	140e                	slli	s0,s0,0x23
    806071c6:	8bcd                	andi	a5,a5,19
    806071c8:	0df6                	slli	s11,s11,0x1d
    806071ca:	6d8e                	ld	s11,192(sp)
    806071cc:	6f3a                	ld	t5,392(sp)
    806071ce:	7175                	addi	sp,sp,-144
    806071d0:	167ea7ef          	jal	a5,806f1b36 <data7+0xe8b36>
    806071d4:	b230                	fsd	fa2,96(a2)
    806071d6:	e79c                	sd	a5,8(a5)
    806071d8:	15874013          	xori	zero,a4,344
    806071dc:	c65d                	beqz	a2,8060728a <data5+0x28a>
    806071de:	d674                	sw	a3,108(a2)
    806071e0:	6acd                	lui	s5,0x13
    806071e2:	72ed                	lui	t0,0xffffb
    806071e4:	9194                	0x9194
    806071e6:	bac2                	fsd	fa6,368(sp)
    806071e8:	2c9b91cb          	0x2c9b91cb
    806071ec:	30aa                	fld	ft1,168(sp)
    806071ee:	7058                	ld	a4,160(s0)
    806071f0:	ede1                	bnez	a1,806072c8 <data5+0x2c8>
    806071f2:	dcd647a3          	0xdcd647a3
    806071f6:	16e571b3          	0x16e571b3
    806071fa:	5304                	lw	s1,32(a4)
    806071fc:	ae92                	fsd	ft4,344(sp)
    806071fe:	bc95                	j	80606c72 <data4+0xc72>
    80607200:	d598                	sw	a4,40(a1)
    80607202:	6a0a                	ld	s4,128(sp)
    80607204:	4cad                	li	s9,11
    80607206:	fb21                	bnez	a4,80607156 <data5+0x156>
    80607208:	1d74                	addi	a3,sp,700
    8060720a:	2fa4                	fld	fs1,88(a5)
    8060720c:	a23340a7          	fsq	ft3,-1503(t1)
    80607210:	f0e0                	sd	s0,224(s1)
    80607212:	5b42                	lw	s6,48(sp)
    80607214:	c5277617          	auipc	a2,0xc5277
    80607218:	8e85                	sub	a3,a3,s1
    8060721a:	70e2                	ld	ra,56(sp)
    8060721c:	3166                	fld	ft2,120(sp)
    8060721e:	685e                	ld	a6,464(sp)
    80607220:	cc05224b          	0xcc05224b
    80607224:	3b11e747          	fmsub.d	fa4,ft3,fa7,ft7,unknown
    80607228:	55a9                	li	a1,-22
    8060722a:	0fa5                	addi	t6,t6,9
    8060722c:	4d46                	lw	s10,80(sp)
    8060722e:	789615a3          	sh	s1,1931(a2) # 4587e99f <_start-0x3a781661>
    80607232:	1e61                	addi	t3,t3,-8
    80607234:	c37c                	sw	a5,68(a4)
    80607236:	75df 026f b0be      	0xb0be026f75df
    8060723c:	4410                	lw	a2,8(s0)
    8060723e:	81fa                	mv	gp,t5
    80607240:	102b5f37          	lui	t5,0x102b5
    80607244:	b8ee                	fsd	fs11,112(sp)
    80607246:	5b3a                	lw	s6,172(sp)
    80607248:	117e                	slli	sp,sp,0x3f
    8060724a:	b5ff                	0xb5ff
    8060724c:	8df0                	0x8df0
    8060724e:	2508                	fld	fa0,8(a0)
    80607250:	321e776b          	0x321e776b
    80607254:	ee265473          	csrrwi	s0,0xee2,12
    80607258:	ac00                	fsd	fs0,24(s0)
    8060725a:	82c2                	mv	t0,a6
    8060725c:	9e96                	add	t4,t4,t0
    8060725e:	9014                	0x9014
    80607260:	9b80                	0x9b80
    80607262:	2185                	addiw	gp,gp,1
    80607264:	9c30                	0x9c30
    80607266:	05dc                	addi	a5,sp,708
    80607268:	5c84d113          	0x5c84d113
    8060726c:	2a36                	fld	fs4,328(sp)
    8060726e:	eb64                	sd	s1,208(a4)
    80607270:	c43a                	sw	a4,8(sp)
    80607272:	121f 686b 688c      	0x688c686b121f
    80607278:	dee23603          	ld	a2,-530(tp) # fffffffffffffdee <secret+0xffffffff7f3ffdee>
    8060727c:	e88e                	sd	gp,80(sp)
    8060727e:	8d52                	mv	s10,s4
    80607280:	5839                	li	a6,-18
    80607282:	1f547993          	andi	s3,s0,501
    80607286:	75f63423          	sd	t6,1864(a2)
    8060728a:	dc08                	sw	a0,56(s0)
    8060728c:	ee79                	bnez	a2,8060736a <data5+0x36a>
    8060728e:	506c                	lw	a1,100(s0)
    80607290:	9a63961b          	0x9a63961b
    80607294:	f980                	sd	s0,48(a1)
    80607296:	52f6                	lw	t0,124(sp)
    80607298:	4f04                	lw	s1,24(a4)
    8060729a:	c928                	sw	a0,80(a0)
    8060729c:	ca8d                	beqz	a3,806072ce <data5+0x2ce>
    8060729e:	29ce                	fld	fs3,208(sp)
    806072a0:	645a                	ld	s0,400(sp)
    806072a2:	5ae6                	lw	s5,120(sp)
    806072a4:	4852                	lw	a6,20(sp)
    806072a6:	9302                	jalr	t1
    806072a8:	12d1                	addi	t0,t0,-12
    806072aa:	4f30                	lw	a2,88(a4)
    806072ac:	bdc1                	j	8060717c <data5+0x17c>
    806072ae:	8f26                	mv	t5,s1
    806072b0:	f331                	bnez	a4,806071f4 <data5+0x1f4>
    806072b2:	7de6                	ld	s11,120(sp)
    806072b4:	479f 84a8 d7e5      	0xd7e584a8479f
    806072ba:	eb88                	sd	a0,16(a5)
    806072bc:	72cfff1b          	0x72cfff1b
    806072c0:	9d3d                	addw	a0,a0,a5
    806072c2:	ca45                	beqz	a2,80607372 <data5+0x372>
    806072c4:	0a049617          	auipc	a2,0xa049
    806072c8:	1212                	slli	tp,tp,0x24
    806072ca:	f9c1                	bnez	a1,8060725a <data5+0x25a>
    806072cc:	89c46f93          	ori	t6,s0,-1892
    806072d0:	d57c                	sw	a5,108(a0)
    806072d2:	b9a16a73          	csrrsi	s4,mhpmcounter26h,2
    806072d6:	d9cd                	beqz	a1,80607288 <data5+0x288>
    806072d8:	c19e                	sw	t2,192(sp)
    806072da:	0cc2                	slli	s9,s9,0x10
    806072dc:	6d6c                	ld	a1,216(a0)
    806072de:	137e                	slli	t1,t1,0x3f
    806072e0:	cee308d3          	0xcee308d3
    806072e4:	85e1                	srai	a1,a1,0x18
    806072e6:	e515                	bnez	a0,80607312 <data5+0x312>
    806072e8:	bc99                	j	80606d3e <data4+0xd3e>
    806072ea:	e06a                	sd	s10,0(sp)
    806072ec:	b34d                	j	8060708e <data5+0x8e>
    806072ee:	284fcd53          	0x284fcd53
    806072f2:	4499                	li	s1,6
    806072f4:	e3e1                	bnez	a5,806073b4 <data5+0x3b4>
    806072f6:	3a7a                	fld	fs4,440(sp)
    806072f8:	f6e1cd7b          	0xf6e1cd7b
    806072fc:	bda4                	fsd	fs1,120(a1)
    806072fe:	92ed                	srli	a3,a3,0x3b
    80607300:	3b54                	fld	fa3,176(a4)
    80607302:	cdec                	sw	a1,92(a1)
    80607304:	fd2e                	sd	a1,184(sp)
    80607306:	7b46                	ld	s6,112(sp)
    80607308:	8755                	srai	a4,a4,0x15
    8060730a:	9134533f b856f320 	0xb856f3209134533f
    80607312:	5f40                	lw	s0,60(a4)
    80607314:	87a2                	mv	a5,s0
    80607316:	aa11                	j	8060742a <data5+0x42a>
    80607318:	24ee                	fld	fs1,216(sp)
    8060731a:	77be                	ld	a5,488(sp)
    8060731c:	e1c2                	sd	a6,192(sp)
    8060731e:	35f0                	fld	fa2,232(a1)
    80607320:	46a5                	li	a3,9
    80607322:	1565                	addi	a0,a0,-7
    80607324:	bacd                	j	80606d16 <data4+0xd16>
    80607326:	f790                	sd	a2,40(a5)
    80607328:	79561337          	lui	t1,0x79561
    8060732c:	3440a76f          	jal	a4,80611670 <data7+0x8670>
    80607330:	c6bc                	sw	a5,72(a3)
    80607332:	9150                	0x9150
    80607334:	4b64                	lw	s1,84(a4)
    80607336:	be00                	fsd	fs0,56(a2)
    80607338:	f31d                	bnez	a4,8060725e <data5+0x25e>
    8060733a:	39f1                	addiw	s3,s3,-4
    8060733c:	656c                	ld	a1,200(a0)
    8060733e:	847a8873          	0x847a8873
    80607342:	deac                	sw	a1,120(a3)
    80607344:	a8ed000b          	0xa8ed000b
    80607348:	8969b9b7          	lui	s3,0x8969b
    8060734c:	5322                	lw	t1,40(sp)
    8060734e:	1d35ec07          	0x1d35ec07
    80607352:	973c                	0x973c
    80607354:	84fd                	srai	s1,s1,0x1f
    80607356:	e6d47c0b          	0xe6d47c0b
    8060735a:	c4b8                	sw	a4,72(s1)
    8060735c:	a2d6                	fsd	fs5,320(sp)
    8060735e:	cf8e                	sw	gp,220(sp)
    80607360:	2aa5ad27          	fsw	fa0,698(a1)
    80607364:	38ee                	fld	fa7,248(sp)
    80607366:	f20266e7          	0xf20266e7
    8060736a:	1dc8                	addi	a0,sp,756
    8060736c:	df8343e7          	0xdf8343e7
    80607370:	dade                	sw	s7,116(sp)
    80607372:	9f59                	0x9f59
    80607374:	6c4a                	ld	s8,144(sp)
    80607376:	6d55                	lui	s10,0x15
    80607378:	680e                	ld	a6,192(sp)
    8060737a:	5e62                	lw	t3,56(sp)
    8060737c:	e9a0                	sd	s0,80(a1)
    8060737e:	4b10                	lw	a2,16(a4)
    80607380:	ea8d                	bnez	a3,806073b2 <data5+0x3b2>
    80607382:	7796083f f8fb1369 	0xf8fb13697796083f
    8060738a:	8f3d                	xor	a4,a4,a5
    8060738c:	b738                	fsd	fa4,104(a4)
    8060738e:	0f91                	addi	t6,t6,4
    80607390:	3ac38893          	addi	a7,t2,940
    80607394:	9362c0cb          	fnmsub.d	ft1,ft5,fs6,fs2,rmm
    80607398:	6645                	lui	a2,0x11
    8060739a:	6191                	lui	gp,0x4
    8060739c:	a5a2                	fsd	fs0,200(sp)
    8060739e:	a50e                	fsd	ft3,136(sp)
    806073a0:	d320                	sw	s0,96(a4)
    806073a2:	a729                	j	80607aac <data5+0xaac>
    806073a4:	95878297          	auipc	t0,0x95878
    806073a8:	7ecc                	ld	a1,184(a3)
    806073aa:	5edb88ef          	jal	a7,806c0196 <data7+0xb7196>
    806073ae:	fa56                	sd	s5,304(sp)
    806073b0:	b6c9                	j	80606f72 <data4+0xf72>
    806073b2:	b55c                	fsd	fa5,168(a0)
    806073b4:	2028                	fld	fa0,64(s0)
    806073b6:	269a                	fld	fa3,384(sp)
    806073b8:	ac15                	j	806075ec <data5+0x5ec>
    806073ba:	489d                	li	a7,7
    806073bc:	d326                	sw	s1,164(sp)
    806073be:	b975                	j	8060707a <data5+0x7a>
    806073c0:	3900                	fld	fs0,48(a0)
    806073c2:	7e2d                	lui	t3,0xfffeb
    806073c4:	9935                	andi	a0,a0,-19
    806073c6:	8ac8                	0x8ac8
    806073c8:	311e                	fld	ft2,480(sp)
    806073ca:	858ee717          	auipc	a4,0x858ee
    806073ce:	d644                	sw	s1,44(a2)
    806073d0:	2905                	addiw	s2,s2,1
    806073d2:	aade                	fsd	fs7,336(sp)
    806073d4:	a2a5bb2b          	0xa2a5bb2b
    806073d8:	e002663b          	0xe002663b
    806073dc:	b5df 628f 8ba7      	0x8ba7628fb5df
    806073e2:	3281                	addiw	t0,t0,-32
    806073e4:	c08d                	beqz	s1,80607406 <data5+0x406>
    806073e6:	9c06                	add	s8,s8,ra
    806073e8:	2a7a                	fld	fs4,408(sp)
    806073ea:	829e                	mv	t0,t2
    806073ec:	019a                	slli	gp,gp,0x6
    806073ee:	e5ad                	bnez	a1,80607458 <data5+0x458>
    806073f0:	20ce                	fld	ft1,208(sp)
    806073f2:	015f78c3          	fmadd.s	fa7,ft10,fs5,ft0
    806073f6:	be65                	j	80606fae <data4+0xfae>
    806073f8:	13b6                	slli	t2,t2,0x2d
    806073fa:	e228                	sd	a0,64(a2)
    806073fc:	10ed                	addi	ra,ra,-5
    806073fe:	53d2                	lw	t2,52(sp)
	...

0000000080608000 <data6>:
    80608000:	6a39                	lui	s4,0xe
    80608002:	477c                	lw	a5,76(a4)
    80608004:	7a68f28f          	0x7a68f28f
    80608008:	3ace                	fld	fs5,240(sp)
    8060800a:	bef0                	fsd	fa2,248(a3)
    8060800c:	eb62                	sd	s8,400(sp)
    8060800e:	a242                	fsd	fa6,256(sp)
    80608010:	ef82                	sd	zero,472(sp)
    80608012:	e9e4                	sd	s1,208(a1)
    80608014:	e86e33bf c5364996 	0xc5364996e86e33bf
    8060801c:	35b6                	fld	fa1,360(sp)
    8060801e:	0f1a79bb          	0xf1a79bb
    80608022:	b99027d7          	0xb99027d7
    80608026:	45a6                	lw	a1,72(sp)
    80608028:	0d7c                	addi	a5,sp,668
    8060802a:	69bdb17b          	0x69bdb17b
    8060802e:	622e                	ld	tp,200(sp)
    80608030:	2010                	fld	fa2,0(s0)
    80608032:	00171b8b          	0x171b8b
    80608036:	5241                	li	tp,-16
    80608038:	3dfc                	fld	fa5,248(a1)
    8060803a:	4fb4                	lw	a3,88(a5)
    8060803c:	78f0                	ld	a2,240(s1)
    8060803e:	92b8                	0x92b8
    80608040:	bd652723          	sw	s6,-1074(a0) # 2bce <_start-0x7fffd432>
    80608044:	d8e19e73          	csrrw	t3,0xd8e,gp
    80608048:	60ba162b          	0x60ba162b
    8060804c:	69776c6b          	0x69776c6b
    80608050:	f9e3cd27          	fsq	ft10,-102(t2)
    80608054:	8cd8                	0x8cd8
    80608056:	9cd1                	0x9cd1
    80608058:	b530                	fsd	fa2,104(a0)
    8060805a:	a5f4                	fsd	fa3,200(a1)
    8060805c:	89ec                	0x89ec
    8060805e:	c52a                	sw	a0,136(sp)
    80608060:	ba0a                	fsd	ft2,304(sp)
    80608062:	ce74                	sw	a3,92(a2)
    80608064:	1b54                	addi	a3,sp,436
    80608066:	823c8297          	auipc	t0,0x823c8
    8060806a:	58b5                	li	a7,-19
    8060806c:	b885                	j	806078dc <data5+0x8dc>
    8060806e:	9624                	0x9624
    80608070:	e8f1                	bnez	s1,80608144 <data6+0x144>
    80608072:	e548                	sd	a0,136(a0)
    80608074:	60c45a63          	bge	s0,a2,80608688 <data6+0x688>
    80608078:	3d11a99b          	0x3d11a99b
    8060807c:	49fe090b          	0x49fe090b
    80608080:	eeb4bcb3          	0xeeb4bcb3
    80608084:	5bf0                	lw	a2,116(a5)
    80608086:	c0ad                	beqz	s1,806080e8 <data6+0xe8>
    80608088:	8ecd                	or	a3,a3,a1
    8060808a:	10dd                	addi	ra,ra,-9
    8060808c:	7491                	lui	s1,0xfffe4
    8060808e:	d63e                	sw	a5,44(sp)
    80608090:	34bc                	fld	fa5,104(s1)
    80608092:	75e8                	ld	a0,232(a1)
    80608094:	6fbc7aaf          	0x6fbc7aaf
    80608098:	04519163          	bne	gp,t0,806080da <data6+0xda>
    8060809c:	1df5                	addi	s11,s11,-3
    8060809e:	dcf26e03          	lwu	t3,-561(tp) # fffffffffffffdcf <secret+0xffffffff7f3ffdcf>
    806080a2:	f1a9                	bnez	a1,80607fe4 <data5+0xfe4>
    806080a4:	1970                	addi	a2,sp,188
    806080a6:	2fd8                	fld	fa4,152(a5)
    806080a8:	a65d                	j	8060844e <data6+0x44e>
    806080aa:	b390                	fsd	fa2,32(a5)
    806080ac:	4334                	lw	a3,64(a4)
    806080ae:	e870                	sd	a2,208(s0)
    806080b0:	6473d1d7          	0x6473d1d7
    806080b4:	0f22c407          	flq	fs0,242(t0) # 29d0158 <_start-0x7d62fea8>
    806080b8:	89169243          	fmadd.s	ft4,fa3,fa7,fa7,rtz
    806080bc:	a510ad03          	lw	s10,-1455(ra)
    806080c0:	7d58                	ld	a4,184(a0)
    806080c2:	7572                	ld	a0,312(sp)
    806080c4:	212a                	fld	ft2,136(sp)
    806080c6:	fe58                	sd	a4,184(a2)
    806080c8:	8bc4                	0x8bc4
    806080ca:	6d84                	ld	s1,24(a1)
    806080cc:	59b8                	lw	a4,112(a1)
    806080ce:	ee3e                	sd	a5,280(sp)
    806080d0:	d0b7f8c7          	fmsub.s	fa7,fa5,fa1,fs10
    806080d4:	7b08                	ld	a0,48(a4)
    806080d6:	d1ba                	sw	a4,224(sp)
    806080d8:	38a2                	fld	fa7,40(sp)
    806080da:	c92a                	sw	a0,144(sp)
    806080dc:	ae54a633          	0xae54a633
    806080e0:	bab1                	j	80607a3c <data5+0xa3c>
    806080e2:	041d                	addi	s0,s0,7
    806080e4:	4f551643          	fmadd.q	fa2,fa0,fs5,fs1,rtz
    806080e8:	535eae8f          	0x535eae8f
    806080ec:	92f5                	srli	a3,a3,0x3d
    806080ee:	e032                	sd	a2,0(sp)
    806080f0:	48fe                	lw	a7,220(sp)
    806080f2:	e834                	sd	a3,80(s0)
    806080f4:	8075                	srli	s0,s0,0x1d
    806080f6:	21cc                	fld	fa1,128(a1)
    806080f8:	bf36                	fsd	fa3,440(sp)
    806080fa:	e3fc1d63          	bne	s8,t6,80607734 <data5+0x734>
    806080fe:	b29a                	fsd	ft6,352(sp)
    80608100:	71d6                	ld	gp,368(sp)
    80608102:	7e76                	ld	t3,376(sp)
    80608104:	da94                	sw	a3,48(a3)
    80608106:	fce1                	bnez	s1,806080de <data6+0xde>
    80608108:	0530                	addi	a2,sp,648
    8060810a:	1fe1                	addi	t6,t6,-8
    8060810c:	9f82                	jalr	t6
    8060810e:	7f5f f622 3885      	0x3885f6227f5f
    80608114:	43c0                	lw	s0,4(a5)
    80608116:	0c1e                	slli	s8,s8,0x7
    80608118:	f362                	sd	s8,416(sp)
    8060811a:	8c64                	0x8c64
    8060811c:	6d72                	ld	s10,280(sp)
    8060811e:	e718                	sd	a4,8(a4)
    80608120:	c39e3a33          	0xc39e3a33
    80608124:	c406                	sw	ra,8(sp)
    80608126:	c3298273          	0xc3298273
    8060812a:	a451                	j	806083ae <data6+0x3ae>
    8060812c:	a83c                	fsd	fa5,80(s0)
    8060812e:	30e0                	fld	fs0,224(s1)
    80608130:	e8c8                	sd	a0,144(s1)
    80608132:	a6cc                	fsd	fa1,136(a3)
    80608134:	66ad                	lui	a3,0xb
    80608136:	5225                	li	tp,-23
    80608138:	ab62b73b          	0xab62b73b
    8060813c:	3119                	addiw	sp,sp,-26
    8060813e:	2732                	fld	fa4,264(sp)
    80608140:	e4c0                	sd	s0,136(s1)
    80608142:	c680                	sw	s0,8(a3)
    80608144:	99a4                	0x99a4
    80608146:	ee8bdec7          	fmsub.q	ft9,fs7,fs0,ft9,unknown
    8060814a:	24e2                	fld	fs1,24(sp)
    8060814c:	c11c4987          	flq	fs3,-1007(s8) # 72ae6c11 <_start-0xd5193ef>
    80608150:	3cc0                	fld	fs0,184(s1)
    80608152:	3a31                	addiw	s4,s4,-20
    80608154:	5f65                	li	t5,-7
    80608156:	2d09                	addiw	s10,s10,2
    80608158:	60476b97          	auipc	s7,0x60476
    8060815c:	060fe80f          	0x60fe80f
    80608160:	27e8cdc7          	fmsub.q	fs11,fa7,ft10,ft4,rmm
    80608164:	0cd2                	slli	s9,s9,0x14
    80608166:	d12b8fbf 235dce0f 	0x235dce0fd12b8fbf
    8060816e:	b676                	fsd	ft9,296(sp)
    80608170:	d914                	sw	a3,48(a0)
    80608172:	7b65                	lui	s6,0xffff9
    80608174:	6a89                	lui	s5,0x2
    80608176:	3989555b          	0x3989555b
    8060817a:	7425                	lui	s0,0xfffe9
    8060817c:	d745                	beqz	a4,80608124 <data6+0x124>
    8060817e:	3284db77          	0x3284db77
    80608182:	89a6                	mv	s3,s1
    80608184:	2ab0                	fld	fa2,80(a3)
    80608186:	1bea                	slli	s7,s7,0x3a
    80608188:	b2cb604f          	fnmadd.d	ft0,fs6,fa2,fs6,unknown
    8060818c:	d769                	beqz	a4,80608156 <data6+0x156>
    8060818e:	eea5                	bnez	a3,80608206 <data6+0x206>
    80608190:	fcd8bf57          	0xfcd8bf57
    80608194:	d5f2                	sw	t3,232(sp)
    80608196:	8df2                	mv	s11,t3
    80608198:	1576                	slli	a0,a0,0x3d
    8060819a:	a9cc                	fsd	fa1,144(a1)
    8060819c:	992a                	add	s2,s2,a0
    8060819e:	dbaa                	sw	a0,244(sp)
    806081a0:	0506                	slli	a0,a0,0x1
    806081a2:	48b9                	li	a7,14
    806081a4:	9ef1                	0x9ef1
    806081a6:	057c                	addi	a5,sp,652
    806081a8:	fa95                	bnez	a3,806080dc <data6+0xdc>
    806081aa:	d984                	sw	s1,48(a1)
    806081ac:	3ade79f3          	csrrci	s3,0x3ad,28
    806081b0:	fadf 41ba 164f      	0x164f41bafadf
    806081b6:	3ff2                	fld	ft11,312(sp)
    806081b8:	b8dd                	j	80607aae <data5+0xaae>
    806081ba:	bf7db0b7          	lui	ra,0xbf7db
    806081be:	157a                	slli	a0,a0,0x3e
    806081c0:	5349                	li	t1,-14
    806081c2:	fb05                	bnez	a4,806080f2 <data6+0xf2>
    806081c4:	079e                	slli	a5,a5,0x7
    806081c6:	db89                	beqz	a5,806080d8 <data6+0xd8>
    806081c8:	60b5                	lui	ra,0xd
    806081ca:	ee1d                	bnez	a2,80608208 <data6+0x208>
    806081cc:	b023615b          	0xb023615b
    806081d0:	e366                	sd	s9,384(sp)
    806081d2:	7820                	ld	s0,112(s0)
    806081d4:	9364                	0x9364
    806081d6:	5130                	lw	a2,96(a0)
    806081d8:	ce32                	sw	a2,28(sp)
    806081da:	ffe0                	sd	s0,248(a5)
    806081dc:	a575                	j	80608888 <data6+0x888>
    806081de:	c6a7ce6f          	jal	t3,80584648 <pre_attack1_end+0x18456c>
    806081e2:	9062                	c.add	zero,s8
    806081e4:	90e1012f          	0x90e1012f
    806081e8:	f822                	sd	s0,48(sp)
    806081ea:	2801                	sext.w	a6,a6
    806081ec:	3045                	0x3045
    806081ee:	e266                	sd	s9,256(sp)
    806081f0:	6b45                	lui	s6,0x11
    806081f2:	1de9                	addi	s11,s11,-6
    806081f4:	1992                	slli	s3,s3,0x24
    806081f6:	3855                	addiw	a6,a6,-11
    806081f8:	b556                	fsd	fs5,168(sp)
    806081fa:	6544                	ld	s1,136(a0)
    806081fc:	cc8a                	sw	sp,88(sp)
    806081fe:	3e54                	fld	fa3,184(a2)
    80608200:	77f6                	ld	a5,376(sp)
    80608202:	c074                	sw	a3,68(s0)
    80608204:	6c225b07          	0x6c225b07
    80608208:	420d                	li	tp,3
    8060820a:	7d89                	lui	s11,0xfffe2
    8060820c:	5ab1                	li	s5,-20
    8060820e:	7abd                	lui	s5,0xfffef
    80608210:	ed2c                	sd	a1,88(a0)
    80608212:	557d6c7b          	0x557d6c7b
    80608216:	6452                	ld	s0,272(sp)
    80608218:	da38                	sw	a4,112(a2)
    8060821a:	bf72                	fsd	ft8,440(sp)
    8060821c:	205c                	fld	fa5,128(s0)
    8060821e:	2d0c276b          	0x2d0c276b
    80608222:	608dae4b          	fnmsub.s	ft8,fs11,fs0,fa2,rdn
    80608226:	534e                	lw	t1,240(sp)
    80608228:	6fe8                	ld	a0,216(a5)
    8060822a:	317a                	fld	ft2,440(sp)
    8060822c:	6a917cbb          	0x6a917cbb
    80608230:	f63e                	sd	a5,296(sp)
    80608232:	b7e9937b          	0xb7e9937b
    80608236:	7f62                	ld	t5,56(sp)
    80608238:	0c76                	slli	s8,s8,0x1d
    8060823a:	2544fb6f          	jal	s6,8065748e <data7+0x4e48e>
    8060823e:	1dec                	addi	a1,sp,764
    80608240:	95e3ae2b          	0x95e3ae2b
    80608244:	ab2c                	fsd	fa1,80(a4)
    80608246:	596e                	lw	s2,248(sp)
    80608248:	741d                	lui	s0,0xfffe7
    8060824a:	1f9c07ef          	jal	a5,806c8c42 <data7+0xbfc42>
    8060824e:	3c98                	fld	fa4,56(s1)
    80608250:	1d99                	addi	s11,s11,-26
    80608252:	675933d7          	0x675933d7
    80608256:	bb3e                	fsd	fa5,432(sp)
    80608258:	86b5                	srai	a3,a3,0xd
    8060825a:	7c7f                	0x7c7f
    8060825c:	650e3633          	0x650e3633
    80608260:	a43e                	fsd	fa5,8(sp)
    80608262:	7d9c                	ld	a5,56(a1)
    80608264:	963d6447          	fmsub.q	fs0,fs10,ft3,fs2,unknown
    80608268:	5d94                	lw	a3,56(a1)
    8060826a:	fcde                	sd	s7,120(sp)
    8060826c:	fb10                	sd	a2,48(a4)
    8060826e:	c104                	sw	s1,0(a0)
    80608270:	18ad                	addi	a7,a7,-21
    80608272:	0a152f43          	fmadd.d	ft10,fa0,ft1,ft1,rdn
    80608276:	c4e57073          	csrci	0xc4e,10
    8060827a:	18d53bab          	0x18d53bab
    8060827e:	db2a                	sw	a0,180(sp)
    80608280:	f35e                	sd	s7,416(sp)
    80608282:	f43e                	sd	a5,40(sp)
    80608284:	d5e8                	sw	a0,108(a1)
    80608286:	7ba6                	ld	s7,104(sp)
    80608288:	07ca                	slli	a5,a5,0x12
    8060828a:	150741fb          	0x150741fb
    8060828e:	f4dd                	bnez	s1,8060823c <data6+0x23c>
    80608290:	0f2a22fb          	0xf2a22fb
    80608294:	aed8                	fsd	fa4,152(a3)
    80608296:	c37c                	sw	a5,68(a4)
    80608298:	e8e5                	bnez	s1,80608388 <data6+0x388>
    8060829a:	6bdf 9fa5 137b      	0x137b9fa56bdf
    806082a0:	0484e7cf          	0x484e7cf
    806082a4:	1b3d                	addi	s6,s6,-17
    806082a6:	5e9d                	li	t4,-25
    806082a8:	49b1862f          	0x49b1862f
    806082ac:	c78c                	sw	a1,8(a5)
    806082ae:	bbfe86f3          	0xbbfe86f3
    806082b2:	cdfe                	sw	t6,216(sp)
    806082b4:	4e8d                	li	t4,3
    806082b6:	eec4                	sd	s1,152(a3)
    806082b8:	e770                	sd	a2,200(a4)
    806082ba:	9035                	srli	s0,s0,0x2d
    806082bc:	8fc4                	0x8fc4
    806082be:	98e2                	add	a7,a7,s8
    806082c0:	0db8                	addi	a4,sp,728
    806082c2:	e271                	bnez	a2,80608386 <data6+0x386>
    806082c4:	41a5                	li	gp,9
    806082c6:	6b98                	ld	a4,16(a5)
    806082c8:	1b70                	addi	a2,sp,444
    806082ca:	1d0e                	slli	s10,s10,0x23
    806082cc:	2acdc1fb          	0x2acdc1fb
    806082d0:	11f2                	slli	gp,gp,0x3c
    806082d2:	b98d                	j	80607f44 <data5+0xf44>
    806082d4:	00ea                	slli	ra,ra,0x1a
    806082d6:	18bc                	addi	a5,sp,120
    806082d8:	a9d9                	j	806087ae <data6+0x7ae>
    806082da:	f806                	sd	ra,48(sp)
    806082dc:	1eda                	slli	t4,t4,0x36
    806082de:	e5f1                	bnez	a1,806083aa <data6+0x3aa>
    806082e0:	42b5                	li	t0,13
    806082e2:	f2a2                	sd	s0,352(sp)
    806082e4:	a5eab76f          	jal	a4,805b3542 <pre_attack1_end+0x1b3466>
    806082e8:	61a6                	ld	gp,72(sp)
    806082ea:	73be                	ld	t2,488(sp)
    806082ec:	786a                	ld	a6,184(sp)
    806082ee:	504a                	0x504a
    806082f0:	efe2                	sd	s8,472(sp)
    806082f2:	b1a1                	j	80607f3a <data5+0xf3a>
    806082f4:	c27e                	sw	t6,4(sp)
    806082f6:	669d7993          	andi	s3,s10,1641
    806082fa:	7e8c                	ld	a1,56(a3)
    806082fc:	0441                	addi	s0,s0,16
    806082fe:	151e                	slli	a0,a0,0x27
    80608300:	0ca5                	addi	s9,s9,9
    80608302:	2236580b          	0x2236580b
    80608306:	bcec                	fsd	fa1,248(s1)
    80608308:	9a50                	0x9a50
    8060830a:	a7fc                	fsd	fa5,200(a5)
    8060830c:	24d4                	fld	fa3,136(s1)
    8060830e:	9461                	srai	s0,s0,0x38
    80608310:	5c6a                	lw	s8,184(sp)
    80608312:	5b04                	lw	s1,48(a4)
    80608314:	99b1                	andi	a1,a1,-20
    80608316:	bb96                	fsd	ft5,496(sp)
    80608318:	9339                	srli	a4,a4,0x2e
    8060831a:	9b370587          	0x9b370587
    8060831e:	094e                	slli	s2,s2,0x13
    80608320:	a7fe                	fsd	ft11,456(sp)
    80608322:	3661                	addiw	a2,a2,-8
    80608324:	a6fff513          	andi	a0,t6,-1425
    80608328:	a381                	j	80608868 <data6+0x868>
    8060832a:	94fa                	add	s1,s1,t5
    8060832c:	a83a                	fsd	fa4,16(sp)
    8060832e:	7556                	ld	a0,368(sp)
    80608330:	9b9c                	0x9b9c
    80608332:	9252                	add	tp,tp,s4
    80608334:	8521                	srai	a0,a0,0x8
    80608336:	3d7c                	fld	fa5,248(a0)
    80608338:	eb9decef          	jal	s9,805e71f0 <pre_attack1_end+0x1e7114>
    8060833c:	dd84                	sw	s1,56(a1)
    8060833e:	36f8                	fld	fa4,232(a3)
    80608340:	71ba                	ld	gp,424(sp)
    80608342:	f9c2                	sd	a6,240(sp)
    80608344:	2e74                	fld	fa3,216(a2)
    80608346:	a1ae                	fsd	fa1,192(sp)
    80608348:	9551                	srai	a0,a0,0x34
    8060834a:	67d488a3          	sb	t4,1649(s1) # fffffffffffe4671 <secret+0xffffffff7f3e4671>
    8060834e:	5f24                	lw	s1,120(a4)
    80608350:	852a                	mv	a0,a0
    80608352:	ea60                	sd	s0,208(a2)
    80608354:	0d80                	addi	s0,sp,720
    80608356:	f502                	sd	zero,168(sp)
    80608358:	7651                	lui	a2,0xffff4
    8060835a:	165d                	addi	a2,a2,-9
    8060835c:	765f5fd7          	0x765f5fd7
    80608360:	cf24f213          	andi	tp,s1,-782
    80608364:	9bcd                	andi	a5,a5,-13
    80608366:	5c9c1f53          	0x5c9c1f53
    8060836a:	20b8                	fld	fa4,64(s1)
    8060836c:	9988                	0x9988
    8060836e:	1cb2                	slli	s9,s9,0x2c
    80608370:	0dc0d437          	lui	s0,0xdc0d
    80608374:	87331593          	0x87331593
    80608378:	2951                	addiw	s2,s2,20
    8060837a:	b418                	fsd	fa4,40(s0)
    8060837c:	f1c0                	sd	s0,160(a1)
    8060837e:	a7d1                	j	80608b42 <data6+0xb42>
    80608380:	461e                	lw	a2,196(sp)
    80608382:	d40d                	beqz	s0,806082ac <data6+0x2ac>
    80608384:	a73c                	fsd	fa5,72(a4)
    80608386:	4d6a                	lw	s10,152(sp)
    80608388:	24d2                	fld	fs1,272(sp)
    8060838a:	df698ab3          	0xdf698ab3
    8060838e:	136d                	addi	t1,t1,-5
    80608390:	da80                	sw	s0,48(a3)
    80608392:	7d681673          	csrrw	a2,0x7d6,a6
    80608396:	4518                	lw	a4,8(a0)
    80608398:	2a1f 5f7d 9108      	0x91085f7d2a1f
    8060839e:	592e                	lw	s2,232(sp)
    806083a0:	7d70056b          	0x7d70056b
    806083a4:	f0b8                	sd	a4,96(s1)
    806083a6:	3155                	addiw	sp,sp,-11
    806083a8:	190b99ef          	jal	s3,806c1538 <data7+0xb8538>
    806083ac:	3c70                	fld	fa2,248(s0)
    806083ae:	4141                	li	sp,16
    806083b0:	a8ed                	j	806084aa <data6+0x4aa>
    806083b2:	9c9de393          	ori	t2,s11,-1591
    806083b6:	31950b1b          	addiw	s6,a0,793
    806083ba:	8c2d                	xor	s0,s0,a1
    806083bc:	003c                	addi	a5,sp,8
    806083be:	b8f0                	fsd	fa2,240(s1)
    806083c0:	656a                	ld	a0,152(sp)
    806083c2:	94e4                	0x94e4
    806083c4:	7580                	ld	s0,40(a1)
    806083c6:	388d                	addiw	a7,a7,-29
    806083c8:	3349                	addiw	t1,t1,-14
    806083ca:	75ee                	ld	a1,248(sp)
    806083cc:	f2fb5a93          	0xf2fb5a93
    806083d0:	34ed                	addiw	s1,s1,-5
    806083d2:	673c                	ld	a5,72(a4)
    806083d4:	a2d4                	fsd	fa3,128(a3)
    806083d6:	a829                	j	806083f0 <data6+0x3f0>
    806083d8:	2931                	addiw	s2,s2,12
    806083da:	b375                	j	80608186 <data6+0x186>
    806083dc:	2951                	addiw	s2,s2,20
    806083de:	47d2                	lw	a5,20(sp)
    806083e0:	5382                	lw	t2,32(sp)
    806083e2:	6ebd                	lui	t4,0xf
    806083e4:	f0c2                	sd	a6,96(sp)
    806083e6:	6c25                	lui	s8,0x9
    806083e8:	326e                	fld	ft4,248(sp)
    806083ea:	0f861af7          	0xf861af7
    806083ee:	e328                	sd	a0,64(a4)
    806083f0:	bba6                	fsd	fs1,496(sp)
    806083f2:	d582                	sw	zero,232(sp)
    806083f4:	f77b0c2f          	0xf77b0c2f
    806083f8:	de68                	sw	a0,124(a2)
    806083fa:	16d2                	slli	a3,a3,0x34
    806083fc:	c2f5                	beqz	a3,806084e0 <data6+0x4e0>
    806083fe:	de96                	sw	t0,124(sp)
	...

0000000080609000 <data7>:
    80609000:	6e708e57          	0x6e708e57
    80609004:	33d0                	fld	fa2,160(a5)
    80609006:	7f65                	lui	t5,0xffff9
    80609008:	c4e9                	beqz	s1,806090d2 <data7+0xd2>
    8060900a:	45330b3b          	0x45330b3b
    8060900e:	c682                	sw	zero,76(sp)
    80609010:	a5099faf          	0xa5099faf
    80609014:	863c                	0x863c
    80609016:	7885                	lui	a7,0xfffe1
    80609018:	5b59                	li	s6,-10
    8060901a:	aee0                	fsd	fs0,216(a3)
    8060901c:	0261                	addi	tp,tp,24
    8060901e:	4e06                	lw	t3,64(sp)
    80609020:	bc88                	fsd	fa0,56(s1)
    80609022:	c40be33b          	0xc40be33b
    80609026:	ec5f a88d 9ca0      	0x9ca0a88dec5f
    8060902c:	7d9e                	ld	s11,480(sp)
    8060902e:	78245003          	lhu	zero,1922(s0) # dc0d782 <_start-0x723f287e>
    80609032:	4a64                	lw	s1,84(a2)
    80609034:	7775                	lui	a4,0xffffd
    80609036:	4af8                	lw	a4,84(a3)
    80609038:	56c5b63f ccad8ae6 	0xccad8ae656c5b63f
    80609040:	27db70bf f80e1f82 	0xf80e1f8227db70bf
    80609048:	f121                	bnez	a0,80608f88 <data6+0xf88>
    8060904a:	0f81                	addi	t6,t6,0
    8060904c:	0453ad97          	auipc	s11,0x453a
    80609050:	c691                	beqz	a3,8060905c <data7+0x5c>
    80609052:	adec                	fsd	fa1,216(a1)
    80609054:	4bfa                	lw	s7,156(sp)
    80609056:	8c4dd7d3          	0x8c4dd7d3
    8060905a:	ba1d                	j	80608990 <data6+0x990>
    8060905c:	d18e                	sw	gp,224(sp)
    8060905e:	1ceec1f3          	0x1ceec1f3
    80609062:	6865                	lui	a6,0x19
    80609064:	aa9a                	fsd	ft6,336(sp)
    80609066:	a55f 975f 32b5      	0x32b5975fa55f
    8060906c:	cbc1                	beqz	a5,806090fc <data7+0xfc>
    8060906e:	12b6                	slli	t0,t0,0x2d
    80609070:	0b61                	addi	s6,s6,24
    80609072:	cb75e703          	lwu	a4,-841(a1)
    80609076:	19c81d0f          	0x19c81d0f
    8060907a:	a1c5b163          	0xa1c5b163
    8060907e:	1593cc63          	blt	t2,s9,806091d6 <data7+0x1d6>
    80609082:	671c                	ld	a5,8(a4)
    80609084:	6345                	lui	t1,0x11
    80609086:	66a3e2db          	0x66a3e2db
    8060908a:	ecdd                	bnez	s1,80609148 <data7+0x148>
    8060908c:	02bf2187          	flw	ft3,43(t5) # ffffffffffff902b <secret+0xffffffff7f3f902b>
    80609090:	32e9b83f a2dba8cb 	0xa2dba8cb32e9b83f
    80609098:	bde4                	fsd	fs1,248(a1)
    8060909a:	7790                	ld	a2,40(a5)
    8060909c:	b789                	j	80608fde <data6+0xfde>
    8060909e:	c0a9                	beqz	s1,806090e0 <data7+0xe0>
    806090a0:	ae98                	fsd	fa4,24(a3)
    806090a2:	b89d                	j	80608918 <data6+0x918>
    806090a4:	bdbe                	fsd	fa5,248(sp)
    806090a6:	40d8                	lw	a4,4(s1)
    806090a8:	3518                	fld	fa4,40(a0)
    806090aa:	e93e                	sd	a5,144(sp)
    806090ac:	67ee                	ld	a5,216(sp)
    806090ae:	2813683b          	0x2813683b
    806090b2:	dfc4                	sw	s1,60(a5)
    806090b4:	b9ce                	fsd	fs3,240(sp)
    806090b6:	f3ce                	sd	s3,480(sp)
    806090b8:	a006                	fsd	ft1,0(sp)
    806090ba:	95d6                	add	a1,a1,s5
    806090bc:	ca55                	beqz	a2,80609170 <data7+0x170>
    806090be:	d8e9                	beqz	s1,80609090 <data7+0x90>
    806090c0:	a3730367          	jalr	t1,-1481(t1) # 10a37 <_start-0x7ffef5c9>
    806090c4:	788db9eb          	0x788db9eb
    806090c8:	7439                	lui	s0,0xfffee
    806090ca:	d7532313          	slti	t1,t1,-651
    806090ce:	4e9e                	lw	t4,196(sp)
    806090d0:	6b7e                	ld	s6,472(sp)
    806090d2:	91c9817b          	0x91c9817b
    806090d6:	11d9                	addi	gp,gp,-10
    806090d8:	7d3b817b          	0x7d3b817b
    806090dc:	8728                	0x8728
    806090de:	b085                	j	8060893e <data6+0x93e>
    806090e0:	c1ebcf0f          	0xc1ebcf0f
    806090e4:	8a9ec247          	fmsub.d	ft4,ft9,fs1,fa7,rmm
    806090e8:	8e35                	xor	a2,a2,a3
    806090ea:	10ca                	slli	ra,ra,0x32
    806090ec:	1cd6                	slli	s9,s9,0x35
    806090ee:	d3b2                	sw	a2,228(sp)
    806090f0:	86d8                	0x86d8
    806090f2:	3b34                	fld	fa3,112(a4)
    806090f4:	1b9c                	addi	a5,sp,496
    806090f6:	418a                	lw	gp,128(sp)
    806090f8:	0402                	c.slli64	s0
    806090fa:	dee73943          	fmadd.q	fs2,fa4,fa4,fs11,rup
    806090fe:	98b0                	0x98b0
    80609100:	aff5                	j	806098fc <data7+0x8fc>
    80609102:	6dab4413          	xori	s0,s6,1754
    80609106:	7b88                	ld	a0,48(a5)
    80609108:	a086                	fsd	ft1,64(sp)
    8060910a:	e70a                	sd	sp,392(sp)
    8060910c:	bb3e                	fsd	fa5,432(sp)
    8060910e:	9846                	add	a6,a6,a7
    80609110:	b2d6                	fsd	fs5,352(sp)
    80609112:	10d8                	addi	a4,sp,100
    80609114:	1afcb73b          	0x1afcb73b
    80609118:	3fd8                	fld	fa4,184(a5)
    8060911a:	c7ec                	sw	a1,76(a5)
    8060911c:	b690                	fsd	fa2,40(a3)
    8060911e:	b66e                	fsd	fs11,296(sp)
    80609120:	3dd1e2f3          	csrrsi	t0,0x3dd,3
    80609124:	d498                	sw	a4,40(s1)
    80609126:	6d76                	ld	s10,344(sp)
    80609128:	ea4c                	sd	a1,144(a2)
    8060912a:	9709                	srai	a4,a4,0x22
    8060912c:	7d58f18b          	0x7d58f18b
    80609130:	7779                	lui	a4,0xffffe
    80609132:	285c50c3          	fmadd.s	ft1,fs8,ft5,ft5,unknown
    80609136:	ee4a                	sd	s2,280(sp)
    80609138:	503888c7          	fmsub.s	fa7,fa7,ft3,fa0,rne
    8060913c:	c1ca92ef          	jal	t0,805b2558 <pre_attack1_end+0x1b247c>
    80609140:	3571                	addiw	a0,a0,-4
    80609142:	911a                	add	sp,sp,t1
    80609144:	4349                	li	t1,18
    80609146:	d596                	sw	t0,232(sp)
    80609148:	cbbc                	sw	a5,80(a5)
    8060914a:	b4b01673          	csrrw	a2,0xb4b,zero
    8060914e:	efe379bf 2a002165 	0x2a002165efe379bf
    80609156:	82ed                	srli	a3,a3,0x1b
    80609158:	59d6                	lw	s3,116(sp)
    8060915a:	65cc                	ld	a1,136(a1)
    8060915c:	05b49587          	0x5b49587
    80609160:	88d0                	0x88d0
    80609162:	da83eeeb          	0xda83eeeb
    80609166:	b446                	fsd	fa7,40(sp)
    80609168:	c434                	sw	a3,72(s0)
    8060916a:	8f56                	mv	t5,s5
    8060916c:	1db8                	addi	a4,sp,760
    8060916e:	25d9                	addiw	a1,a1,22
    80609170:	c01c                	sw	a5,0(s0)
    80609172:	6826d963          	bge	a3,sp,80609804 <data7+0x804>
    80609176:	b45a                	fsd	fs6,40(sp)
    80609178:	b818                	fsd	fa4,48(s0)
    8060917a:	dea5                	beqz	a3,806090f2 <data7+0xf2>
    8060917c:	4c46                	lw	s8,80(sp)
    8060917e:	c52d                	beqz	a0,806091e8 <data7+0x1e8>
    80609180:	ad18                	fsd	fa4,24(a0)
    80609182:	1052                	c.slli	zero,0x34
    80609184:	bf96                	fsd	ft5,504(sp)
    80609186:	e29d                	bnez	a3,806091ac <data7+0x1ac>
    80609188:	aeb6d3ef          	jal	t2,80576c72 <pre_attack1_end+0x176b96>
    8060918c:	c1fe                	sw	t6,192(sp)
    8060918e:	8910                	0x8910
    80609190:	6b3a70af          	0x6b3a70af
    80609194:	114e                	slli	sp,sp,0x33
    80609196:	789c                	ld	a5,48(s1)
    80609198:	6e45                	lui	t3,0x11
    8060919a:	ae1a                	fsd	ft6,280(sp)
    8060919c:	f72e                	sd	a1,424(sp)
    8060919e:	5710                	lw	a2,40(a4)
    806091a0:	e021452b          	0xe021452b
    806091a4:	eac571ab          	0xeac571ab
    806091a8:	5432                	lw	s0,44(sp)
    806091aa:	2d36                	fld	fs10,328(sp)
    806091ac:	d61b63d7          	0xd61b63d7
    806091b0:	b3d54def          	jal	s11,8055dcec <pre_attack1_end+0x15dc10>
    806091b4:	211f 2968 a2bd      	0xa2bd2968211f
    806091ba:	b8c6                	fsd	fa7,112(sp)
    806091bc:	5cd41263          	bne	s0,a3,80609780 <data7+0x780>
    806091c0:	ae01                	j	806094d0 <data7+0x4d0>
    806091c2:	baad                	j	80608b3c <data6+0xb3c>
    806091c4:	4c1a                	lw	s8,132(sp)
    806091c6:	b2f79f53          	0xb2f79f53
    806091ca:	45c2                	lw	a1,16(sp)
    806091cc:	a8c1                	j	8060929c <data7+0x29c>
    806091ce:	4cc8                	lw	a0,28(s1)
    806091d0:	41f2                	lw	gp,28(sp)
    806091d2:	4294faa3          	0x4294faa3
    806091d6:	8dda                	mv	s11,s6
    806091d8:	8c47e3fb          	0x8c47e3fb
    806091dc:	0d32                	slli	s10,s10,0xc
    806091de:	c34b906b          	0xc34b906b
    806091e2:	465f 4091 0ddb      	0xddb4091465f
    806091e8:	a40d1f7b          	0xa40d1f7b
    806091ec:	e1a4                	sd	s1,64(a1)
    806091ee:	cc9e                	sw	t2,88(sp)
    806091f0:	90a9                	srli	s1,s1,0x2a
    806091f2:	d91a                	sw	t1,176(sp)
    806091f4:	4ce8                	lw	a0,92(s1)
    806091f6:	a8c2                	fsd	fa6,80(sp)
    806091f8:	a2f2                	fsd	ft8,320(sp)
    806091fa:	4ede                	lw	t4,212(sp)
    806091fc:	6644                	ld	s1,136(a2)
    806091fe:	f626                	sd	s1,296(sp)
    80609200:	dbe2                	sw	s8,244(sp)
    80609202:	4585                	li	a1,1
    80609204:	66ae                	ld	a3,200(sp)
    80609206:	c9fe                	sw	t6,208(sp)
    80609208:	2162                	fld	ft2,24(sp)
    8060920a:	7410be6f          	jal	t3,8061514a <data7+0xc14a>
    8060920e:	6d19                	lui	s10,0x6
    80609210:	c476                	sw	t4,8(sp)
    80609212:	1324                	addi	s1,sp,424
    80609214:	0e9d                	addi	t4,t4,7
    80609216:	ee45                	bnez	a2,806092ce <data7+0x2ce>
    80609218:	e196                	sd	t0,192(sp)
    8060921a:	1c46                	slli	s8,s8,0x31
    8060921c:	0445                	addi	s0,s0,17
    8060921e:	ba5f 75c8 7d3f      	0x7d3f75c8ba5f
    80609224:	276c                	fld	fa1,200(a4)
    80609226:	7042                	0x7042
    80609228:	16f9                	addi	a3,a3,-2
    8060922a:	7f28                	ld	a0,120(a4)
    8060922c:	0df8                	addi	a4,sp,732
    8060922e:	daa2                	sw	s0,116(sp)
    80609230:	fd0c90a3          	sh	a6,-63(s9)
    80609234:	5070                	lw	a2,100(s0)
    80609236:	da66                	sw	s9,52(sp)
    80609238:	578da1a7          	fsw	fs8,1379(s11) # 84b435af <secret+0x3f435af>
    8060923c:	0b7d                	addi	s6,s6,31
    8060923e:	e3f2                	sd	t3,448(sp)
    80609240:	2692                	fld	fa3,256(sp)
    80609242:	9606                	add	a2,a2,ra
    80609244:	3529                	addiw	a0,a0,-22
    80609246:	d4f4b4e7          	0xd4f4b4e7
    8060924a:	9b1f a7a6 2d6c      	0x2d6ca7a69b1f
    80609250:	effe                	sd	t6,472(sp)
    80609252:	fa26                	sd	s1,304(sp)
    80609254:	3a6c                	fld	fa1,240(a2)
    80609256:	f7d23ba3          	sd	t4,-137(tp) # ffffffffffffff77 <secret+0xffffffff7f3fff77>
    8060925a:	acaf79c3          	0xacaf79c3
    8060925e:	b9ba                	fsd	fa4,240(sp)
    80609260:	3a96                	fld	fs5,352(sp)
    80609262:	d14c                	sw	a1,36(a0)
    80609264:	05d8                	addi	a4,sp,708
    80609266:	fd45                	bnez	a0,8060921e <data7+0x21e>
    80609268:	b4ea                	fsd	fs10,104(sp)
    8060926a:	f098                	sd	a4,32(s1)
    8060926c:	cca1                	beqz	s1,806092c4 <data7+0x2c4>
    8060926e:	be70                	fsd	fa2,248(a2)
    80609270:	d422                	sw	s0,40(sp)
    80609272:	e128                	sd	a0,64(a0)
    80609274:	d348                	sw	a0,36(a4)
    80609276:	ddf9                	beqz	a1,80609254 <data7+0x254>
    80609278:	20d9                	addiw	ra,ra,22
    8060927a:	4012                	0x4012
    8060927c:	bd61                	j	80609114 <data7+0x114>
    8060927e:	7df8                	ld	a4,248(a1)
    80609280:	95e4                	0x95e4
    80609282:	3252                	fld	ft4,304(sp)
    80609284:	9bb1                	andi	a5,a5,-20
    80609286:	2f20                	fld	fs0,88(a4)
    80609288:	2196                	fld	ft3,320(sp)
    8060928a:	a3bdcad7          	0xa3bdcad7
    8060928e:	03fe                	slli	t2,t2,0x1f
    80609290:	cdde                	sw	s7,216(sp)
    80609292:	5e41d3cb          	fnmsub.q	ft7,ft3,ft4,fa1,unknown
    80609296:	ee70                	sd	a2,216(a2)
    80609298:	ea79                	bnez	a2,8060936e <data7+0x36e>
    8060929a:	9bcd                	andi	a5,a5,-13
    8060929c:	8e2e                	mv	t3,a1
    8060929e:	b74c                	fsd	fa1,168(a4)
    806092a0:	7150                	ld	a2,160(a0)
    806092a2:	eba7eba3          	0xeba7eba3
    806092a6:	0419                	addi	s0,s0,6
    806092a8:	74b8                	ld	a4,104(s1)
    806092aa:	7d76                	ld	s10,376(sp)
    806092ac:	72f1                	lui	t0,0xffffc
    806092ae:	d0d1                	beqz	s1,80609232 <data7+0x232>
    806092b0:	8448                	0x8448
    806092b2:	a3ba                	fsd	fa4,448(sp)
    806092b4:	58f1                	li	a7,-4
    806092b6:	c058                	sw	a4,4(s0)
    806092b8:	fd434cf7          	0xfd434cf7
    806092bc:	ecc0a62b          	0xecc0a62b
    806092c0:	8e92                	mv	t4,tp
    806092c2:	8e3eb5a3          	sd	gp,-1813(t4) # e8eb <_start-0x7fff1715>
    806092c6:	c154470f          	0xc154470f
    806092ca:	95d9                	srai	a1,a1,0x36
    806092cc:	cfe4                	sw	s1,92(a5)
    806092ce:	e96d                	bnez	a0,806093c0 <data7+0x3c0>
    806092d0:	c01f 034a 023e      	0x23e034ac01f
    806092d6:	ae80                	fsd	fs0,24(a3)
    806092d8:	c751                	beqz	a4,80609364 <data7+0x364>
    806092da:	9461                	srai	s0,s0,0x38
    806092dc:	26ec33a3          	sd	a4,615(s8) # 9267 <_start-0x7fff6d99>
    806092e0:	de9e                	sw	t2,124(sp)
    806092e2:	4df8                	lw	a4,92(a1)
    806092e4:	21a336f7          	0x21a336f7
    806092e8:	c309                	beqz	a4,806092ea <data7+0x2ea>
    806092ea:	8909                	andi	a0,a0,2
    806092ec:	3256                	fld	ft4,368(sp)
    806092ee:	7b58                	ld	a4,176(a4)
    806092f0:	ec96                	sd	t0,88(sp)
    806092f2:	4941                	li	s2,16
    806092f4:	19b9                	addi	s3,s3,-18
    806092f6:	767d                	lui	a2,0xfffff
    806092f8:	1604cef3          	0x1604cef3
    806092fc:	7660                	ld	s0,232(a2)
    806092fe:	3b55                	addiw	s6,s6,-11
    80609300:	b194eb0b          	0xb194eb0b
    80609304:	f5f139c7          	0xf5f139c7
    80609308:	1eae                	slli	t4,t4,0x2b
    8060930a:	05b6                	slli	a1,a1,0xd
    8060930c:	4dec                	lw	a1,92(a1)
    8060930e:	1c7d                	addi	s8,s8,-1
    80609310:	2138                	fld	fa4,64(a0)
    80609312:	3742                	fld	fa4,48(sp)
    80609314:	ce24                	sw	s1,88(a2)
    80609316:	b2e9                	j	80608ce0 <data6+0xce0>
    80609318:	55b2                	lw	a1,44(sp)
    8060931a:	d889f39b          	0xd889f39b
    8060931e:	b27c                	fsd	fa5,224(a2)
    80609320:	864d298f          	0x864d298f
    80609324:	2fb6                	fld	ft11,328(sp)
    80609326:	8c39                	xor	s0,s0,a4
    80609328:	dc3408d3          	0xdc3408d3
    8060932c:	fcc5                	bnez	s1,806092e4 <data7+0x2e4>
    8060932e:	2ad6                	fld	fs5,336(sp)
    80609330:	8c88720f          	0x8c88720f
    80609334:	233e                	fld	ft6,456(sp)
    80609336:	d7c710c7          	fmsub.q	ft1,fa4,ft8,fs10,rtz
    8060933a:	359c                	fld	fa5,40(a1)
    8060933c:	6d66                	ld	s10,88(sp)
    8060933e:	b024                	fsd	fs1,96(s0)
    80609340:	74c8                	ld	a0,168(s1)
    80609342:	08a8                	addi	a0,sp,88
    80609344:	0c41                	addi	s8,s8,16
    80609346:	80b1                	srli	s1,s1,0xc
    80609348:	8414                	0x8414
    8060934a:	1050                	addi	a2,sp,36
    8060934c:	b119                	j	80608f52 <data6+0xf52>
    8060934e:	e030                	sd	a2,64(s0)
    80609350:	3691                	addiw	a3,a3,-28
    80609352:	844c                	0x844c
    80609354:	8330                	0x8330
    80609356:	9762                	add	a4,a4,s8
    80609358:	4b90                	lw	a2,16(a5)
    8060935a:	7c37c753          	0x7c37c753
    8060935e:	41f6                	lw	gp,92(sp)
    80609360:	d3ad                	beqz	a5,806092c2 <data7+0x2c2>
    80609362:	ea5d                	bnez	a2,80609418 <data7+0x418>
    80609364:	bb60                	fsd	fs0,240(a4)
    80609366:	4254                	lw	a3,4(a2)
    80609368:	5486                	lw	s1,96(sp)
    8060936a:	479a                	lw	a5,132(sp)
    8060936c:	5766                	lw	a4,120(sp)
    8060936e:	0ffeb9ef          	jal	s3,806f4c6c <data7+0xebc6c>
    80609372:	95cc                	0x95cc
    80609374:	24a4                	fld	fs1,72(s1)
    80609376:	a4f2                	fsd	ft8,72(sp)
    80609378:	4e7f                	0x4e7f
    8060937a:	7bcd                	lui	s7,0xffff3
    8060937c:	036c                	addi	a1,sp,396
    8060937e:	cd42                	sw	a6,152(sp)
    80609380:	304d                	0x304d
    80609382:	5b52                	lw	s6,52(sp)
    80609384:	01e4                	addi	s1,sp,204
    80609386:	4b91                	li	s7,4
    80609388:	610c                	ld	a1,0(a0)
    8060938a:	0c6a                	slli	s8,s8,0x1a
    8060938c:	eeb2                	sd	a2,344(sp)
    8060938e:	f85c                	sd	a5,176(s0)
    80609390:	3a4c                	fld	fa1,176(a2)
    80609392:	b0fc                	fsd	fa5,224(s1)
    80609394:	2135                	addiw	sp,sp,13
    80609396:	6969                	lui	s2,0x1a
    80609398:	eb98                	sd	a4,16(a5)
    8060939a:	394d                	addiw	s2,s2,-13
    8060939c:	0871dbc7          	fmsub.s	fs7,ft3,ft7,ft1,unknown
    806093a0:	47b4                	lw	a3,72(a5)
    806093a2:	c5d318c3          	0xc5d318c3
    806093a6:	fb61                	bnez	a4,80609376 <data7+0x376>
    806093a8:	4fd1                	li	t6,20
    806093aa:	fadc                	sd	a5,176(a3)
    806093ac:	ae9a                	fsd	ft6,344(sp)
    806093ae:	1f016b73          	csrrsi	s6,0x1f0,2
    806093b2:	2e76ca03          	lbu	s4,743(a3) # b2e7 <_start-0x7fff4d19>
    806093b6:	f699                	bnez	a3,806092c4 <data7+0x2c4>
    806093b8:	65b1                	lui	a1,0xc
    806093ba:	3ee2                	fld	ft9,56(sp)
    806093bc:	64de65bb          	0x64de65bb
    806093c0:	bccb7583          	0xbccb7583
    806093c4:	e4b8                	sd	a4,72(s1)
    806093c6:	43b5cea3          	0x43b5cea3
    806093ca:	75a9                	lui	a1,0xfffea
    806093cc:	6e9e                	ld	t4,448(sp)
    806093ce:	188fa4cb          	fnmsub.s	fs1,ft11,fs0,ft3,rdn
    806093d2:	09b9                	addi	s3,s3,14
    806093d4:	79de                	ld	s3,496(sp)
    806093d6:	6f19                	lui	t5,0x6
    806093d8:	9c9f37a3          	sd	s1,-1585(t5) # 59cf <_start-0x7fffa631>
    806093dc:	497f                	0x497f
    806093de:	b5d0f017          	auipc	zero,0xb5d0f
    806093e2:	1a6a                	slli	s4,s4,0x3a
    806093e4:	bef5                	j	80608fe0 <data6+0xfe0>
    806093e6:	14a6                	slli	s1,s1,0x29
    806093e8:	4cab75ef          	jal	a1,806c08b2 <data7+0xb78b2>
    806093ec:	797c                	ld	a5,240(a0)
    806093ee:	8b01abef          	jal	s7,8052349e <pre_attack1_end+0x1233c2>
    806093f2:	86b6                	mv	a3,a3
    806093f4:	5210                	lw	a2,32(a2)
    806093f6:	cce9                	beqz	s1,806094d0 <data7+0x4d0>
    806093f8:	900d45b3          	0x900d45b3
    806093fc:	31b2                	fld	ft3,296(sp)
    806093fe:	          	0x927

Disassembly of section .text.receive:

0000000080800000 <receive>:
    80800000:	00000073          	ecall

Disassembly of section .data.secret:

0000000080c00000 <secret>:
	...

Disassembly of section .riscv.attributes:

0000000000000000 <.riscv.attributes>:
   0:	2f41                	addiw	t5,t5,16
   2:	0000                	unimp
   4:	7200                	ld	s0,32(a2)
   6:	7369                	lui	t1,0xffffa
   8:	01007663          	bgeu	zero,a6,14 <_start-0x7fffffec>
   c:	0025                	c.nop	9
   e:	0000                	unimp
  10:	1004                	addi	s1,sp,32
  12:	7205                	lui	tp,0xfffe1
  14:	3676                	fld	fa2,376(sp)
  16:	6934                	ld	a3,80(a0)
  18:	7032                	0x7032
  1a:	5f30                	lw	a2,120(a4)
  1c:	326d                	addiw	tp,tp,-5
  1e:	3070                	fld	fa2,224(s0)
  20:	615f 7032 5f30      	0x5f307032615f
  26:	3266                	fld	ft4,120(sp)
  28:	3070                	fld	fa2,224(s0)
  2a:	645f 7032 0030      	0x307032645f

Disassembly of section .comment:

0000000000000000 <.comment>:
   0:	3a434347          	fmsub.d	ft6,ft6,ft4,ft7,rmm
   4:	2820                	fld	fs0,80(s0)
   6:	2029                	0x2029
   8:	2e39                	addiw	t3,t3,14
   a:	00302e33          	sgtz	t3,gp

Disassembly of section .debug_line:

0000000000000000 <.debug_line>:
   0:	00000a0b          	0xa0b
   4:	008b0003          	lb	zero,8(s6) # 11008 <_start-0x7ffeeff8>
   8:	0000                	unimp
   a:	0101                	addi	sp,sp,0
   c:	000d0efb          	0xd0efb
  10:	0101                	addi	sp,sp,0
  12:	0101                	addi	sp,sp,0
  14:	0000                	unimp
  16:	0100                	addi	s0,sp,128
  18:	0000                	unimp
  1a:	2f01                	sext.w	t5,t5
  1c:	6f72                	ld	t5,280(sp)
  1e:	732f746f          	jal	s0,f7750 <_start-0x7ff088b0>
  22:	6570                	ld	a2,200(a0)
  24:	636f6463          	bltu	t5,s6,64c <_start-0x7ffff9b4>
  28:	6f74                	ld	a3,216(a4)
  2a:	2f72                	fld	ft10,280(sp)
  2c:	7546                	ld	a0,112(sp)
  2e:	7a7a                	ld	s4,440(sp)
  30:	7265                	lui	tp,0xffff9
  32:	6570732f          	0x6570732f
  36:	636f6463          	bltu	t5,s6,65e <_start-0x7ffff9a2>
  3a:	6f74                	ld	a3,216(a4)
  3c:	2f72                	fld	ft10,280(sp)
  3e:	7074756f          	jal	a0,47f44 <_start-0x7ffb80bc>
  42:	7475                	lui	s0,0xffffd
  44:	6972742f          	0x6972742f
  48:	72656767          	0x72656767
  4c:	74000073          	0x74000073
  50:	32555f33          	0x32555f33
  54:	54415f53          	0x54415f53
  58:	4154                	lw	a3,4(a0)
  5a:	52454b43          	fmadd.d	fs6,fa0,ft4,fa0,rmm
  5e:	345f 3431 3431      	0x34313431345f
  64:	3330                	fld	fa2,96(a4)
  66:	3736                	fld	fa4,360(sp)
  68:	5f30                	lw	a2,120(a4)
  6a:	454d                	li	a0,19
  6c:	5f4d                	li	t5,-13
  6e:	5242                	lw	tp,48(sp)
  70:	305f 3878 3630      	0x36303878305f
  76:	3030                	fld	fa2,96(s0)
  78:	3330                	fld	fa2,96(a4)
  7a:	5f34                	lw	a3,120(a4)
  7c:	7830                	ld	a2,112(s0)
  7e:	3038                	fld	fa4,96(s0)
  80:	3036                	fld	ft0,360(sp)
  82:	3030                	fld	fa2,96(s0)
  84:	3461                	addiw	s0,s0,-8
  86:	625f 6567 315f      	0x315f6567625f
  8c:	3031                	0x3031
  8e:	532e                	lw	t1,232(sp)
  90:	0100                	addi	s0,sp,128
  92:	0000                	unimp
  94:	0000                	unimp
  96:	0209                	addi	tp,tp,2
  98:	0000                	unimp
  9a:	8000                	0x8000
  9c:	0000                	unimp
  9e:	0000                	unimp
  a0:	03013703          	ld	a4,48(sp)
  a4:	0905                	addi	s2,s2,1
  a6:	0004                	0x4
  a8:	0301                	addi	t1,t1,0
  aa:	0905                	addi	s2,s2,1
  ac:	0004                	0x4
  ae:	0301                	addi	t1,t1,0
  b0:	0901                	addi	s2,s2,0
  b2:	0004                	0x4
  b4:	0301                	addi	t1,t1,0
  b6:	0901                	addi	s2,s2,0
  b8:	0004                	0x4
  ba:	0301                	addi	t1,t1,0
  bc:	0901                	addi	s2,s2,0
  be:	0004                	0x4
  c0:	0301                	addi	t1,t1,0
  c2:	0901                	addi	s2,s2,0
  c4:	0004                	0x4
  c6:	0301                	addi	t1,t1,0
  c8:	0901                	addi	s2,s2,0
  ca:	0004                	0x4
  cc:	0301                	addi	t1,t1,0
  ce:	0909                	addi	s2,s2,2
  d0:	0004                	0x4
  d2:	0301                	addi	t1,t1,0
  d4:	0902                	c.slli64	s2
  d6:	0004                	0x4
  d8:	0301                	addi	t1,t1,0
  da:	0915                	addi	s2,s2,5
  dc:	0014                	0x14
  de:	0301                	addi	t1,t1,0
  e0:	0901                	addi	s2,s2,0
  e2:	0004                	0x4
  e4:	0301                	addi	t1,t1,0
  e6:	0901                	addi	s2,s2,0
  e8:	0004                	0x4
  ea:	0301                	addi	t1,t1,0
  ec:	0901                	addi	s2,s2,0
  ee:	0004                	0x4
  f0:	0301                	addi	t1,t1,0
  f2:	0901                	addi	s2,s2,0
  f4:	0004                	0x4
  f6:	0301                	addi	t1,t1,0
  f8:	0904                	addi	s1,sp,144
  fa:	0004                	0x4
  fc:	0301                	addi	t1,t1,0
  fe:	0904                	addi	s1,sp,144
 100:	0014                	0x14
 102:	0301                	addi	t1,t1,0
 104:	0902                	c.slli64	s2
 106:	0004                	0x4
 108:	0301                	addi	t1,t1,0
 10a:	00040903          	lb	s2,0(s0) # ffffffffffffd000 <secret+0xffffffff7f3fd000>
 10e:	0301                	addi	t1,t1,0
 110:	0901                	addi	s2,s2,0
 112:	0004                	0x4
 114:	0301                	addi	t1,t1,0
 116:	0901                	addi	s2,s2,0
 118:	0004                	0x4
 11a:	0301                	addi	t1,t1,0
 11c:	0901                	addi	s2,s2,0
 11e:	0004                	0x4
 120:	0301                	addi	t1,t1,0
 122:	0901                	addi	s2,s2,0
 124:	0004                	0x4
 126:	0301                	addi	t1,t1,0
 128:	0901                	addi	s2,s2,0
 12a:	0004                	0x4
 12c:	0301                	addi	t1,t1,0
 12e:	0901                	addi	s2,s2,0
 130:	0004                	0x4
 132:	0301                	addi	t1,t1,0
 134:	0901                	addi	s2,s2,0
 136:	0004                	0x4
 138:	0301                	addi	t1,t1,0
 13a:	0901                	addi	s2,s2,0
 13c:	0004                	0x4
 13e:	0301                	addi	t1,t1,0
 140:	0901                	addi	s2,s2,0
 142:	0004                	0x4
 144:	0301                	addi	t1,t1,0
 146:	0901                	addi	s2,s2,0
 148:	0004                	0x4
 14a:	0301                	addi	t1,t1,0
 14c:	0901                	addi	s2,s2,0
 14e:	0004                	0x4
 150:	0301                	addi	t1,t1,0
 152:	0901                	addi	s2,s2,0
 154:	0004                	0x4
 156:	0301                	addi	t1,t1,0
 158:	0901                	addi	s2,s2,0
 15a:	0004                	0x4
 15c:	0301                	addi	t1,t1,0
 15e:	0901                	addi	s2,s2,0
 160:	0004                	0x4
 162:	0301                	addi	t1,t1,0
 164:	0901                	addi	s2,s2,0
 166:	0004                	0x4
 168:	0301                	addi	t1,t1,0
 16a:	0901                	addi	s2,s2,0
 16c:	0004                	0x4
 16e:	0301                	addi	t1,t1,0
 170:	0901                	addi	s2,s2,0
 172:	0004                	0x4
 174:	0301                	addi	t1,t1,0
 176:	0901                	addi	s2,s2,0
 178:	0004                	0x4
 17a:	0301                	addi	t1,t1,0
 17c:	0901                	addi	s2,s2,0
 17e:	0004                	0x4
 180:	0301                	addi	t1,t1,0
 182:	0901                	addi	s2,s2,0
 184:	0004                	0x4
 186:	0301                	addi	t1,t1,0
 188:	0901                	addi	s2,s2,0
 18a:	0004                	0x4
 18c:	0301                	addi	t1,t1,0
 18e:	0901                	addi	s2,s2,0
 190:	0004                	0x4
 192:	0301                	addi	t1,t1,0
 194:	0901                	addi	s2,s2,0
 196:	0004                	0x4
 198:	0301                	addi	t1,t1,0
 19a:	0901                	addi	s2,s2,0
 19c:	0004                	0x4
 19e:	0301                	addi	t1,t1,0
 1a0:	0901                	addi	s2,s2,0
 1a2:	0004                	0x4
 1a4:	0301                	addi	t1,t1,0
 1a6:	0901                	addi	s2,s2,0
 1a8:	0004                	0x4
 1aa:	0301                	addi	t1,t1,0
 1ac:	0901                	addi	s2,s2,0
 1ae:	0004                	0x4
 1b0:	0301                	addi	t1,t1,0
 1b2:	0901                	addi	s2,s2,0
 1b4:	0004                	0x4
 1b6:	0301                	addi	t1,t1,0
 1b8:	0901                	addi	s2,s2,0
 1ba:	0004                	0x4
 1bc:	0301                	addi	t1,t1,0
 1be:	0901                	addi	s2,s2,0
 1c0:	0004                	0x4
 1c2:	0301                	addi	t1,t1,0
 1c4:	0904                	addi	s1,sp,144
 1c6:	0004                	0x4
 1c8:	0301                	addi	t1,t1,0
 1ca:	0901                	addi	s2,s2,0
 1cc:	0004                	0x4
 1ce:	0301                	addi	t1,t1,0
 1d0:	0901                	addi	s2,s2,0
 1d2:	0004                	0x4
 1d4:	0301                	addi	t1,t1,0
 1d6:	0901                	addi	s2,s2,0
 1d8:	0004                	0x4
 1da:	0301                	addi	t1,t1,0
 1dc:	0901                	addi	s2,s2,0
 1de:	0004                	0x4
 1e0:	0301                	addi	t1,t1,0
 1e2:	0901                	addi	s2,s2,0
 1e4:	0004                	0x4
 1e6:	0301                	addi	t1,t1,0
 1e8:	0901                	addi	s2,s2,0
 1ea:	0004                	0x4
 1ec:	0301                	addi	t1,t1,0
 1ee:	0901                	addi	s2,s2,0
 1f0:	0004                	0x4
 1f2:	0301                	addi	t1,t1,0
 1f4:	0901                	addi	s2,s2,0
 1f6:	0004                	0x4
 1f8:	0301                	addi	t1,t1,0
 1fa:	0901                	addi	s2,s2,0
 1fc:	0004                	0x4
 1fe:	0301                	addi	t1,t1,0
 200:	0901                	addi	s2,s2,0
 202:	0004                	0x4
 204:	0301                	addi	t1,t1,0
 206:	0901                	addi	s2,s2,0
 208:	0004                	0x4
 20a:	0301                	addi	t1,t1,0
 20c:	0901                	addi	s2,s2,0
 20e:	0004                	0x4
 210:	0301                	addi	t1,t1,0
 212:	0901                	addi	s2,s2,0
 214:	0004                	0x4
 216:	0301                	addi	t1,t1,0
 218:	0901                	addi	s2,s2,0
 21a:	0004                	0x4
 21c:	0301                	addi	t1,t1,0
 21e:	0901                	addi	s2,s2,0
 220:	0004                	0x4
 222:	0301                	addi	t1,t1,0
 224:	0901                	addi	s2,s2,0
 226:	0004                	0x4
 228:	0301                	addi	t1,t1,0
 22a:	0901                	addi	s2,s2,0
 22c:	0004                	0x4
 22e:	0301                	addi	t1,t1,0
 230:	0901                	addi	s2,s2,0
 232:	0004                	0x4
 234:	0301                	addi	t1,t1,0
 236:	0901                	addi	s2,s2,0
 238:	0004                	0x4
 23a:	0301                	addi	t1,t1,0
 23c:	0901                	addi	s2,s2,0
 23e:	0004                	0x4
 240:	0301                	addi	t1,t1,0
 242:	0901                	addi	s2,s2,0
 244:	0004                	0x4
 246:	0301                	addi	t1,t1,0
 248:	0901                	addi	s2,s2,0
 24a:	0004                	0x4
 24c:	0301                	addi	t1,t1,0
 24e:	0901                	addi	s2,s2,0
 250:	0004                	0x4
 252:	0301                	addi	t1,t1,0
 254:	0901                	addi	s2,s2,0
 256:	0004                	0x4
 258:	0301                	addi	t1,t1,0
 25a:	0901                	addi	s2,s2,0
 25c:	0004                	0x4
 25e:	0301                	addi	t1,t1,0
 260:	0901                	addi	s2,s2,0
 262:	0004                	0x4
 264:	0301                	addi	t1,t1,0
 266:	0901                	addi	s2,s2,0
 268:	0004                	0x4
 26a:	0301                	addi	t1,t1,0
 26c:	0901                	addi	s2,s2,0
 26e:	0004                	0x4
 270:	0301                	addi	t1,t1,0
 272:	0901                	addi	s2,s2,0
 274:	0004                	0x4
 276:	0301                	addi	t1,t1,0
 278:	0901                	addi	s2,s2,0
 27a:	0004                	0x4
 27c:	0301                	addi	t1,t1,0
 27e:	0901                	addi	s2,s2,0
 280:	0004                	0x4
 282:	0301                	addi	t1,t1,0
 284:	0901                	addi	s2,s2,0
 286:	0004                	0x4
 288:	0301                	addi	t1,t1,0
 28a:	0901                	addi	s2,s2,0
 28c:	0004                	0x4
 28e:	0301                	addi	t1,t1,0
 290:	0901                	addi	s2,s2,0
 292:	0004                	0x4
 294:	0301                	addi	t1,t1,0
 296:	00040903          	lb	s2,0(s0)
 29a:	0301                	addi	t1,t1,0
 29c:	0901                	addi	s2,s2,0
 29e:	0008                	0x8
 2a0:	0301                	addi	t1,t1,0
 2a2:	0901                	addi	s2,s2,0
 2a4:	0004                	0x4
 2a6:	0301                	addi	t1,t1,0
 2a8:	0901                	addi	s2,s2,0
 2aa:	0008                	0x8
 2ac:	0301                	addi	t1,t1,0
 2ae:	0902                	c.slli64	s2
 2b0:	0004                	0x4
 2b2:	0301                	addi	t1,t1,0
 2b4:	0904                	addi	s1,sp,144
 2b6:	0008                	0x8
 2b8:	0301                	addi	t1,t1,0
 2ba:	0902                	c.slli64	s2
 2bc:	0004                	0x4
 2be:	0301                	addi	t1,t1,0
 2c0:	00040903          	lb	s2,0(s0)
 2c4:	0301                	addi	t1,t1,0
 2c6:	0902                	c.slli64	s2
 2c8:	0004                	0x4
 2ca:	0301                	addi	t1,t1,0
 2cc:	0904                	addi	s1,sp,144
 2ce:	0004                	0x4
 2d0:	0301                	addi	t1,t1,0
 2d2:	0901                	addi	s2,s2,0
 2d4:	0004                	0x4
 2d6:	0301                	addi	t1,t1,0
 2d8:	0901                	addi	s2,s2,0
 2da:	0004                	0x4
 2dc:	0301                	addi	t1,t1,0
 2de:	0901                	addi	s2,s2,0
 2e0:	0008                	0x8
 2e2:	0301                	addi	t1,t1,0
 2e4:	0902                	c.slli64	s2
 2e6:	0004                	0x4
 2e8:	0301                	addi	t1,t1,0
 2ea:	0901                	addi	s2,s2,0
 2ec:	0004                	0x4
 2ee:	0301                	addi	t1,t1,0
 2f0:	0901                	addi	s2,s2,0
 2f2:	0004                	0x4
 2f4:	0301                	addi	t1,t1,0
 2f6:	0901                	addi	s2,s2,0
 2f8:	0004                	0x4
 2fa:	0301                	addi	t1,t1,0
 2fc:	0901                	addi	s2,s2,0
 2fe:	0004                	0x4
 300:	0301                	addi	t1,t1,0
 302:	0901                	addi	s2,s2,0
 304:	0004                	0x4
 306:	0301                	addi	t1,t1,0
 308:	0901                	addi	s2,s2,0
 30a:	0004                	0x4
 30c:	0301                	addi	t1,t1,0
 30e:	0901                	addi	s2,s2,0
 310:	0004                	0x4
 312:	0301                	addi	t1,t1,0
 314:	0901                	addi	s2,s2,0
 316:	0004                	0x4
 318:	0301                	addi	t1,t1,0
 31a:	0909                	addi	s2,s2,2
 31c:	0004                	0x4
 31e:	0301                	addi	t1,t1,0
 320:	0901                	addi	s2,s2,0
 322:	0004                	0x4
 324:	0301                	addi	t1,t1,0
 326:	0901                	addi	s2,s2,0
 328:	0008                	0x8
 32a:	0301                	addi	t1,t1,0
 32c:	0901                	addi	s2,s2,0
 32e:	0004                	0x4
 330:	0301                	addi	t1,t1,0
 332:	0901                	addi	s2,s2,0
 334:	0004                	0x4
 336:	0301                	addi	t1,t1,0
 338:	0901                	addi	s2,s2,0
 33a:	0004                	0x4
 33c:	0301                	addi	t1,t1,0
 33e:	0901                	addi	s2,s2,0
 340:	0008                	0x8
 342:	0301                	addi	t1,t1,0
 344:	0901                	addi	s2,s2,0
 346:	0004                	0x4
 348:	0301                	addi	t1,t1,0
 34a:	0901                	addi	s2,s2,0
 34c:	0004                	0x4
 34e:	0301                	addi	t1,t1,0
 350:	0901                	addi	s2,s2,0
 352:	0004                	0x4
 354:	0301                	addi	t1,t1,0
 356:	0901                	addi	s2,s2,0
 358:	0008                	0x8
 35a:	0301                	addi	t1,t1,0
 35c:	0901                	addi	s2,s2,0
 35e:	0004                	0x4
 360:	0301                	addi	t1,t1,0
 362:	0901                	addi	s2,s2,0
 364:	0004                	0x4
 366:	0301                	addi	t1,t1,0
 368:	0901                	addi	s2,s2,0
 36a:	0004                	0x4
 36c:	0301                	addi	t1,t1,0
 36e:	0901                	addi	s2,s2,0
 370:	0008                	0x8
 372:	0301                	addi	t1,t1,0
 374:	0901                	addi	s2,s2,0
 376:	0004                	0x4
 378:	0301                	addi	t1,t1,0
 37a:	0901                	addi	s2,s2,0
 37c:	0004                	0x4
 37e:	0301                	addi	t1,t1,0
 380:	0901                	addi	s2,s2,0
 382:	0004                	0x4
 384:	0301                	addi	t1,t1,0
 386:	0901                	addi	s2,s2,0
 388:	0008                	0x8
 38a:	0301                	addi	t1,t1,0
 38c:	0901                	addi	s2,s2,0
 38e:	0004                	0x4
 390:	0301                	addi	t1,t1,0
 392:	0901                	addi	s2,s2,0
 394:	0004                	0x4
 396:	0301                	addi	t1,t1,0
 398:	0901                	addi	s2,s2,0
 39a:	0004                	0x4
 39c:	0301                	addi	t1,t1,0
 39e:	0901                	addi	s2,s2,0
 3a0:	0008                	0x8
 3a2:	0301                	addi	t1,t1,0
 3a4:	0901                	addi	s2,s2,0
 3a6:	0004                	0x4
 3a8:	0301                	addi	t1,t1,0
 3aa:	0901                	addi	s2,s2,0
 3ac:	0004                	0x4
 3ae:	0301                	addi	t1,t1,0
 3b0:	0901                	addi	s2,s2,0
 3b2:	0004                	0x4
 3b4:	0301                	addi	t1,t1,0
 3b6:	0901                	addi	s2,s2,0
 3b8:	0008                	0x8
 3ba:	0301                	addi	t1,t1,0
 3bc:	0901                	addi	s2,s2,0
 3be:	0004                	0x4
 3c0:	0301                	addi	t1,t1,0
 3c2:	0901                	addi	s2,s2,0
 3c4:	0004                	0x4
 3c6:	0301                	addi	t1,t1,0
 3c8:	0901                	addi	s2,s2,0
 3ca:	0004                	0x4
 3cc:	0301                	addi	t1,t1,0
 3ce:	0901                	addi	s2,s2,0
 3d0:	0008                	0x8
 3d2:	0301                	addi	t1,t1,0
 3d4:	0901                	addi	s2,s2,0
 3d6:	0004                	0x4
 3d8:	0301                	addi	t1,t1,0
 3da:	0901                	addi	s2,s2,0
 3dc:	0004                	0x4
 3de:	0301                	addi	t1,t1,0
 3e0:	0901                	addi	s2,s2,0
 3e2:	0004                	0x4
 3e4:	0301                	addi	t1,t1,0
 3e6:	0901                	addi	s2,s2,0
 3e8:	0008                	0x8
 3ea:	0301                	addi	t1,t1,0
 3ec:	0901                	addi	s2,s2,0
 3ee:	0004                	0x4
 3f0:	0301                	addi	t1,t1,0
 3f2:	0901                	addi	s2,s2,0
 3f4:	0004                	0x4
 3f6:	0301                	addi	t1,t1,0
 3f8:	0901                	addi	s2,s2,0
 3fa:	0004                	0x4
 3fc:	0301                	addi	t1,t1,0
 3fe:	0901                	addi	s2,s2,0
 400:	0008                	0x8
 402:	0301                	addi	t1,t1,0
 404:	0901                	addi	s2,s2,0
 406:	0004                	0x4
 408:	0301                	addi	t1,t1,0
 40a:	0901                	addi	s2,s2,0
 40c:	0004                	0x4
 40e:	0301                	addi	t1,t1,0
 410:	0901                	addi	s2,s2,0
 412:	0004                	0x4
 414:	0301                	addi	t1,t1,0
 416:	0901                	addi	s2,s2,0
 418:	0004                	0x4
 41a:	0301                	addi	t1,t1,0
 41c:	0901                	addi	s2,s2,0
 41e:	0004                	0x4
 420:	0301                	addi	t1,t1,0
 422:	0901                	addi	s2,s2,0
 424:	0004                	0x4
 426:	0301                	addi	t1,t1,0
 428:	0901                	addi	s2,s2,0
 42a:	0004                	0x4
 42c:	0301                	addi	t1,t1,0
 42e:	0901                	addi	s2,s2,0
 430:	0004                	0x4
 432:	0301                	addi	t1,t1,0
 434:	0901                	addi	s2,s2,0
 436:	0004                	0x4
 438:	0301                	addi	t1,t1,0
 43a:	0901                	addi	s2,s2,0
 43c:	0004                	0x4
 43e:	0301                	addi	t1,t1,0
 440:	0901                	addi	s2,s2,0
 442:	0004                	0x4
 444:	0301                	addi	t1,t1,0
 446:	00040907          	0x40907
 44a:	0301                	addi	t1,t1,0
 44c:	00040903          	lb	s2,0(s0)
 450:	0301                	addi	t1,t1,0
 452:	0901                	addi	s2,s2,0
 454:	0008                	0x8
 456:	0301                	addi	t1,t1,0
 458:	0004090f          	0x4090f
 45c:	0301                	addi	t1,t1,0
 45e:	0901                	addi	s2,s2,0
 460:	0008                	0x8
 462:	0301                	addi	t1,t1,0
 464:	0901                	addi	s2,s2,0
 466:	0004                	0x4
 468:	0301                	addi	t1,t1,0
 46a:	00040903          	lb	s2,0(s0)
 46e:	0301                	addi	t1,t1,0
 470:	0902                	c.slli64	s2
 472:	0014                	0x14
 474:	0301                	addi	t1,t1,0
 476:	0901                	addi	s2,s2,0
 478:	0004                	0x4
 47a:	0301                	addi	t1,t1,0
 47c:	0901                	addi	s2,s2,0
 47e:	0004                	0x4
 480:	0301                	addi	t1,t1,0
 482:	0901                	addi	s2,s2,0
 484:	0004                	0x4
 486:	0301                	addi	t1,t1,0
 488:	0901                	addi	s2,s2,0
 48a:	0004                	0x4
 48c:	0301                	addi	t1,t1,0
 48e:	0901                	addi	s2,s2,0
 490:	0004                	0x4
 492:	0301                	addi	t1,t1,0
 494:	00140903          	lb	s2,1(s0)
 498:	0301                	addi	t1,t1,0
 49a:	0902                	c.slli64	s2
 49c:	0014                	0x14
 49e:	0301                	addi	t1,t1,0
 4a0:	0902                	c.slli64	s2
 4a2:	0004                	0x4
 4a4:	0301                	addi	t1,t1,0
 4a6:	0901                	addi	s2,s2,0
 4a8:	0004                	0x4
 4aa:	0301                	addi	t1,t1,0
 4ac:	0901                	addi	s2,s2,0
 4ae:	0004                	0x4
 4b0:	0301                	addi	t1,t1,0
 4b2:	0901                	addi	s2,s2,0
 4b4:	0004                	0x4
 4b6:	0301                	addi	t1,t1,0
 4b8:	0902                	c.slli64	s2
 4ba:	0004                	0x4
 4bc:	0301                	addi	t1,t1,0
 4be:	0904                	addi	s1,sp,144
 4c0:	0014                	0x14
 4c2:	0301                	addi	t1,t1,0
 4c4:	0901                	addi	s2,s2,0
 4c6:	0004                	0x4
 4c8:	0301                	addi	t1,t1,0
 4ca:	0901                	addi	s2,s2,0
 4cc:	0004                	0x4
 4ce:	0301                	addi	t1,t1,0
 4d0:	0901                	addi	s2,s2,0
 4d2:	0008                	0x8
 4d4:	0301                	addi	t1,t1,0
 4d6:	0902                	c.slli64	s2
 4d8:	0004                	0x4
 4da:	0301                	addi	t1,t1,0
 4dc:	0901                	addi	s2,s2,0
 4de:	0008                	0x8
 4e0:	0301                	addi	t1,t1,0
 4e2:	0901                	addi	s2,s2,0
 4e4:	0004                	0x4
 4e6:	0301                	addi	t1,t1,0
 4e8:	0901                	addi	s2,s2,0
 4ea:	0008                	0x8
 4ec:	0301                	addi	t1,t1,0
 4ee:	00040903          	lb	s2,0(s0)
 4f2:	0301                	addi	t1,t1,0
 4f4:	0901                	addi	s2,s2,0
 4f6:	0004                	0x4
 4f8:	0301                	addi	t1,t1,0
 4fa:	0901                	addi	s2,s2,0
 4fc:	0004                	0x4
 4fe:	0301                	addi	t1,t1,0
 500:	0905                	addi	s2,s2,1
 502:	0004                	0x4
 504:	0301                	addi	t1,t1,0
 506:	0902                	c.slli64	s2
 508:	0004                	0x4
 50a:	0301                	addi	t1,t1,0
 50c:	0901                	addi	s2,s2,0
 50e:	0008                	0x8
 510:	0301                	addi	t1,t1,0
 512:	0905                	addi	s2,s2,1
 514:	0004                	0x4
 516:	0301                	addi	t1,t1,0
 518:	0901                	addi	s2,s2,0
 51a:	0008                	0x8
 51c:	0301                	addi	t1,t1,0
 51e:	0901                	addi	s2,s2,0
 520:	0004                	0x4
 522:	0901                	addi	s2,s2,0
 524:	0004                	0x4
 526:	0100                	addi	s0,sp,128
 528:	0001                	nop
 52a:	0209                	addi	tp,tp,2
 52c:	0000                	unimp
 52e:	8020                	0x8020
 530:	0000                	unimp
 532:	0000                	unimp
 534:	0102ff03          	0x102ff03
 538:	04090103          	lb	sp,64(s2) # 1a040 <_start-0x7ffe5fc0>
 53c:	0100                	addi	s0,sp,128
 53e:	04090103          	lb	sp,64(s2)
 542:	0100                	addi	s0,sp,128
 544:	04090103          	lb	sp,64(s2)
 548:	0100                	addi	s0,sp,128
 54a:	08090103          	lb	sp,128(s2)
 54e:	0100                	addi	s0,sp,128
 550:	04090103          	lb	sp,64(s2)
 554:	0100                	addi	s0,sp,128
 556:	04090103          	lb	sp,64(s2)
 55a:	0100                	addi	s0,sp,128
 55c:	08090103          	lb	sp,128(s2)
 560:	0100                	addi	s0,sp,128
 562:	08090103          	lb	sp,128(s2)
 566:	0100                	addi	s0,sp,128
 568:	04090203          	lb	tp,64(s2)
 56c:	0100                	addi	s0,sp,128
 56e:	04090103          	lb	sp,64(s2)
 572:	0100                	addi	s0,sp,128
 574:	04090103          	lb	sp,64(s2)
 578:	0100                	addi	s0,sp,128
 57a:	04090103          	lb	sp,64(s2)
 57e:	0100                	addi	s0,sp,128
 580:	04090103          	lb	sp,64(s2)
 584:	0100                	addi	s0,sp,128
 586:	04090103          	lb	sp,64(s2)
 58a:	0100                	addi	s0,sp,128
 58c:	04090103          	lb	sp,64(s2)
 590:	0100                	addi	s0,sp,128
 592:	04090103          	lb	sp,64(s2)
 596:	0100                	addi	s0,sp,128
 598:	04090103          	lb	sp,64(s2)
 59c:	0100                	addi	s0,sp,128
 59e:	04090103          	lb	sp,64(s2)
 5a2:	0100                	addi	s0,sp,128
 5a4:	04090103          	lb	sp,64(s2)
 5a8:	0100                	addi	s0,sp,128
 5aa:	04090203          	lb	tp,64(s2)
 5ae:	0100                	addi	s0,sp,128
 5b0:	04090103          	lb	sp,64(s2)
 5b4:	0100                	addi	s0,sp,128
 5b6:	04090103          	lb	sp,64(s2)
 5ba:	0100                	addi	s0,sp,128
 5bc:	04090103          	lb	sp,64(s2)
 5c0:	0100                	addi	s0,sp,128
 5c2:	04090103          	lb	sp,64(s2)
 5c6:	0100                	addi	s0,sp,128
 5c8:	04090103          	lb	sp,64(s2)
 5cc:	0100                	addi	s0,sp,128
 5ce:	04090103          	lb	sp,64(s2)
 5d2:	0100                	addi	s0,sp,128
 5d4:	04090103          	lb	sp,64(s2)
 5d8:	0100                	addi	s0,sp,128
 5da:	08090103          	lb	sp,128(s2)
 5de:	0100                	addi	s0,sp,128
 5e0:	04090203          	lb	tp,64(s2)
 5e4:	0100                	addi	s0,sp,128
 5e6:	04090103          	lb	sp,64(s2)
 5ea:	0100                	addi	s0,sp,128
 5ec:	04090103          	lb	sp,64(s2)
 5f0:	0100                	addi	s0,sp,128
 5f2:	04090103          	lb	sp,64(s2)
 5f6:	0100                	addi	s0,sp,128
 5f8:	04090103          	lb	sp,64(s2)
 5fc:	0100                	addi	s0,sp,128
 5fe:	08090103          	lb	sp,128(s2)
 602:	0100                	addi	s0,sp,128
 604:	04090103          	lb	sp,64(s2)
 608:	0100                	addi	s0,sp,128
 60a:	04090103          	lb	sp,64(s2)
 60e:	0100                	addi	s0,sp,128
 610:	04090103          	lb	sp,64(s2)
 614:	0100                	addi	s0,sp,128
 616:	04090303          	lb	t1,64(s2)
 61a:	0100                	addi	s0,sp,128
 61c:	0809                	addi	a6,a6,2
 61e:	0000                	unimp
 620:	0101                	addi	sp,sp,0
 622:	0900                	addi	s0,sp,144
 624:	0002                	c.slli64	zero
 626:	4000                	lw	s0,0(s0)
 628:	0080                	addi	s0,sp,64
 62a:	0000                	unimp
 62c:	0300                	addi	s0,sp,384
 62e:	030103b3          	mul	t2,sp,a6
 632:	0901                	addi	s2,s2,0
 634:	0004                	0x4
 636:	0301                	addi	t1,t1,0
 638:	0901                	addi	s2,s2,0
 63a:	0004                	0x4
 63c:	0301                	addi	t1,t1,0
 63e:	0901                	addi	s2,s2,0
 640:	0004                	0x4
 642:	0301                	addi	t1,t1,0
 644:	0901                	addi	s2,s2,0
 646:	0008                	0x8
 648:	0301                	addi	t1,t1,0
 64a:	0901                	addi	s2,s2,0
 64c:	0004                	0x4
 64e:	0301                	addi	t1,t1,0
 650:	0902                	c.slli64	s2
 652:	0004                	0x4
 654:	0301                	addi	t1,t1,0
 656:	0901                	addi	s2,s2,0
 658:	0004                	0x4
 65a:	0301                	addi	t1,t1,0
 65c:	0901                	addi	s2,s2,0
 65e:	0004                	0x4
 660:	0301                	addi	t1,t1,0
 662:	0901                	addi	s2,s2,0
 664:	0004                	0x4
 666:	0301                	addi	t1,t1,0
 668:	0901                	addi	s2,s2,0
 66a:	0004                	0x4
 66c:	0301                	addi	t1,t1,0
 66e:	0901                	addi	s2,s2,0
 670:	0004                	0x4
 672:	0301                	addi	t1,t1,0
 674:	0902                	c.slli64	s2
 676:	0004                	0x4
 678:	0301                	addi	t1,t1,0
 67a:	0901                	addi	s2,s2,0
 67c:	0008                	0x8
 67e:	0301                	addi	t1,t1,0
 680:	0901                	addi	s2,s2,0
 682:	0004                	0x4
 684:	0301                	addi	t1,t1,0
 686:	0901                	addi	s2,s2,0
 688:	0004                	0x4
 68a:	0301                	addi	t1,t1,0
 68c:	0901                	addi	s2,s2,0
 68e:	0004                	0x4
 690:	0301                	addi	t1,t1,0
 692:	0901                	addi	s2,s2,0
 694:	0004                	0x4
 696:	0301                	addi	t1,t1,0
 698:	0901                	addi	s2,s2,0
 69a:	0004                	0x4
 69c:	0301                	addi	t1,t1,0
 69e:	0901                	addi	s2,s2,0
 6a0:	0004                	0x4
 6a2:	0301                	addi	t1,t1,0
 6a4:	0902                	c.slli64	s2
 6a6:	0004                	0x4
 6a8:	0301                	addi	t1,t1,0
 6aa:	0901                	addi	s2,s2,0
 6ac:	0004                	0x4
 6ae:	0301                	addi	t1,t1,0
 6b0:	0901                	addi	s2,s2,0
 6b2:	0004                	0x4
 6b4:	0301                	addi	t1,t1,0
 6b6:	0901                	addi	s2,s2,0
 6b8:	0004                	0x4
 6ba:	0301                	addi	t1,t1,0
 6bc:	0901                	addi	s2,s2,0
 6be:	0004                	0x4
 6c0:	0301                	addi	t1,t1,0
 6c2:	0901                	addi	s2,s2,0
 6c4:	0004                	0x4
 6c6:	0301                	addi	t1,t1,0
 6c8:	0901                	addi	s2,s2,0
 6ca:	0008                	0x8
 6cc:	0301                	addi	t1,t1,0
 6ce:	0901                	addi	s2,s2,0
 6d0:	0004                	0x4
 6d2:	0301                	addi	t1,t1,0
 6d4:	0902                	c.slli64	s2
 6d6:	0004                	0x4
 6d8:	0301                	addi	t1,t1,0
 6da:	0901                	addi	s2,s2,0
 6dc:	0008                	0x8
 6de:	0301                	addi	t1,t1,0
 6e0:	0901                	addi	s2,s2,0
 6e2:	0004                	0x4
 6e4:	0301                	addi	t1,t1,0
 6e6:	0901                	addi	s2,s2,0
 6e8:	0004                	0x4
 6ea:	0301                	addi	t1,t1,0
 6ec:	0901                	addi	s2,s2,0
 6ee:	0004                	0x4
 6f0:	0301                	addi	t1,t1,0
 6f2:	0901                	addi	s2,s2,0
 6f4:	0004                	0x4
 6f6:	0301                	addi	t1,t1,0
 6f8:	0901                	addi	s2,s2,0
 6fa:	0004                	0x4
 6fc:	0301                	addi	t1,t1,0
 6fe:	0901                	addi	s2,s2,0
 700:	0008                	0x8
 702:	0301                	addi	t1,t1,0
 704:	0901                	addi	s2,s2,0
 706:	0004                	0x4
 708:	0301                	addi	t1,t1,0
 70a:	0902                	c.slli64	s2
 70c:	0004                	0x4
 70e:	0301                	addi	t1,t1,0
 710:	0901                	addi	s2,s2,0
 712:	0004                	0x4
 714:	0301                	addi	t1,t1,0
 716:	0901                	addi	s2,s2,0
 718:	0004                	0x4
 71a:	0301                	addi	t1,t1,0
 71c:	0901                	addi	s2,s2,0
 71e:	0004                	0x4
 720:	0301                	addi	t1,t1,0
 722:	0901                	addi	s2,s2,0
 724:	0004                	0x4
 726:	0301                	addi	t1,t1,0
 728:	0901                	addi	s2,s2,0
 72a:	0004                	0x4
 72c:	0301                	addi	t1,t1,0
 72e:	0901                	addi	s2,s2,0
 730:	0008                	0x8
 732:	0301                	addi	t1,t1,0
 734:	0901                	addi	s2,s2,0
 736:	0004                	0x4
 738:	0301                	addi	t1,t1,0
 73a:	0901                	addi	s2,s2,0
 73c:	0004                	0x4
 73e:	0301                	addi	t1,t1,0
 740:	0901                	addi	s2,s2,0
 742:	0004                	0x4
 744:	0301                	addi	t1,t1,0
 746:	0901                	addi	s2,s2,0
 748:	0008                	0x8
 74a:	0301                	addi	t1,t1,0
 74c:	00040903          	lb	s2,0(s0)
 750:	0901                	addi	s2,s2,0
 752:	0008                	0x8
 754:	0100                	addi	s0,sp,128
 756:	0001                	nop
 758:	0209                	addi	tp,tp,2
 75a:	0000                	unimp
 75c:	8060                	0x8060
 75e:	0000                	unimp
 760:	0000                	unimp
 762:	0103f303          	0x103f303
 766:	04090103          	lb	sp,64(s2)
 76a:	0100                	addi	s0,sp,128
 76c:	04090103          	lb	sp,64(s2)
 770:	0100                	addi	s0,sp,128
 772:	04090103          	lb	sp,64(s2)
 776:	0100                	addi	s0,sp,128
 778:	04090103          	lb	sp,64(s2)
 77c:	0100                	addi	s0,sp,128
 77e:	04090103          	lb	sp,64(s2)
 782:	0100                	addi	s0,sp,128
 784:	04090103          	lb	sp,64(s2)
 788:	0100                	addi	s0,sp,128
 78a:	04090103          	lb	sp,64(s2)
 78e:	0100                	addi	s0,sp,128
 790:	04090203          	lb	tp,64(s2)
 794:	0100                	addi	s0,sp,128
 796:	04090103          	lb	sp,64(s2)
 79a:	0100                	addi	s0,sp,128
 79c:	04090103          	lb	sp,64(s2)
 7a0:	0100                	addi	s0,sp,128
 7a2:	04090103          	lb	sp,64(s2)
 7a6:	0100                	addi	s0,sp,128
 7a8:	04090103          	lb	sp,64(s2)
 7ac:	0100                	addi	s0,sp,128
 7ae:	04090103          	lb	sp,64(s2)
 7b2:	0100                	addi	s0,sp,128
 7b4:	04090103          	lb	sp,64(s2)
 7b8:	0100                	addi	s0,sp,128
 7ba:	04090103          	lb	sp,64(s2)
 7be:	0100                	addi	s0,sp,128
 7c0:	04090103          	lb	sp,64(s2)
 7c4:	0100                	addi	s0,sp,128
 7c6:	04090203          	lb	tp,64(s2)
 7ca:	0100                	addi	s0,sp,128
 7cc:	04090103          	lb	sp,64(s2)
 7d0:	0100                	addi	s0,sp,128
 7d2:	04090103          	lb	sp,64(s2)
 7d6:	0100                	addi	s0,sp,128
 7d8:	04090103          	lb	sp,64(s2)
 7dc:	0100                	addi	s0,sp,128
 7de:	04090103          	lb	sp,64(s2)
 7e2:	0100                	addi	s0,sp,128
 7e4:	08090103          	lb	sp,128(s2)
 7e8:	0100                	addi	s0,sp,128
 7ea:	04090103          	lb	sp,64(s2)
 7ee:	0100                	addi	s0,sp,128
 7f0:	04090103          	lb	sp,64(s2)
 7f4:	0100                	addi	s0,sp,128
 7f6:	04090103          	lb	sp,64(s2)
 7fa:	0100                	addi	s0,sp,128
 7fc:	08090103          	lb	sp,128(s2)
 800:	0100                	addi	s0,sp,128
 802:	04090103          	lb	sp,64(s2)
 806:	0100                	addi	s0,sp,128
 808:	04090103          	lb	sp,64(s2)
 80c:	0100                	addi	s0,sp,128
 80e:	04090103          	lb	sp,64(s2)
 812:	0100                	addi	s0,sp,128
 814:	08090103          	lb	sp,128(s2)
 818:	0100                	addi	s0,sp,128
 81a:	04090103          	lb	sp,64(s2)
 81e:	0100                	addi	s0,sp,128
 820:	04090103          	lb	sp,64(s2)
 824:	0100                	addi	s0,sp,128
 826:	04090103          	lb	sp,64(s2)
 82a:	0100                	addi	s0,sp,128
 82c:	08090103          	lb	sp,128(s2)
 830:	0100                	addi	s0,sp,128
 832:	04090103          	lb	sp,64(s2)
 836:	0100                	addi	s0,sp,128
 838:	04090103          	lb	sp,64(s2)
 83c:	0100                	addi	s0,sp,128
 83e:	04090203          	lb	tp,64(s2)
 842:	0100                	addi	s0,sp,128
 844:	04090103          	lb	sp,64(s2)
 848:	0100                	addi	s0,sp,128
 84a:	04090103          	lb	sp,64(s2)
 84e:	0100                	addi	s0,sp,128
 850:	04090103          	lb	sp,64(s2)
 854:	0100                	addi	s0,sp,128
 856:	04090103          	lb	sp,64(s2)
 85a:	0100                	addi	s0,sp,128
 85c:	04090103          	lb	sp,64(s2)
 860:	0100                	addi	s0,sp,128
 862:	08090103          	lb	sp,128(s2)
 866:	0100                	addi	s0,sp,128
 868:	04090103          	lb	sp,64(s2)
 86c:	0100                	addi	s0,sp,128
 86e:	04090103          	lb	sp,64(s2)
 872:	0100                	addi	s0,sp,128
 874:	04090103          	lb	sp,64(s2)
 878:	0100                	addi	s0,sp,128
 87a:	08090103          	lb	sp,128(s2)
 87e:	0100                	addi	s0,sp,128
 880:	04090103          	lb	sp,64(s2)
 884:	0100                	addi	s0,sp,128
 886:	04090103          	lb	sp,64(s2)
 88a:	0100                	addi	s0,sp,128
 88c:	04090103          	lb	sp,64(s2)
 890:	0100                	addi	s0,sp,128
 892:	04090203          	lb	tp,64(s2)
 896:	0100                	addi	s0,sp,128
 898:	04090103          	lb	sp,64(s2)
 89c:	0100                	addi	s0,sp,128
 89e:	04090103          	lb	sp,64(s2)
 8a2:	0100                	addi	s0,sp,128
 8a4:	04090103          	lb	sp,64(s2)
 8a8:	0100                	addi	s0,sp,128
 8aa:	04090103          	lb	sp,64(s2)
 8ae:	0100                	addi	s0,sp,128
 8b0:	04090103          	lb	sp,64(s2)
 8b4:	0100                	addi	s0,sp,128
 8b6:	04090103          	lb	sp,64(s2)
 8ba:	0100                	addi	s0,sp,128
 8bc:	04090103          	lb	sp,64(s2)
 8c0:	0100                	addi	s0,sp,128
 8c2:	04090103          	lb	sp,64(s2)
 8c6:	0100                	addi	s0,sp,128
 8c8:	04090103          	lb	sp,64(s2)
 8cc:	0100                	addi	s0,sp,128
 8ce:	04091603          	lh	a2,64(s2)
 8d2:	0100                	addi	s0,sp,128
 8d4:	f4090e03          	lb	t3,-192(s2)
 8d8:	010e                	slli	sp,sp,0x3
 8da:	04090103          	lb	sp,64(s2)
 8de:	0100                	addi	s0,sp,128
 8e0:	04090103          	lb	sp,64(s2)
 8e4:	0100                	addi	s0,sp,128
 8e6:	04090103          	lb	sp,64(s2)
 8ea:	0100                	addi	s0,sp,128
 8ec:	04090103          	lb	sp,64(s2)
 8f0:	0100                	addi	s0,sp,128
 8f2:	04090103          	lb	sp,64(s2)
 8f6:	0100                	addi	s0,sp,128
 8f8:	04090103          	lb	sp,64(s2)
 8fc:	0100                	addi	s0,sp,128
 8fe:	04090103          	lb	sp,64(s2)
 902:	0100                	addi	s0,sp,128
 904:	04090103          	lb	sp,64(s2)
 908:	0100                	addi	s0,sp,128
 90a:	04090403          	lb	s0,64(s2)
 90e:	0100                	addi	s0,sp,128
 910:	04090103          	lb	sp,64(s2)
 914:	0100                	addi	s0,sp,128
 916:	04090103          	lb	sp,64(s2)
 91a:	0100                	addi	s0,sp,128
 91c:	04090103          	lb	sp,64(s2)
 920:	0100                	addi	s0,sp,128
 922:	04090103          	lb	sp,64(s2)
 926:	0100                	addi	s0,sp,128
 928:	04090103          	lb	sp,64(s2)
 92c:	0100                	addi	s0,sp,128
 92e:	04090103          	lb	sp,64(s2)
 932:	0100                	addi	s0,sp,128
 934:	04090103          	lb	sp,64(s2)
 938:	0100                	addi	s0,sp,128
 93a:	04090103          	lb	sp,64(s2)
 93e:	0100                	addi	s0,sp,128
 940:	04090403          	lb	s0,64(s2)
 944:	0100                	addi	s0,sp,128
 946:	04090103          	lb	sp,64(s2)
 94a:	0100                	addi	s0,sp,128
 94c:	04090103          	lb	sp,64(s2)
 950:	0100                	addi	s0,sp,128
 952:	04090103          	lb	sp,64(s2)
 956:	0100                	addi	s0,sp,128
 958:	04090103          	lb	sp,64(s2)
 95c:	0100                	addi	s0,sp,128
 95e:	04090103          	lb	sp,64(s2)
 962:	0100                	addi	s0,sp,128
 964:	04090103          	lb	sp,64(s2)
 968:	0100                	addi	s0,sp,128
 96a:	04090103          	lb	sp,64(s2)
 96e:	0100                	addi	s0,sp,128
 970:	04090103          	lb	sp,64(s2)
 974:	0100                	addi	s0,sp,128
 976:	04090103          	lb	sp,64(s2)
 97a:	0100                	addi	s0,sp,128
 97c:	04090103          	lb	sp,64(s2)
 980:	0100                	addi	s0,sp,128
 982:	04090403          	lb	s0,64(s2)
 986:	0100                	addi	s0,sp,128
 988:	04090103          	lb	sp,64(s2)
 98c:	0100                	addi	s0,sp,128
 98e:	04090103          	lb	sp,64(s2)
 992:	0100                	addi	s0,sp,128
 994:	04090103          	lb	sp,64(s2)
 998:	0100                	addi	s0,sp,128
 99a:	04090103          	lb	sp,64(s2)
 99e:	0100                	addi	s0,sp,128
 9a0:	04090103          	lb	sp,64(s2)
 9a4:	0100                	addi	s0,sp,128
 9a6:	04090103          	lb	sp,64(s2)
 9aa:	0100                	addi	s0,sp,128
 9ac:	04090103          	lb	sp,64(s2)
 9b0:	0100                	addi	s0,sp,128
 9b2:	04090103          	lb	sp,64(s2)
 9b6:	0100                	addi	s0,sp,128
 9b8:	04090403          	lb	s0,64(s2)
 9bc:	0100                	addi	s0,sp,128
 9be:	04090103          	lb	sp,64(s2)
 9c2:	0100                	addi	s0,sp,128
 9c4:	04090103          	lb	sp,64(s2)
 9c8:	0100                	addi	s0,sp,128
 9ca:	04090103          	lb	sp,64(s2)
 9ce:	0100                	addi	s0,sp,128
 9d0:	04090103          	lb	sp,64(s2)
 9d4:	0100                	addi	s0,sp,128
 9d6:	04090103          	lb	sp,64(s2)
 9da:	0100                	addi	s0,sp,128
 9dc:	04090103          	lb	sp,64(s2)
 9e0:	0100                	addi	s0,sp,128
 9e2:	04090103          	lb	sp,64(s2)
 9e6:	0100                	addi	s0,sp,128
 9e8:	04090103          	lb	sp,64(s2)
 9ec:	0100                	addi	s0,sp,128
 9ee:	04090103          	lb	sp,64(s2)
 9f2:	0100                	addi	s0,sp,128
 9f4:	0409                	addi	s0,s0,2
 9f6:	0000                	unimp
 9f8:	0101                	addi	sp,sp,0
 9fa:	0900                	addi	s0,sp,144
 9fc:	0002                	c.slli64	zero
 9fe:	8000                	0x8000
 a00:	0080                	addi	s0,sp,64
 a02:	0000                	unimp
 a04:	0300                	addi	s0,sp,384
 a06:	059c                	addi	a5,sp,704
 a08:	0901                	addi	s2,s2,0
 a0a:	0004                	0x4
 a0c:	0100                	addi	s0,sp,128
 a0e:	9f01                	subw	a4,a4,s0
 a10:	0000                	unimp
 a12:	0300                	addi	s0,sp,384
 a14:	5f00                	lw	s0,56(a4)
 a16:	0000                	unimp
 a18:	0100                	addi	s0,sp,128
 a1a:	fb01                	bnez	a4,92a <_start-0x7ffff6d6>
 a1c:	0d0e                	slli	s10,s10,0x3
 a1e:	0100                	addi	s0,sp,128
 a20:	0101                	addi	sp,sp,0
 a22:	0001                	nop
 a24:	0000                	unimp
 a26:	0001                	nop
 a28:	0100                	addi	s0,sp,128
 a2a:	00637273          	csrrci	tp,0x6,6
 a2e:	7273752f          	0x7273752f
 a32:	62696c2f          	0x62696c2f
 a36:	6363672f          	0x6363672f
 a3a:	7369722f          	0x7369722f
 a3e:	34367663          	bgeu	a2,gp,d8a <_start-0x7ffff276>
 a42:	752d                	lui	a0,0xfffeb
 a44:	6b6e                	ld	s6,216(sp)
 a46:	6f6e                	ld	t5,216(sp)
 a48:	652d6e77          	0x652d6e77
 a4c:	666c                	ld	a1,200(a2)
 a4e:	332e392f          	0x332e392f
 a52:	302e                	fld	ft0,232(sp)
 a54:	636e692f          	0x636e692f
 a58:	756c                	ld	a1,232(a0)
 a5a:	6564                	ld	s1,200(a0)
 a5c:	0000                	unimp
 a5e:	6d70                	ld	a2,216(a0)
 a60:	2e70                	fld	fa2,216(a2)
 a62:	00010063          	beqz	sp,a62 <_start-0x7ffff59e>
 a66:	7300                	ld	s0,32(a4)
 a68:	6474                	ld	a3,200(s0)
 a6a:	6e69                	lui	t3,0x1a
 a6c:	2d74                	fld	fa3,216(a0)
 a6e:	2e636367          	0x2e636367
 a72:	0068                	addi	a0,sp,12
 a74:	0002                	c.slli64	zero
 a76:	0000                	unimp
 a78:	1105                	addi	sp,sp,-31
 a7a:	0900                	addi	s0,sp,144
 a7c:	b802                	fsd	ft0,48(sp)
 a7e:	00800003          	lb	zero,8(zero) # 8 <_start-0x7ffffff8>
 a82:	0000                	unimp
 a84:	0300                	addi	s0,sp,384
 a86:	0109                	addi	sp,sp,2
 a88:	0f05                	addi	t5,t5,1
 a8a:	0c090203          	lb	tp,192(s2)
 a8e:	0100                	addi	s0,sp,128
 a90:	08090103          	lb	sp,128(s2)
 a94:	0100                	addi	s0,sp,128
 a96:	0505                	addi	a0,a0,1
 a98:	0c090103          	lb	sp,192(s2)
 a9c:	0100                	addi	s0,sp,128
 a9e:	28091303          	lh	t1,640(s2)
 aa2:	0100                	addi	s0,sp,128
 aa4:	0105                	addi	sp,sp,1
 aa6:	04090103          	lb	sp,64(s2)
 aaa:	0100                	addi	s0,sp,128
 aac:	0c09                	addi	s8,s8,2
 aae:	0000                	unimp
 ab0:	0101                	addi	sp,sp,0
 ab2:	030a                	slli	t1,t1,0x2
 ab4:	0000                	unimp
 ab6:	006a0003          	lb	zero,6(s4) # e006 <_start-0x7fff1ffa>
 aba:	0000                	unimp
 abc:	0101                	addi	sp,sp,0
 abe:	000d0efb          	0xd0efb
 ac2:	0101                	addi	sp,sp,0
 ac4:	0101                	addi	sp,sp,0
 ac6:	0000                	unimp
 ac8:	0100                	addi	s0,sp,128
 aca:	0000                	unimp
 acc:	7301                	lui	t1,0xfffe0
 ace:	6372                	ld	t1,280(sp)
 ad0:	2f00                	fld	fs0,24(a4)
 ad2:	7375                	lui	t1,0xffffd
 ad4:	2f72                	fld	ft10,280(sp)
 ad6:	696c                	ld	a1,208(a0)
 ad8:	2f62                	fld	ft10,24(sp)
 ada:	2f636367          	0x2f636367
 ade:	6972                	ld	s2,280(sp)
 ae0:	36766373          	csrrsi	t1,0x367,12
 ae4:	2d34                	fld	fa3,88(a0)
 ae6:	6e75                	lui	t3,0x1d
 ae8:	776f6e6b          	0x776f6e6b
 aec:	2d6e                	fld	fs10,216(sp)
 aee:	6c65                	lui	s8,0x19
 af0:	2f66                	fld	ft10,88(sp)
 af2:	2e39                	addiw	t3,t3,14
 af4:	2f302e33          	0x2f302e33
 af8:	6e69                	lui	t3,0x1a
 afa:	64756c63          	bltu	a0,t2,1152 <_start-0x7fffeeae>
 afe:	0065                	c.nop	25
 b00:	6e69                	lui	t3,0x1a
 b02:	76000063          	beqz	zero,1262 <_start-0x7fffed9e>
 b06:	2e6d                	addiw	t3,t3,27
 b08:	00010063          	beqz	sp,b08 <_start-0x7ffff4f8>
 b0c:	7300                	ld	s0,32(a4)
 b0e:	6474                	ld	a3,200(s0)
 b10:	6e69                	lui	t3,0x1a
 b12:	2d74                	fld	fa3,216(a0)
 b14:	2e636367          	0x2e636367
 b18:	0068                	addi	a0,sp,12
 b1a:	0002                	c.slli64	zero
 b1c:	7600                	ld	s0,40(a2)
 b1e:	2e6d                	addiw	t3,t3,27
 b20:	0068                	addi	a0,sp,12
 b22:	00000003          	lb	zero,0(zero) # 0 <_start-0x80000000>
 b26:	2405                	addiw	s0,s0,1
 b28:	0900                	addi	s0,sp,144
 b2a:	1002                	c.slli	zero,0x20
 b2c:	0004                	0x4
 b2e:	0080                	addi	s0,sp,64
 b30:	0000                	unimp
 b32:	0300                	addi	s0,sp,384
 b34:	1c05013f 10090103 	0x100901031c05013f
 b3c:	0100                	addi	s0,sp,128
 b3e:	1705                	addi	a4,a4,-31
 b40:	08090003          	lb	zero,128(s2)
 b44:	0100                	addi	s0,sp,128
 b46:	0e05                	addi	t3,t3,1
 b48:	08090003          	lb	zero,128(s2)
 b4c:	0100                	addi	s0,sp,128
 b4e:	0f05                	addi	t5,t5,1
 b50:	08090103          	lb	sp,128(s2)
 b54:	0100                	addi	s0,sp,128
 b56:	1c05                	addi	s8,s8,-31
 b58:	08090003          	lb	zero,128(s2)
 b5c:	0100                	addi	s0,sp,128
 b5e:	1505                	addi	a0,a0,-31
 b60:	08090003          	lb	zero,128(s2)
 b64:	0100                	addi	s0,sp,128
 b66:	0105                	addi	sp,sp,1
 b68:	04090103          	lb	sp,64(s2)
 b6c:	0100                	addi	s0,sp,128
 b6e:	10090303          	lb	t1,256(s2)
 b72:	0100                	addi	s0,sp,128
 b74:	2205                	addiw	tp,tp,1
 b76:	10090303          	lb	t1,256(s2)
 b7a:	0100                	addi	s0,sp,128
 b7c:	2c05                	addiw	s8,s8,1
 b7e:	10090003          	lb	zero,256(s2)
 b82:	0100                	addi	s0,sp,128
 b84:	2005                	0x2005
 b86:	04090003          	lb	zero,64(s2)
 b8a:	0100                	addi	s0,sp,128
 b8c:	0c090303          	lb	t1,192(s2)
 b90:	0100                	addi	s0,sp,128
 b92:	2405                	addiw	s0,s0,1
 b94:	1c090303          	lb	t1,448(s2)
 b98:	0100                	addi	s0,sp,128
 b9a:	0a05                	addi	s4,s4,1
 b9c:	10090003          	lb	zero,256(s2)
 ba0:	0100                	addi	s0,sp,128
 ba2:	4105                	li	sp,1
 ba4:	10090003          	lb	zero,256(s2)
 ba8:	0100                	addi	s0,sp,128
 baa:	2205                	addiw	tp,tp,1
 bac:	04090003          	lb	zero,64(s2)
 bb0:	0100                	addi	s0,sp,128
 bb2:	2405                	addiw	s0,s0,1
 bb4:	18090203          	lb	tp,384(s2)
 bb8:	0100                	addi	s0,sp,128
 bba:	0a05                	addi	s4,s4,1
 bbc:	10090003          	lb	zero,256(s2)
 bc0:	0100                	addi	s0,sp,128
 bc2:	4105                	li	sp,1
 bc4:	10090003          	lb	zero,256(s2)
 bc8:	0100                	addi	s0,sp,128
 bca:	2205                	addiw	tp,tp,1
 bcc:	04090003          	lb	zero,64(s2)
 bd0:	0100                	addi	s0,sp,128
 bd2:	1f05                	addi	t5,t5,-31
 bd4:	18090303          	lb	t1,384(s2)
 bd8:	0100                	addi	s0,sp,128
 bda:	0a05                	addi	s4,s4,1
 bdc:	10090003          	lb	zero,256(s2)
 be0:	0100                	addi	s0,sp,128
 be2:	3005                	0x3005
 be4:	10090003          	lb	zero,256(s2)
 be8:	0100                	addi	s0,sp,128
 bea:	1d05                	addi	s10,s10,-31
 bec:	04090003          	lb	zero,64(s2)
 bf0:	0100                	addi	s0,sp,128
 bf2:	2005                	0x2005
 bf4:	18090203          	lb	tp,384(s2)
 bf8:	0100                	addi	s0,sp,128
 bfa:	0a05                	addi	s4,s4,1
 bfc:	10090003          	lb	zero,256(s2)
 c00:	0100                	addi	s0,sp,128
 c02:	3905                	addiw	s2,s2,-31
 c04:	10090003          	lb	zero,256(s2)
 c08:	0100                	addi	s0,sp,128
 c0a:	1e05                	addi	t3,t3,-31
 c0c:	04090003          	lb	zero,64(s2)
 c10:	0100                	addi	s0,sp,128
 c12:	2c05                	addiw	s8,s8,1
 c14:	18090303          	lb	t1,384(s2)
 c18:	0100                	addi	s0,sp,128
 c1a:	0a05                	addi	s4,s4,1
 c1c:	10090003          	lb	zero,256(s2)
 c20:	0100                	addi	s0,sp,128
 c22:	3b05                	addiw	s6,s6,-31
 c24:	18090003          	lb	zero,384(s2)
 c28:	0100                	addi	s0,sp,128
 c2a:	2a05                	addiw	s4,s4,1
 c2c:	04090003          	lb	zero,64(s2)
 c30:	0100                	addi	s0,sp,128
 c32:	1f05                	addi	t5,t5,-31
 c34:	18090303          	lb	t1,384(s2)
 c38:	0100                	addi	s0,sp,128
 c3a:	0a05                	addi	s4,s4,1
 c3c:	10090003          	lb	zero,256(s2)
 c40:	0100                	addi	s0,sp,128
 c42:	3705                	addiw	a4,a4,-31
 c44:	10090003          	lb	zero,256(s2)
 c48:	0100                	addi	s0,sp,128
 c4a:	1d05                	addi	s10,s10,-31
 c4c:	04090003          	lb	zero,64(s2)
 c50:	0100                	addi	s0,sp,128
 c52:	0e05                	addi	t3,t3,1
 c54:	18090303          	lb	t1,384(s2)
 c58:	0100                	addi	s0,sp,128
 c5a:	0505                	addi	a0,a0,1
 c5c:	10090103          	lb	sp,256(s2)
 c60:	0100                	addi	s0,sp,128
 c62:	0f05                	addi	t5,t5,1
 c64:	08090203          	lb	tp,128(s2)
 c68:	0100                	addi	s0,sp,128
 c6a:	2805                	addiw	a6,a6,1
 c6c:	08090203          	lb	tp,128(s2)
 c70:	0100                	addi	s0,sp,128
 c72:	1d05                	addi	s10,s10,-31
 c74:	08097f03          	0x8097f03
 c78:	0100                	addi	s0,sp,128
 c7a:	2d05                	addiw	s10,s10,1
 c7c:	08090003          	lb	zero,128(s2)
 c80:	0100                	addi	s0,sp,128
 c82:	0f05                	addi	t5,t5,1
 c84:	04090003          	lb	zero,64(s2)
 c88:	0100                	addi	s0,sp,128
 c8a:	0505                	addi	a0,a0,1
 c8c:	08090303          	lb	t1,128(s2)
 c90:	0100                	addi	s0,sp,128
 c92:	08090103          	lb	sp,128(s2)
 c96:	0100                	addi	s0,sp,128
 c98:	0c090b03          	lb	s6,192(s2)
 c9c:	0100                	addi	s0,sp,128
 c9e:	04090203          	lb	tp,64(s2)
 ca2:	0100                	addi	s0,sp,128
 ca4:	0105                	addi	sp,sp,1
 ca6:	04090103          	lb	sp,64(s2)
 caa:	0100                	addi	s0,sp,128
 cac:	3405                	addiw	s0,s0,-31
 cae:	10090203          	lb	tp,256(s2)
 cb2:	0100                	addi	s0,sp,128
 cb4:	1405                	addi	s0,s0,-31
 cb6:	14090103          	lb	sp,320(s2)
 cba:	0100                	addi	s0,sp,128
 cbc:	0e05                	addi	t3,t3,1
 cbe:	08090003          	lb	zero,128(s2)
 cc2:	0100                	addi	s0,sp,128
 cc4:	1805                	addi	a6,a6,-31
 cc6:	08090103          	lb	sp,128(s2)
 cca:	0100                	addi	s0,sp,128
 ccc:	2205                	addiw	tp,tp,1
 cce:	0c090003          	lb	zero,192(s2)
 cd2:	0100                	addi	s0,sp,128
 cd4:	1605                	addi	a2,a2,-31
 cd6:	08090003          	lb	zero,128(s2)
 cda:	0100                	addi	s0,sp,128
 cdc:	0505                	addi	a0,a0,1
 cde:	1c090203          	lb	tp,448(s2)
 ce2:	0100                	addi	s0,sp,128
 ce4:	0105                	addi	sp,sp,1
 ce6:	04090103          	lb	sp,64(s2)
 cea:	0100                	addi	s0,sp,128
 cec:	3205                	addiw	tp,tp,-31
 cee:	0c090203          	lb	tp,192(s2)
 cf2:	0100                	addi	s0,sp,128
 cf4:	1405                	addi	s0,s0,-31
 cf6:	14090103          	lb	sp,320(s2)
 cfa:	0100                	addi	s0,sp,128
 cfc:	0e05                	addi	t3,t3,1
 cfe:	10090003          	lb	zero,256(s2)
 d02:	0100                	addi	s0,sp,128
 d04:	1605                	addi	a2,a2,-31
 d06:	08090103          	lb	sp,128(s2)
 d0a:	0100                	addi	s0,sp,128
 d0c:	2005                	0x2005
 d0e:	0c090003          	lb	zero,192(s2)
 d12:	0100                	addi	s0,sp,128
 d14:	1405                	addi	s0,s0,-31
 d16:	08090003          	lb	zero,128(s2)
 d1a:	0100                	addi	s0,sp,128
 d1c:	0505                	addi	a0,a0,1
 d1e:	1c090203          	lb	tp,448(s2)
 d22:	0100                	addi	s0,sp,128
 d24:	0105                	addi	sp,sp,1
 d26:	04090103          	lb	sp,64(s2)
 d2a:	0100                	addi	s0,sp,128
 d2c:	1e05                	addi	t3,t3,-31
 d2e:	0c090303          	lb	t1,192(s2)
 d32:	0100                	addi	s0,sp,128
 d34:	0505                	addi	a0,a0,1
 d36:	14090103          	lb	sp,320(s2)
 d3a:	0100                	addi	s0,sp,128
 d3c:	14090103          	lb	sp,320(s2)
 d40:	0100                	addi	s0,sp,128
 d42:	14090203          	lb	tp,320(s2)
 d46:	0100                	addi	s0,sp,128
 d48:	14090103          	lb	sp,320(s2)
 d4c:	0100                	addi	s0,sp,128
 d4e:	0e05                	addi	t3,t3,1
 d50:	14090303          	lb	t1,320(s2)
 d54:	0100                	addi	s0,sp,128
 d56:	0505                	addi	a0,a0,1
 d58:	04090003          	lb	zero,64(s2)
 d5c:	0100                	addi	s0,sp,128
 d5e:	0e05                	addi	t3,t3,1
 d60:	0200                	addi	s0,sp,256
 d62:	0304                	addi	s1,sp,384
 d64:	04090503          	lb	a0,64(s2)
 d68:	0100                	addi	s0,sp,128
 d6a:	2405                	addiw	s0,s0,1
 d6c:	0200                	addi	s0,sp,256
 d6e:	0304                	addi	s1,sp,384
 d70:	08090203          	lb	tp,128(s2)
 d74:	0100                	addi	s0,sp,128
 d76:	0905                	addi	s2,s2,1
 d78:	0200                	addi	s0,sp,256
 d7a:	0304                	addi	s1,sp,384
 d7c:	14090003          	lb	zero,320(s2)
 d80:	0100                	addi	s0,sp,128
 d82:	2205                	addiw	tp,tp,1
 d84:	0200                	addi	s0,sp,256
 d86:	0304                	addi	s1,sp,384
 d88:	0c090103          	lb	sp,192(s2)
 d8c:	0100                	addi	s0,sp,128
 d8e:	0905                	addi	s2,s2,1
 d90:	0200                	addi	s0,sp,256
 d92:	0304                	addi	s1,sp,384
 d94:	14090003          	lb	zero,320(s2)
 d98:	0100                	addi	s0,sp,128
 d9a:	2105                	addiw	sp,sp,1
 d9c:	0200                	addi	s0,sp,256
 d9e:	0304                	addi	s1,sp,384
 da0:	0c097803          	0xc097803
 da4:	0100                	addi	s0,sp,128
 da6:	0505                	addi	a0,a0,1
 da8:	0200                	addi	s0,sp,256
 daa:	0104                	addi	s1,sp,128
 dac:	0c090003          	lb	zero,192(s2)
 db0:	0100                	addi	s0,sp,128
 db2:	0105                	addi	sp,sp,1
 db4:	10090b03          	lb	s6,256(s2)
 db8:	0100                	addi	s0,sp,128
 dba:	1809                	addi	a6,a6,-30
 dbc:	0000                	unimp
 dbe:	0101                	addi	sp,sp,0

Disassembly of section .debug_info:

0000000000000000 <.debug_info>:
   0:	001e                	c.slli	zero,0x7
   2:	0000                	unimp
   4:	0002                	c.slli64	zero
   6:	0000                	unimp
   8:	0000                	unimp
   a:	0108                	addi	a0,sp,128
	...
  18:	0075                	c.nop	29
  1a:	0000                	unimp
  1c:	00a8                	addi	a0,sp,72
  1e:	0000                	unimp
  20:	8001                	c.srli64	s0
  22:	00d0                	addi	a2,sp,68
  24:	0000                	unimp
  26:	0004                	0x4
  28:	0012                	c.slli	zero,0x4
  2a:	0000                	unimp
  2c:	0108                	addi	a0,sp,128
  2e:	00bd                	addi	ra,ra,15
  30:	0000                	unimp
  32:	7c0c                	ld	a1,56(s0)
  34:	0001                	nop
  36:	7500                	ld	s0,40(a0)
  38:	0000                	unimp
  3a:	b800                	fsd	fs0,48(s0)
  3c:	00800003          	lb	zero,8(zero) # 8 <_start-0x7ffffff8>
  40:	0000                	unimp
  42:	5800                	lw	s0,48(s0)
  44:	0000                	unimp
  46:	0000                	unimp
  48:	0000                	unimp
  4a:	0f00                	addi	s0,sp,912
  4c:	000a                	c.slli	zero,0x2
  4e:	0200                	addi	s0,sp,256
  50:	0601                	addi	a2,a2,0
  52:	0170                	addi	a2,sp,140
  54:	0000                	unimp
  56:	0202                	c.slli64	tp
  58:	a705                	j	778 <_start-0x7ffff888>
  5a:	0001                	nop
  5c:	0300                	addi	s0,sp,384
  5e:	0504                	addi	s1,sp,640
  60:	6e69                	lui	t3,0x1a
  62:	0074                	addi	a3,sp,12
  64:	0802                	c.slli64	a6
  66:	8605                	srai	a2,a2,0x1
  68:	0001                	nop
  6a:	0400                	addi	s0,sp,512
  6c:	0166                	slli	sp,sp,0x19
  6e:	0000                	unimp
  70:	2e02                	fld	ft8,0(sp)
  72:	5518                	lw	a4,40(a0)
  74:	0000                	unimp
  76:	0200                	addi	s0,sp,256
  78:	0801                	addi	a6,a6,0
  7a:	016e                	slli	sp,sp,0x1b
  7c:	0000                	unimp
  7e:	0202                	c.slli64	tp
  80:	00019407          	0x19407
  84:	0200                	addi	s0,sp,256
  86:	0704                	addi	s1,sp,896
  88:	0159                	addi	sp,sp,22
  8a:	0000                	unimp
  8c:	0802                	c.slli64	a6
  8e:	00015407          	0x15407
  92:	0400                	addi	s0,sp,512
  94:	014a                	slli	sp,sp,0x12
  96:	0000                	unimp
  98:	5602                	lw	a2,32(sp)
  9a:	6a1a                	ld	s4,384(sp)
  9c:	0000                	unimp
  9e:	0500                	addi	s0,sp,640
  a0:	0049                	c.nop	18
  a2:	0000                	unimp
  a4:	008e                	slli	ra,ra,0x3
  a6:	0000                	unimp
  a8:	6a06                	ld	s4,64(sp)
  aa:	0000                	unimp
  ac:	ff00                	sd	s0,56(a4)
  ae:	b107000f          	0xb107000f
  b2:	0001                	nop
  b4:	0100                	addi	s0,sp,128
  b6:	1008                	addi	a0,sp,32
  b8:	007d                	c.nop	31
  ba:	0000                	unimp
  bc:	b408                	fsd	fa0,40(s0)
  be:	0000                	unimp
  c0:	0100                	addi	s0,sp,128
  c2:	060a                	slli	a2,a2,0x2
  c4:	03b8                	addi	a4,sp,456
  c6:	8000                	0x8000
  c8:	0000                	unimp
  ca:	0000                	unimp
  cc:	0058                	addi	a4,sp,4
  ce:	0000                	unimp
  d0:	0000                	unimp
  d2:	0000                	unimp
  d4:	9c01                	subw	s0,s0,s0
  d6:	4509                	li	a0,2
  d8:	0001                	nop
  da:	0100                	addi	s0,sp,128
  dc:	0f0c                	addi	a1,sp,912
  de:	0071                	c.nop	28
  e0:	0000                	unimp
  e2:	9102                	jalr	sp
  e4:	0968                	addi	a0,sp,156
  e6:	0000018f          	0x18f
  ea:	0d01                	addi	s10,s10,0
  ec:	0000710f          	0x710f
  f0:	0200                	addi	s0,sp,256
  f2:	6091                	lui	ra,0x4
  f4:	0000                	unimp
  f6:	0292                	slli	t0,t0,0x4
  f8:	0000                	unimp
  fa:	0004                	0x4
  fc:	0099                	addi	ra,ra,6
  fe:	0000                	unimp
 100:	0108                	addi	a0,sp,128
 102:	00bd                	addi	ra,ra,15
 104:	0000                	unimp
 106:	010c                	addi	a1,sp,128
 108:	0002                	c.slli64	zero
 10a:	7500                	ld	s0,40(a0)
 10c:	0000                	unimp
 10e:	1000                	addi	s0,sp,32
 110:	0004                	0x4
 112:	0080                	addi	s0,sp,64
 114:	0000                	unimp
 116:	2800                	fld	fs0,16(s0)
 118:	0004                	0x4
 11a:	0000                	unimp
 11c:	0000                	unimp
 11e:	b200                	fsd	fs0,32(a2)
 120:	000a                	c.slli	zero,0x2
 122:	0200                	addi	s0,sp,256
 124:	0601                	addi	a2,a2,0
 126:	0170                	addi	a2,sp,140
 128:	0000                	unimp
 12a:	0202                	c.slli64	tp
 12c:	a705                	j	84c <_start-0x7ffff7b4>
 12e:	0001                	nop
 130:	0300                	addi	s0,sp,384
 132:	0504                	addi	s1,sp,640
 134:	6e69                	lui	t3,0x1a
 136:	0074                	addi	a3,sp,12
 138:	0802                	c.slli64	a6
 13a:	8605                	srai	a2,a2,0x1
 13c:	0001                	nop
 13e:	0400                	addi	s0,sp,512
 140:	0166                	slli	sp,sp,0x19
 142:	0000                	unimp
 144:	2e02                	fld	ft8,0(sp)
 146:	5518                	lw	a4,40(a0)
 148:	0000                	unimp
 14a:	0200                	addi	s0,sp,256
 14c:	0801                	addi	a6,a6,0
 14e:	016e                	slli	sp,sp,0x1b
 150:	0000                	unimp
 152:	0202                	c.slli64	tp
 154:	00019407          	0x19407
 158:	0200                	addi	s0,sp,256
 15a:	0704                	addi	s1,sp,896
 15c:	0159                	addi	sp,sp,22
 15e:	0000                	unimp
 160:	c004                	sw	s1,0(s0)
 162:	0001                	nop
 164:	0200                	addi	s0,sp,256
 166:	00761937          	lui	s2,0x761
 16a:	0000                	unimp
 16c:	0802                	c.slli64	a6
 16e:	00015407          	0x15407
 172:	0400                	addi	s0,sp,512
 174:	014a                	slli	sp,sp,0x12
 176:	0000                	unimp
 178:	5602                	lw	a2,32(sp)
 17a:	761a                	ld	a2,416(sp)
 17c:	0000                	unimp
 17e:	0400                	addi	s0,sp,512
 180:	021c                	addi	a5,sp,256
 182:	0000                	unimp
 184:	76171803          	lh	a6,1889(a4) # ffffffffffffe761 <secret+0xffffffff7f3fe761>
 188:	0000                	unimp
 18a:	0500                	addi	s0,sp,640
 18c:	0089                	addi	ra,ra,2
 18e:	0000                	unimp
 190:	00ac                	addi	a1,sp,72
 192:	0000                	unimp
 194:	7606                	ld	a2,96(sp)
 196:	0000                	unimp
 198:	0300                	addi	s0,sp,384
 19a:	00007607          	0x7607
 19e:	ff00                	sd	s0,56(a4)
 1a0:	0001                	nop
 1a2:	7008                	ld	a0,32(s0)
 1a4:	0074                	addi	a3,sp,12
 1a6:	1401                	addi	s0,s0,-32
 1a8:	00009507          	0x9507
 1ac:	0000                	unimp
 1ae:	0910                	addi	a2,sp,144
 1b0:	00100003          	lb	zero,1(zero) # 1 <_start-0x7fffffff>
 1b4:	0080                	addi	s0,sp,64
 1b6:	0000                	unimp
 1b8:	0500                	addi	s0,sp,640
 1ba:	0049                	c.nop	18
 1bc:	0000                	unimp
 1be:	00ce                	slli	ra,ra,0x13
 1c0:	0000                	unimp
 1c2:	0009                	c.nop	2
 1c4:	f40a                	sd	sp,40(sp)
 1c6:	0001                	nop
 1c8:	0100                	addi	s0,sp,128
 1ca:	1031                	c.nop	-20
 1cc:	000000c3          	fmadd.s	ft1,ft0,ft0,ft0,rne
 1d0:	4905                	li	s2,1
 1d2:	0000                	unimp
 1d4:	f100                	sd	s0,32(a0)
 1d6:	0000                	unimp
 1d8:	0600                	addi	s0,sp,768
 1da:	0076                	c.slli	zero,0x1d
 1dc:	0000                	unimp
 1de:	00760707          	0x760707
 1e2:	0000                	unimp
 1e4:	0fff                	0xfff
 1e6:	0a00                	addi	s0,sp,272
 1e8:	01e0                	addi	s0,sp,204
 1ea:	0000                	unimp
 1ec:	3301                	addiw	t1,t1,-32
 1ee:	da10                	sw	a2,48(a2)
 1f0:	0000                	unimp
 1f2:	0500                	addi	s0,sp,640
 1f4:	0049                	c.nop	18
 1f6:	0000                	unimp
 1f8:	010e                	slli	sp,sp,0x3
 1fa:	0000                	unimp
 1fc:	00007607          	0x7607
 200:	ff00                	sd	s0,56(a4)
 202:	b10a000f          	0xb10a000f
 206:	0001                	nop
 208:	0100                	addi	s0,sp,128
 20a:	1034                	addi	a3,sp,40
 20c:	00fd                	addi	ra,ra,31
 20e:	0000                	unimp
 210:	0001fa0b          	0x1fa0b
 214:	0100                	addi	s0,sp,128
 216:	0686                	slli	a3,a3,0x1
 218:	0750                	addi	a2,sp,900
 21a:	8000                	0x8000
 21c:	0000                	unimp
 21e:	0000                	unimp
 220:	00e8                	addi	a0,sp,76
 222:	0000                	unimp
 224:	0000                	unimp
 226:	0000                	unimp
 228:	9c01                	subw	s0,s0,s0
 22a:	0176                	slli	sp,sp,0x1d
 22c:	0000                	unimp
 22e:	c90c                	sw	a1,16(a0)
 230:	0001                	nop
 232:	0100                	addi	s0,sp,128
 234:	1686                	slli	a3,a3,0x21
 236:	006a                	c.slli	zero,0x1a
 238:	0000                	unimp
 23a:	9102                	jalr	sp
 23c:	0d58                	addi	a4,sp,660
 23e:	020a                	slli	tp,tp,0x2
 240:	0000                	unimp
 242:	8d01                	sub	a0,a0,s0
 244:	6a0e                	ld	s4,192(sp)
 246:	0000                	unimp
 248:	0200                	addi	s0,sp,256
 24a:	6091                	lui	ra,0x4
 24c:	b40e                	fsd	ft3,40(sp)
 24e:	00800007          	0x800007
 252:	0000                	unimp
 254:	6c00                	ld	s0,24(s0)
 256:	0000                	unimp
 258:	0000                	unimp
 25a:	0000                	unimp
 25c:	0f00                	addi	s0,sp,912
 25e:	0069                	c.nop	26
 260:	8e01                	sub	a2,a2,s0
 262:	3b0e                	fld	fs6,224(sp)
 264:	0000                	unimp
 266:	0200                	addi	s0,sp,256
 268:	6c91                	lui	s9,0x4
 26a:	0000                	unimp
 26c:	0f10                	addi	a2,sp,912
 26e:	0002                	c.slli64	zero
 270:	0100                	addi	s0,sp,128
 272:	067e                	slli	a2,a2,0x1f
 274:	06e4                	addi	s1,sp,844
 276:	8000                	0x8000
 278:	0000                	unimp
 27a:	0000                	unimp
 27c:	006c                	addi	a1,sp,12
 27e:	0000                	unimp
 280:	0000                	unimp
 282:	0000                	unimp
 284:	9c01                	subw	s0,s0,s0
 286:	01c2                	slli	gp,gp,0x10
 288:	0000                	unimp
 28a:	d00c                	sw	a1,32(s0)
 28c:	0001                	nop
 28e:	0100                	addi	s0,sp,128
 290:	1d7e                	slli	s10,s10,0x3f
 292:	007d                	c.nop	31
 294:	0000                	unimp
 296:	9102                	jalr	sp
 298:	0c58                	addi	a4,sp,532
 29a:	020a                	slli	tp,tp,0x2
 29c:	0000                	unimp
 29e:	7e01                	lui	t3,0xfffe0
 2a0:	6a2c                	ld	a1,80(a2)
 2a2:	0000                	unimp
 2a4:	0200                	addi	s0,sp,256
 2a6:	5091                	li	ra,-28
 2a8:	7864690f          	0x7864690f
 2ac:	0100                	addi	s0,sp,128
 2ae:	0e7f                	0xe7f
 2b0:	006a                	c.slli	zero,0x1a
 2b2:	0000                	unimp
 2b4:	9102                	jalr	sp
 2b6:	0068                	addi	a0,sp,12
 2b8:	e510                	sd	a2,8(a0)
 2ba:	0001                	nop
 2bc:	0100                	addi	s0,sp,128
 2be:	06800677          	0x6800677
 2c2:	8000                	0x8000
 2c4:	0000                	unimp
 2c6:	0000                	unimp
 2c8:	0064                	addi	s1,sp,12
 2ca:	0000                	unimp
 2cc:	0000                	unimp
 2ce:	0000                	unimp
 2d0:	9c01                	subw	s0,s0,s0
 2d2:	020e                	slli	tp,tp,0x3
 2d4:	0000                	unimp
 2d6:	d00c                	sw	a1,32(s0)
 2d8:	0001                	nop
 2da:	0100                	addi	s0,sp,128
 2dc:	007d1f77          	0x7d1f77
 2e0:	0000                	unimp
 2e2:	9102                	jalr	sp
 2e4:	0c58                	addi	a4,sp,532
 2e6:	020a                	slli	tp,tp,0x2
 2e8:	0000                	unimp
 2ea:	7701                	lui	a4,0xfffe0
 2ec:	6a2e                	ld	s4,200(sp)
 2ee:	0000                	unimp
 2f0:	0200                	addi	s0,sp,256
 2f2:	5091                	li	ra,-28
 2f4:	7864690f          	0x7864690f
 2f8:	0100                	addi	s0,sp,128
 2fa:	0e78                	addi	a4,sp,796
 2fc:	006a                	c.slli	zero,0x1a
 2fe:	0000                	unimp
 300:	9102                	jalr	sp
 302:	0068                	addi	a0,sp,12
 304:	b811                	j	fffffffffffffb18 <secret+0xffffffff7f3ffb18>
 306:	0001                	nop
 308:	0100                	addi	s0,sp,128
 30a:	0645                	addi	a2,a2,17
 30c:	045c                	addi	a5,sp,516
 30e:	8000                	0x8000
 310:	0000                	unimp
 312:	0000                	unimp
 314:	0224                	addi	s1,sp,264
 316:	0000                	unimp
 318:	0000                	unimp
 31a:	0000                	unimp
 31c:	9c01                	subw	s0,s0,s0
 31e:	025a                	slli	tp,tp,0x16
 320:	0000                	unimp
 322:	c90d                	beqz	a0,354 <_start-0x7ffffcac>
 324:	0001                	nop
 326:	0100                	addi	s0,sp,128
 328:	0e5f 006a 0000      	0x6a0e5f
 32e:	9102                	jalr	sp
 330:	0d68                	addi	a0,sp,668
 332:	0229                	addi	tp,tp,10
 334:	0000                	unimp
 336:	6201                	0x6201
 338:	00007d0f          	0x7d0f
 33c:	0200                	addi	s0,sp,256
 33e:	6091                	lui	ra,0x4
 340:	d50d                	beqz	a0,26a <_start-0x7ffffd96>
 342:	0001                	nop
 344:	0100                	addi	s0,sp,128
 346:	007d0f63          	beq	s10,t2,364 <_start-0x7ffffc9c>
 34a:	0000                	unimp
 34c:	9102                	jalr	sp
 34e:	0058                	addi	a4,sp,4
 350:	2212                	fld	ft4,256(sp)
 352:	0002                	c.slli64	zero
 354:	0100                	addi	s0,sp,128
 356:	1140                	addi	s0,sp,164
 358:	006a                	c.slli	zero,0x1a
 35a:	0000                	unimp
 35c:	0410                	addi	a2,sp,512
 35e:	8000                	0x8000
 360:	0000                	unimp
 362:	0000                	unimp
 364:	004c                	addi	a1,sp,4
 366:	0000                	unimp
 368:	0000                	unimp
 36a:	0000                	unimp
 36c:	9c01                	subw	s0,s0,s0
 36e:	01007813          	andi	a6,zero,16
 372:	2140                	fld	fs0,128(a0)
 374:	006a                	c.slli	zero,0x1a
 376:	0000                	unimp
 378:	9102                	jalr	sp
 37a:	0f58                	addi	a4,sp,916
 37c:	6962                	ld	s2,24(sp)
 37e:	0074                	addi	a3,sp,12
 380:	4101                	li	sp,0
 382:	6a0e                	ld	s4,192(sp)
 384:	0000                	unimp
 386:	0200                	addi	s0,sp,256
 388:	6891                	lui	a7,0x4
	...

Disassembly of section .debug_abbrev:

0000000000000000 <.debug_abbrev>:
   0:	1101                	addi	sp,sp,-32
   2:	1000                	addi	s0,sp,32
   4:	5506                	lw	a0,96(sp)
   6:	0306                	slli	t1,t1,0x1
   8:	1b0e                	slli	s6,s6,0x23
   a:	250e                	fld	fa0,192(sp)
   c:	130e                	slli	t1,t1,0x23
   e:	0005                	c.nop	1
  10:	0000                	unimp
  12:	1101                	addi	sp,sp,-32
  14:	2501                	sext.w	a0,a0
  16:	130e                	slli	t1,t1,0x23
  18:	1b0e030b          	0x1b0e030b
  1c:	110e                	slli	sp,sp,0x23
  1e:	1201                	addi	tp,tp,-32
  20:	00171007          	0x171007
  24:	0200                	addi	s0,sp,256
  26:	0024                	addi	s1,sp,8
  28:	0b3e0b0b          	0xb3e0b0b
  2c:	00000e03          	lb	t3,0(zero) # 0 <_start-0x80000000>
  30:	0b002403          	lw	s0,176(zero) # b0 <_start-0x7fffff50>
  34:	030b3e0b          	0x30b3e0b
  38:	0008                	0x8
  3a:	0400                	addi	s0,sp,512
  3c:	0016                	c.slli	zero,0x5
  3e:	0b3a0e03          	lb	t3,179(s4)
  42:	0b390b3b          	0xb390b3b
  46:	1349                	addi	t1,t1,-14
  48:	0000                	unimp
  4a:	0105                	addi	sp,sp,1
  4c:	4901                	li	s2,0
  4e:	00130113          	addi	sp,t1,1 # ffffffffffffd001 <secret+0xffffffff7f3fd001>
  52:	0600                	addi	s0,sp,768
  54:	0021                	c.nop	8
  56:	1349                	addi	t1,t1,-14
  58:	0000052f          	0x52f
  5c:	03003407          	fld	fs0,48(zero) # 30 <_start-0x7fffffd0>
  60:	3a0e                	fld	fs4,224(sp)
  62:	390b3b0b          	0x390b3b0b
  66:	3f13490b          	0x3f13490b
  6a:	3c19                	addiw	s8,s8,-26
  6c:	0019                	c.nop	6
  6e:	0800                	addi	s0,sp,16
  70:	012e                	slli	sp,sp,0xb
  72:	0e03193f 0b3b0b3a 	0xb3b0b3a0e03193f
  7a:	0b39                	addi	s6,s6,14
  7c:	0111                	addi	sp,sp,4
  7e:	0712                	slli	a4,a4,0x4
  80:	1840                	addi	s0,sp,52
  82:	00194297          	auipc	t0,0x194
  86:	0900                	addi	s0,sp,144
  88:	0034                	addi	a3,sp,8
  8a:	0b3a0e03          	lb	t3,179(s4)
  8e:	0b390b3b          	0xb390b3b
  92:	1349                	addi	t1,t1,-14
  94:	1802                	slli	a6,a6,0x20
  96:	0000                	unimp
  98:	0100                	addi	s0,sp,128
  9a:	0111                	addi	sp,sp,4
  9c:	0e25                	addi	t3,t3,9
  9e:	0e030b13          	addi	s6,t1,224
  a2:	01110e1b          	addiw	t3,sp,17
  a6:	0712                	slli	a4,a4,0x4
  a8:	1710                	addi	a2,sp,928
  aa:	0000                	unimp
  ac:	2402                	fld	fs0,0(sp)
  ae:	0b00                	addi	s0,sp,400
  b0:	030b3e0b          	0x30b3e0b
  b4:	000e                	c.slli	zero,0x3
  b6:	0300                	addi	s0,sp,384
  b8:	0024                	addi	s1,sp,8
  ba:	0b3e0b0b          	0xb3e0b0b
  be:	00000803          	lb	a6,0(zero) # 0 <_start-0x80000000>
  c2:	1604                	addi	s1,sp,800
  c4:	0300                	addi	s0,sp,384
  c6:	3a0e                	fld	fs4,224(sp)
  c8:	390b3b0b          	0x390b3b0b
  cc:	0013490b          	0x13490b
  d0:	0500                	addi	s0,sp,640
  d2:	0101                	addi	sp,sp,0
  d4:	1349                	addi	t1,t1,-14
  d6:	1301                	addi	t1,t1,-32
  d8:	0000                	unimp
  da:	2106                	fld	ft2,64(sp)
  dc:	4900                	lw	s0,16(a0)
  de:	000b2f13          	slti	t5,s6,0
  e2:	0700                	addi	s0,sp,896
  e4:	0021                	c.nop	8
  e6:	1349                	addi	t1,t1,-14
  e8:	0000052f          	0x52f
  ec:	3408                	fld	fa0,40(s0)
  ee:	0300                	addi	s0,sp,384
  f0:	3a08                	fld	fa0,48(a2)
  f2:	390b3b0b          	0x390b3b0b
  f6:	3f13490b          	0x3f13490b
  fa:	8819                	andi	s0,s0,6
  fc:	0501                	addi	a0,a0,0
  fe:	1802                	slli	a6,a6,0x20
 100:	0000                	unimp
 102:	2109                	addiw	sp,sp,2
 104:	0000                	unimp
 106:	0a00                	addi	s0,sp,272
 108:	0034                	addi	a3,sp,8
 10a:	0b3a0e03          	lb	t3,179(s4)
 10e:	0b390b3b          	0xb390b3b
 112:	1349                	addi	t1,t1,-14
 114:	193c193f 2e0b0000 	0x2e0b0000193c193f
 11c:	3f01                	addiw	t5,t5,-32
 11e:	0319                	addi	t1,t1,6
 120:	3a0e                	fld	fs4,224(sp)
 122:	390b3b0b          	0x390b3b0b
 126:	1119270b          	0x1119270b
 12a:	1201                	addi	tp,tp,-32
 12c:	96184007          	flq	ft0,-1695(a6) # 18961 <_start-0x7ffe769f>
 130:	1942                	slli	s2,s2,0x30
 132:	1301                	addi	t1,t1,-32
 134:	0000                	unimp
 136:	050c                	addi	a1,sp,640
 138:	0300                	addi	s0,sp,384
 13a:	3a0e                	fld	fs4,224(sp)
 13c:	390b3b0b          	0x390b3b0b
 140:	0213490b          	0x213490b
 144:	0018                	0x18
 146:	0d00                	addi	s0,sp,656
 148:	0034                	addi	a3,sp,8
 14a:	0b3a0e03          	lb	t3,179(s4)
 14e:	0b390b3b          	0xb390b3b
 152:	1349                	addi	t1,t1,-14
 154:	1802                	slli	a6,a6,0x20
 156:	0000                	unimp
 158:	0b0e                	slli	s6,s6,0x3
 15a:	1101                	addi	sp,sp,-32
 15c:	1201                	addi	tp,tp,-32
 15e:	0f000007          	0xf000007
 162:	0034                	addi	a3,sp,8
 164:	0b3a0803          	lb	a6,179(s4)
 168:	0b390b3b          	0xb390b3b
 16c:	1349                	addi	t1,t1,-14
 16e:	1802                	slli	a6,a6,0x20
 170:	0000                	unimp
 172:	2e10                	fld	fa2,24(a2)
 174:	3f01                	addiw	t5,t5,-32
 176:	0319                	addi	t1,t1,6
 178:	3a0e                	fld	fs4,224(sp)
 17a:	390b3b0b          	0x390b3b0b
 17e:	1119270b          	0x1119270b
 182:	1201                	addi	tp,tp,-32
 184:	97184007          	flq	ft0,-1679(a6)
 188:	1942                	slli	s2,s2,0x30
 18a:	1301                	addi	t1,t1,-32
 18c:	0000                	unimp
 18e:	2e11                	addiw	t3,t3,4
 190:	3f01                	addiw	t5,t5,-32
 192:	0319                	addi	t1,t1,6
 194:	3a0e                	fld	fs4,224(sp)
 196:	390b3b0b          	0x390b3b0b
 19a:	1201110b          	0x1201110b
 19e:	96184007          	flq	ft0,-1695(a6)
 1a2:	1942                	slli	s2,s2,0x30
 1a4:	1301                	addi	t1,t1,-32
 1a6:	0000                	unimp
 1a8:	2e12                	fld	ft8,256(sp)
 1aa:	0301                	addi	t1,t1,0
 1ac:	3a0e                	fld	fs4,224(sp)
 1ae:	390b3b0b          	0x390b3b0b
 1b2:	4919270b          	0x4919270b
 1b6:	12011113          	0x12011113
 1ba:	97184007          	flq	ft0,-1679(a6)
 1be:	1942                	slli	s2,s2,0x30
 1c0:	0000                	unimp
 1c2:	03000513          	li	a0,48
 1c6:	3a08                	fld	fa0,48(a2)
 1c8:	390b3b0b          	0x390b3b0b
 1cc:	0213490b          	0x213490b
 1d0:	0018                	0x18
	...

Disassembly of section .debug_aranges:

0000000000000000 <.debug_aranges>:
   0:	006c                	addi	a1,sp,12
   2:	0000                	unimp
   4:	0002                	c.slli64	zero
   6:	0000                	unimp
   8:	0000                	unimp
   a:	0008                	0x8
   c:	0000                	unimp
   e:	0000                	unimp
  10:	0000                	unimp
  12:	8000                	0x8000
  14:	0000                	unimp
  16:	0000                	unimp
  18:	03b8                	addi	a4,sp,456
	...
  22:	8020                	0x8020
  24:	0000                	unimp
  26:	0000                	unimp
  28:	00b4                	addi	a3,sp,72
	...
  32:	8040                	0x8040
  34:	0000                	unimp
  36:	0000                	unimp
  38:	00e4                	addi	s1,sp,76
	...
  42:	8060                	0x8060
  44:	0000                	unimp
  46:	0000                	unimp
  48:	10c0                	addi	s0,sp,100
	...
  52:	8080                	0x8080
  54:	0000                	unimp
  56:	0000                	unimp
  58:	0004                	0x4
	...
  6e:	0000                	unimp
  70:	002c                	addi	a1,sp,8
  72:	0000                	unimp
  74:	0002                	c.slli64	zero
  76:	0022                	c.slli	zero,0x8
  78:	0000                	unimp
  7a:	0008                	0x8
  7c:	0000                	unimp
  7e:	0000                	unimp
  80:	03b8                	addi	a4,sp,456
  82:	8000                	0x8000
  84:	0000                	unimp
  86:	0000                	unimp
  88:	0058                	addi	a4,sp,4
	...
  9e:	0000                	unimp
  a0:	002c                	addi	a1,sp,8
  a2:	0000                	unimp
  a4:	0002                	c.slli64	zero
  a6:	00f6                	slli	ra,ra,0x1d
  a8:	0000                	unimp
  aa:	0008                	0x8
  ac:	0000                	unimp
  ae:	0000                	unimp
  b0:	0410                	addi	a2,sp,512
  b2:	8000                	0x8000
  b4:	0000                	unimp
  b6:	0000                	unimp
  b8:	0428                	addi	a0,sp,520
	...

Disassembly of section .debug_str:

0000000000000000 <.debug_str>:
   0:	6f6f722f          	0x6f6f722f
   4:	2f74                	fld	fa3,216(a4)
   6:	63657073          	csrci	0x636,10
   a:	6f64                	ld	s1,216(a4)
   c:	726f7463          	bgeu	t5,t1,734 <_start-0x7ffff8cc>
  10:	7a75462f          	0x7a75462f
  14:	657a                	ld	a0,408(sp)
  16:	2f72                	fld	ft10,280(sp)
  18:	63657073          	csrci	0x636,10
  1c:	6f64                	ld	s1,216(a4)
  1e:	726f7463          	bgeu	t5,t1,746 <_start-0x7ffff8ba>
  22:	74756f2f          	0x74756f2f
  26:	7570                	ld	a2,232(a0)
  28:	2f74                	fld	fa3,216(a4)
  2a:	7274                	ld	a3,224(a2)
  2c:	6769                	lui	a4,0x1a
  2e:	73726567          	0x73726567
  32:	5f33742f          	0x5f33742f
  36:	3255                	addiw	tp,tp,-11
  38:	54415f53          	0x54415f53
  3c:	4154                	lw	a3,4(a0)
  3e:	52454b43          	fmadd.d	fs6,fa0,ft4,fa0,rmm
  42:	345f 3431 3431      	0x34313431345f
  48:	3330                	fld	fa2,96(a4)
  4a:	3736                	fld	fa4,360(sp)
  4c:	5f30                	lw	a2,120(a4)
  4e:	454d                	li	a0,19
  50:	5f4d                	li	t5,-13
  52:	5242                	lw	tp,48(sp)
  54:	305f 3878 3630      	0x36303878305f
  5a:	3030                	fld	fa2,96(s0)
  5c:	3330                	fld	fa2,96(a4)
  5e:	5f34                	lw	a3,120(a4)
  60:	7830                	ld	a2,112(s0)
  62:	3038                	fld	fa4,96(s0)
  64:	3036                	fld	ft0,360(sp)
  66:	3030                	fld	fa2,96(s0)
  68:	3461                	addiw	s0,s0,-8
  6a:	625f 6567 315f      	0x315f6567625f
  70:	3031                	0x3031
  72:	532e                	lw	t1,232(sp)
  74:	2f00                	fld	fs0,24(a4)
  76:	6f72                	ld	t5,280(sp)
  78:	732f746f          	jal	s0,f77aa <_start-0x7ff08856>
  7c:	6570                	ld	a2,200(a0)
  7e:	636f6463          	bltu	t5,s6,6a6 <_start-0x7ffff95a>
  82:	6f74                	ld	a3,216(a4)
  84:	2f72                	fld	ft10,280(sp)
  86:	7546                	ld	a0,112(sp)
  88:	7a7a                	ld	s4,440(sp)
  8a:	7265                	lui	tp,0xffff9
  8c:	6570732f          	0x6570732f
  90:	636f6463          	bltu	t5,s6,6b8 <_start-0x7ffff948>
  94:	6f74                	ld	a3,216(a4)
  96:	2f72                	fld	ft10,280(sp)
  98:	7074756f          	jal	a0,47f9e <_start-0x7ffb8062>
  9c:	7475                	lui	s0,0xffffd
  9e:	6d65542f          	0x6d65542f
  a2:	6c70                	ld	a2,216(s0)
  a4:	7461                	lui	s0,0xffff8
  a6:	0065                	c.nop	25
  a8:	20554e47          	fmsub.s	ft8,fa0,ft5,ft4,rmm
  ac:	5341                	li	t1,-16
  ae:	3220                	fld	fs0,96(a2)
  b0:	332e                	fld	ft6,232(sp)
  b2:	0034                	addi	a3,sp,8
  b4:	6d70                	ld	a2,216(a0)
  b6:	5f70                	lw	a2,124(a4)
  b8:	6f62                	ld	t5,24(sp)
  ba:	4700746f          	jal	s0,752a <_start-0x7fff8ad6>
  be:	554e                	lw	a0,240(sp)
  c0:	4320                	lw	s0,64(a4)
  c2:	3939                	addiw	s2,s2,-18
  c4:	3920                	fld	fs0,112(a0)
  c6:	332e                	fld	ft6,232(sp)
  c8:	302e                	fld	ft0,232(sp)
  ca:	2d20                	fld	fs0,88(a0)
  cc:	636d                	lui	t1,0x1b
  ce:	6f6d                	lui	t5,0x1b
  d0:	6564                	ld	s1,200(a0)
  d2:	3d6c                	fld	fa1,248(a0)
  d4:	656d                	lui	a0,0x1b
  d6:	6164                	ld	s1,192(a0)
  d8:	796e                	ld	s2,248(sp)
  da:	2d20                	fld	fs0,88(a0)
  dc:	616d                	addi	sp,sp,240
  de:	6372                	ld	t1,280(sp)
  e0:	3d68                	fld	fa0,248(a0)
  e2:	7672                	ld	a2,312(sp)
  e4:	3436                	fld	fs0,360(sp)
  e6:	6d2d2067          	0x6d2d2067
  ea:	6261                	lui	tp,0x18
  ec:	3d69                	addiw	s10,s10,-6
  ee:	706c                	ld	a1,224(s0)
  f0:	3436                	fld	fs0,360(sp)
  f2:	2d20                	fld	fs0,88(a0)
  f4:	4f2d2067          	0x4f2d2067
  f8:	2030                	fld	fa2,64(s0)
  fa:	732d                	lui	t1,0xfffeb
  fc:	6474                	ld	a3,200(s0)
  fe:	673d                	lui	a4,0xf
 100:	756e                	ld	a0,248(sp)
 102:	3939                	addiw	s2,s2,-18
 104:	2d20                	fld	fs0,88(a0)
 106:	6666                	ld	a2,88(sp)
 108:	6572                	ld	a0,280(sp)
 10a:	7365                	lui	t1,0xffff9
 10c:	6174                	ld	a3,192(a0)
 10e:	646e                	ld	s0,216(sp)
 110:	6e69                	lui	t3,0x1a
 112:	662d2067          	0x662d2067
 116:	6976                	ld	s2,344(sp)
 118:	69626973          	csrrsi	s2,0x696,4
 11c:	696c                	ld	a1,208(a0)
 11e:	7974                	ld	a3,240(a0)
 120:	683d                	lui	a6,0xf
 122:	6469                	lui	s0,0x1a
 124:	6564                	ld	s1,200(a0)
 126:	206e                	fld	ft0,216(sp)
 128:	662d                	lui	a2,0xb
 12a:	6f6e                	ld	t5,216(sp)
 12c:	7a2d                	lui	s4,0xfffeb
 12e:	7265                	lui	tp,0xffff9
 130:	6e692d6f          	jal	s10,92816 <_start-0x7ff6d7ea>
 134:	7469                	lui	s0,0xffffa
 136:	6169                	addi	sp,sp,208
 138:	696c                	ld	a1,208(a0)
 13a:	657a                	ld	a0,408(sp)
 13c:	2d64                	fld	fs1,216(a0)
 13e:	6e69                	lui	t3,0x1a
 140:	622d                	lui	tp,0xb
 142:	70007373          	csrrci	t1,0x700,0
 146:	706d                	c.lui	zero,0xffffb
 148:	69750063          	beq	a0,s7,7c8 <_start-0x7ffff838>
 14c:	746e                	ld	s0,248(sp)
 14e:	7470                	ld	a2,232(s0)
 150:	5f72                	lw	t5,60(sp)
 152:	0074                	addi	a3,sp,12
 154:	6f6c                	ld	a1,216(a4)
 156:	676e                	ld	a4,216(sp)
 158:	7520                	ld	s0,104(a0)
 15a:	736e                	ld	t1,248(sp)
 15c:	6769                	lui	a4,0x1a
 15e:	656e                	ld	a0,216(sp)
 160:	2064                	fld	fs1,192(s0)
 162:	6e69                	lui	t3,0x1a
 164:	0074                	addi	a3,sp,12
 166:	6975                	lui	s2,0x1d
 168:	746e                	ld	s0,248(sp)
 16a:	5f38                	lw	a4,120(a4)
 16c:	0074                	addi	a3,sp,12
 16e:	6e75                	lui	t3,0x1d
 170:	6e676973          	csrrsi	s2,0x6e6,14
 174:	6465                	lui	s0,0x19
 176:	6320                	ld	s0,64(a4)
 178:	6168                	ld	a0,192(a0)
 17a:	0072                	c.slli	zero,0x1c
 17c:	2f637273          	csrrci	tp,0x2f6,6
 180:	6d70                	ld	a2,216(a0)
 182:	2e70                	fld	fa2,216(a2)
 184:	6f6c0063          	beq	s8,s6,864 <_start-0x7ffff79c>
 188:	676e                	ld	a4,216(sp)
 18a:	6920                	ld	s0,80(a0)
 18c:	746e                	ld	s0,248(sp)
 18e:	7000                	ld	s0,32(s0)
 190:	706d                	c.lui	zero,0xffffb
 192:	0061                	c.nop	24
 194:	726f6873          	csrrsi	a6,0x726,30
 198:	2074                	fld	fa3,192(s0)
 19a:	6e75                	lui	t3,0x1d
 19c:	6e676973          	csrrsi	s2,0x6e6,14
 1a0:	6465                	lui	s0,0x19
 1a2:	6920                	ld	s0,80(a0)
 1a4:	746e                	ld	s0,248(sp)
 1a6:	7300                	ld	s0,32(a4)
 1a8:	6f68                	ld	a0,216(a4)
 1aa:	7472                	ld	s0,312(sp)
 1ac:	6920                	ld	s0,80(a0)
 1ae:	746e                	ld	s0,248(sp)
 1b0:	7300                	ld	s0,32(a4)
 1b2:	6365                	lui	t1,0x19
 1b4:	6572                	ld	a0,280(sp)
 1b6:	0074                	addi	a3,sp,12
 1b8:	6d76                	ld	s10,344(sp)
 1ba:	625f 6f6f 0074      	0x746f6f625f
 1c0:	6975                	lui	s2,0x1d
 1c2:	746e                	ld	s0,248(sp)
 1c4:	3436                	fld	fs0,360(sp)
 1c6:	745f 7200 6e61      	0x6e617200745f
 1cc:	6f64                	ld	s1,216(a4)
 1ce:	006d                	c.nop	27
 1d0:	6461                	lui	s0,0x18
 1d2:	7264                	ld	s1,224(a2)
 1d4:	7300                	ld	s0,32(a4)
 1d6:	7461                	lui	s0,0xffff8
 1d8:	5f70                	lw	a2,124(a4)
 1da:	6176                	ld	sp,344(sp)
 1dc:	756c                	ld	a1,232(a0)
 1de:	0065                	c.nop	25
 1e0:	6164                	ld	s1,192(a0)
 1e2:	6174                	ld	a3,192(a0)
 1e4:	7300                	ld	s0,32(a4)
 1e6:	7465                	lui	s0,0xffff9
 1e8:	705f 6574 615f      	0x615f6574705f
 1ee:	7474                	ld	a3,232(s0)
 1f0:	6361                	lui	t1,0x18
 1f2:	7073006b          	0x7073006b
 1f6:	6f64                	ld	s1,216(a4)
 1f8:	6f630063          	beq	t1,s6,8d8 <_start-0x7ffff728>
 1fc:	666e                	ld	a2,216(sp)
 1fe:	6769                	lui	a4,0x1a
 200:	7300                	ld	s0,32(a4)
 202:	6372                	ld	t1,280(sp)
 204:	2e6d762f          	0x2e6d762f
 208:	6c660063          	beq	a2,t1,8c8 <_start-0x7ffff738>
 20c:	6761                	lui	a4,0x18
 20e:	7300                	ld	s0,32(a4)
 210:	7465                	lui	s0,0xffff9
 212:	705f 6574 755f      	0x755f6574705f
 218:	00726573          	csrrsi	a0,0x7,4
 21c:	7470                	ld	a2,232(s0)
 21e:	5f65                	li	t5,-7
 220:	0074                	addi	a3,sp,12
 222:	666c                	ld	a1,200(a2)
 224:	33367273          	csrrci	tp,mhpmevent19,12
 228:	7600                	ld	s0,40(a2)
 22a:	5f6d                	li	t5,-5
 22c:	696f6863          	bltu	t5,s6,8bc <_start-0x7ffff744>
 230:	          	bltu	zero,zero,23a <_start-0x7ffffdc6>

Disassembly of section .debug_ranges:

0000000000000000 <.debug_ranges>:
   0:	ffff                	0xffff
   2:	ffff                	0xffff
   4:	ffff                	0xffff
   6:	ffff                	0xffff
	...
  10:	0000                	unimp
  12:	8000                	0x8000
  14:	0000                	unimp
  16:	0000                	unimp
  18:	03b8                	addi	a4,sp,456
  1a:	8000                	0x8000
  1c:	0000                	unimp
  1e:	0000                	unimp
  20:	0000                	unimp
  22:	8020                	0x8020
  24:	0000                	unimp
  26:	0000                	unimp
  28:	00b4                	addi	a3,sp,72
  2a:	8020                	0x8020
  2c:	0000                	unimp
  2e:	0000                	unimp
  30:	0000                	unimp
  32:	8040                	0x8040
  34:	0000                	unimp
  36:	0000                	unimp
  38:	00e4                	addi	s1,sp,76
  3a:	8040                	0x8040
  3c:	0000                	unimp
  3e:	0000                	unimp
  40:	0000                	unimp
  42:	8060                	0x8060
  44:	0000                	unimp
  46:	0000                	unimp
  48:	10c0                	addi	s0,sp,100
  4a:	8060                	0x8060
  4c:	0000                	unimp
  4e:	0000                	unimp
  50:	0000                	unimp
  52:	8080                	0x8080
  54:	0000                	unimp
  56:	0000                	unimp
  58:	0004                	0x4
  5a:	8080                	0x8080
	...

Disassembly of section .debug_frame:

0000000000000000 <.debug_frame>:
   0:	000c                	0xc
   2:	0000                	unimp
   4:	ffff                	0xffff
   6:	ffff                	0xffff
   8:	7c010003          	lb	zero,1984(sp)
   c:	0d01                	addi	s10,s10,0
   e:	0002                	c.slli64	zero
  10:	002c                	addi	a1,sp,8
  12:	0000                	unimp
  14:	0000                	unimp
  16:	0000                	unimp
  18:	03b8                	addi	a4,sp,456
  1a:	8000                	0x8000
  1c:	0000                	unimp
  1e:	0000                	unimp
  20:	0058                	addi	a4,sp,4
  22:	0000                	unimp
  24:	0000                	unimp
  26:	0000                	unimp
  28:	0e44                	addi	s1,sp,788
  2a:	4420                	lw	s0,72(s0)
  2c:	0288                	addi	a0,sp,320
  2e:	0c44                	addi	s1,sp,532
  30:	0008                	0x8
  32:	4402                	lw	s0,0(sp)
  34:	0cc8                	addi	a0,sp,596
  36:	2002                	fld	ft0,0(sp)
  38:	0e44                	addi	s1,sp,788
  3a:	0000                	unimp
  3c:	0000                	unimp
  3e:	0000                	unimp
  40:	000c                	0xc
  42:	0000                	unimp
  44:	ffff                	0xffff
  46:	ffff                	0xffff
  48:	7c010003          	lb	zero,1984(sp)
  4c:	0d01                	addi	s10,s10,0
  4e:	0002                	c.slli64	zero
  50:	002c                	addi	a1,sp,8
  52:	0000                	unimp
  54:	0040                	addi	s0,sp,4
  56:	0000                	unimp
  58:	0410                	addi	a2,sp,512
  5a:	8000                	0x8000
  5c:	0000                	unimp
  5e:	0000                	unimp
  60:	004c                	addi	a1,sp,4
  62:	0000                	unimp
  64:	0000                	unimp
  66:	0000                	unimp
  68:	0e44                	addi	s1,sp,788
  6a:	4430                	lw	a2,72(s0)
  6c:	0288                	addi	a0,sp,320
  6e:	0c44                	addi	s1,sp,532
  70:	0008                	0x8
  72:	c878                	sw	a4,84(s0)
  74:	020c                	addi	a1,sp,256
  76:	4430                	lw	a2,72(s0)
  78:	000e                	c.slli	zero,0x3
  7a:	0000                	unimp
  7c:	0000                	unimp
  7e:	0000                	unimp
  80:	002c                	addi	a1,sp,8
  82:	0000                	unimp
  84:	0040                	addi	s0,sp,4
  86:	0000                	unimp
  88:	045c                	addi	a5,sp,516
  8a:	8000                	0x8000
  8c:	0000                	unimp
  8e:	0000                	unimp
  90:	0224                	addi	s1,sp,264
  92:	0000                	unimp
  94:	0000                	unimp
  96:	0000                	unimp
  98:	0e44                	addi	s1,sp,788
  9a:	4830                	lw	a2,80(s0)
  9c:	0281                	addi	t0,t0,0
  9e:	0488                	addi	a0,sp,576
  a0:	0c44                	addi	s1,sp,532
  a2:	0008                	0x8
  a4:	c1020803          	lb	a6,-1008(tp) # ac10 <_start-0x7fff53f0>
  a8:	c844                	sw	s1,20(s0)
  aa:	020c                	addi	a1,sp,256
  ac:	4430                	lw	a2,72(s0)
  ae:	000e                	c.slli	zero,0x3
  b0:	002c                	addi	a1,sp,8
  b2:	0000                	unimp
  b4:	0040                	addi	s0,sp,4
  b6:	0000                	unimp
  b8:	0680                	addi	s0,sp,832
  ba:	8000                	0x8000
  bc:	0000                	unimp
  be:	0000                	unimp
  c0:	0064                	addi	s1,sp,12
  c2:	0000                	unimp
  c4:	0000                	unimp
  c6:	0000                	unimp
  c8:	0e44                	addi	s1,sp,788
  ca:	4430                	lw	a2,72(s0)
  cc:	0288                	addi	a0,sp,320
  ce:	0c44                	addi	s1,sp,532
  d0:	0008                	0x8
  d2:	5002                	0x5002
  d4:	0cc8                	addi	a0,sp,596
  d6:	3002                	fld	ft0,32(sp)
  d8:	0e44                	addi	s1,sp,788
  da:	0000                	unimp
  dc:	0000                	unimp
  de:	0000                	unimp
  e0:	002c                	addi	a1,sp,8
  e2:	0000                	unimp
  e4:	0040                	addi	s0,sp,4
  e6:	0000                	unimp
  e8:	06e4                	addi	s1,sp,844
  ea:	8000                	0x8000
  ec:	0000                	unimp
  ee:	0000                	unimp
  f0:	006c                	addi	a1,sp,12
  f2:	0000                	unimp
  f4:	0000                	unimp
  f6:	0000                	unimp
  f8:	0e44                	addi	s1,sp,788
  fa:	4430                	lw	a2,72(s0)
  fc:	0288                	addi	a0,sp,320
  fe:	0c44                	addi	s1,sp,532
 100:	0008                	0x8
 102:	5802                	lw	a6,32(sp)
 104:	0cc8                	addi	a0,sp,596
 106:	3002                	fld	ft0,32(sp)
 108:	0e44                	addi	s1,sp,788
 10a:	0000                	unimp
 10c:	0000                	unimp
 10e:	0000                	unimp
 110:	002c                	addi	a1,sp,8
 112:	0000                	unimp
 114:	0040                	addi	s0,sp,4
 116:	0000                	unimp
 118:	0750                	addi	a2,sp,900
 11a:	8000                	0x8000
 11c:	0000                	unimp
 11e:	0000                	unimp
 120:	00e8                	addi	a0,sp,76
 122:	0000                	unimp
 124:	0000                	unimp
 126:	0000                	unimp
 128:	0e44                	addi	s1,sp,788
 12a:	4830                	lw	a2,80(s0)
 12c:	0281                	addi	t0,t0,0
 12e:	0488                	addi	a0,sp,576
 130:	0c44                	addi	s1,sp,532
 132:	0008                	0x8
 134:	cc02                	sw	zero,24(sp)
 136:	44c1                	li	s1,16
 138:	0cc8                	addi	a0,sp,596
 13a:	3002                	fld	ft0,32(sp)
 13c:	0e44                	addi	s1,sp,788
	...
