
/root/specdoctor/Fuzzer/specdoctor/triggers/t4_U2S_ATTACKER_3742813654_MEM_BR_0x80600048_0x8060004c_blt_8.riscv:     file format elf64-littleriscv


Disassembly of section .text:

0000000080000000 <_start>:
    80000000:	0600006f          	j	80000060 <handle_reset>

0000000080000004 <nmi_vector>:
    80000004:	0000006f          	j	80000004 <nmi_vector>

0000000080000008 <mtvec_handler>:
    80000008:	00100513          	li	a0,1
    8000000c:	03f51513          	slli	a0,a0,0x3f
    80000010:	00b50513          	addi	a0,a0,11
    80000014:	342022f3          	csrr	t0,mcause
    80000018:	00551463          	bne	a0,t0,80000020 <mtvec_handler+0x18>
    8000001c:	3440006f          	j	80000360 <xcpt>
    80000020:	00300193          	li	gp,3
    80000024:	00005517          	auipc	a0,0x5
    80000028:	fdc50513          	addi	a0,a0,-36 # 80005000 <tohost>
    8000002c:	00000013          	nop
    80000030:	00353023          	sd	gp,0(a0)
    80000034:	ffdff06f          	j	80000030 <mtvec_handler+0x28>

0000000080000038 <stvec_handler>:
    80000038:	00800513          	li	a0,8
    8000003c:	142022f3          	csrr	t0,scause
    80000040:	00100193          	li	gp,1
    80000044:	00550463          	beq	a0,t0,8000004c <stvec_handler+0x14>
    80000048:	00300193          	li	gp,3
    8000004c:	00005517          	auipc	a0,0x5
    80000050:	fb450513          	addi	a0,a0,-76 # 80005000 <tohost>
    80000054:	00000013          	nop
    80000058:	00353023          	sd	gp,0(a0)
    8000005c:	ffdff06f          	j	80000058 <stvec_handler+0x20>

0000000080000060 <handle_reset>:
    80000060:	3a005073          	csrwi	pmpcfg0,0
    80000064:	30005073          	csrwi	mstatus,0
    80000068:	00000093          	li	ra,0
    8000006c:	00000113          	li	sp,0
    80000070:	00000193          	li	gp,0
    80000074:	00000213          	li	tp,0
    80000078:	00000293          	li	t0,0
    8000007c:	00000313          	li	t1,0
    80000080:	00000393          	li	t2,0
    80000084:	00000413          	li	s0,0
    80000088:	00000493          	li	s1,0
    8000008c:	00000513          	li	a0,0
    80000090:	00000593          	li	a1,0
    80000094:	00000613          	li	a2,0
    80000098:	00000693          	li	a3,0
    8000009c:	00000713          	li	a4,0
    800000a0:	00000793          	li	a5,0
    800000a4:	00000813          	li	a6,0
    800000a8:	00000893          	li	a7,0
    800000ac:	00000913          	li	s2,0
    800000b0:	00000993          	li	s3,0
    800000b4:	00000a13          	li	s4,0
    800000b8:	00000a93          	li	s5,0
    800000bc:	00000b13          	li	s6,0
    800000c0:	00000b93          	li	s7,0
    800000c4:	00000c13          	li	s8,0
    800000c8:	00000c93          	li	s9,0
    800000cc:	00000d13          	li	s10,0
    800000d0:	00000d93          	li	s11,0
    800000d4:	00000e13          	li	t3,0
    800000d8:	00000e93          	li	t4,0
    800000dc:	00000f13          	li	t5,0
    800000e0:	00000f93          	li	t6,0
    800000e4:	00006537          	lui	a0,0x6
    800000e8:	30052073          	csrs	mstatus,a0
    800000ec:	00305073          	csrwi	fcsr,0
    800000f0:	d2207053          	fcvt.d.l	ft0,zero
    800000f4:	d22070d3          	fcvt.d.l	ft1,zero
    800000f8:	d2207153          	fcvt.d.l	ft2,zero
    800000fc:	d22071d3          	fcvt.d.l	ft3,zero
    80000100:	d2207253          	fcvt.d.l	ft4,zero
    80000104:	d22072d3          	fcvt.d.l	ft5,zero
    80000108:	d2207353          	fcvt.d.l	ft6,zero
    8000010c:	d22073d3          	fcvt.d.l	ft7,zero
    80000110:	d2207453          	fcvt.d.l	fs0,zero
    80000114:	d22074d3          	fcvt.d.l	fs1,zero
    80000118:	d2207553          	fcvt.d.l	fa0,zero
    8000011c:	d22075d3          	fcvt.d.l	fa1,zero
    80000120:	d2207653          	fcvt.d.l	fa2,zero
    80000124:	d22076d3          	fcvt.d.l	fa3,zero
    80000128:	d2207753          	fcvt.d.l	fa4,zero
    8000012c:	d22077d3          	fcvt.d.l	fa5,zero
    80000130:	d2207853          	fcvt.d.l	fa6,zero
    80000134:	d22078d3          	fcvt.d.l	fa7,zero
    80000138:	d2207953          	fcvt.d.l	fs2,zero
    8000013c:	d22079d3          	fcvt.d.l	fs3,zero
    80000140:	d2207a53          	fcvt.d.l	fs4,zero
    80000144:	d2207ad3          	fcvt.d.l	fs5,zero
    80000148:	d2207b53          	fcvt.d.l	fs6,zero
    8000014c:	d2207bd3          	fcvt.d.l	fs7,zero
    80000150:	d2207c53          	fcvt.d.l	fs8,zero
    80000154:	d2207cd3          	fcvt.d.l	fs9,zero
    80000158:	d2207d53          	fcvt.d.l	fs10,zero
    8000015c:	d2207dd3          	fcvt.d.l	fs11,zero
    80000160:	d2207e53          	fcvt.d.l	ft8,zero
    80000164:	d2207ed3          	fcvt.d.l	ft9,zero
    80000168:	d2207f53          	fcvt.d.l	ft10,zero
    8000016c:	d2207fd3          	fcvt.d.l	ft11,zero
    80000170:	00000297          	auipc	t0,0x0
    80000174:	e9828293          	addi	t0,t0,-360 # 80000008 <mtvec_handler>
    80000178:	30529073          	csrw	mtvec,t0
    8000017c:	00000297          	auipc	t0,0x0
    80000180:	ebc28293          	addi	t0,t0,-324 # 80000038 <stvec_handler>
    80000184:	10529073          	csrw	stvec,t0
    80000188:	00006117          	auipc	sp,0x6
    8000018c:	f0010113          	addi	sp,sp,-256 # 80006088 <_end+0x1000>
    80000190:	228000ef          	jal	ra,800003b8 <pmp_boot>
    80000194:	2c8000ef          	jal	ra,8000045c <vm_boot>
    80000198:	00100513          	li	a0,1
    8000019c:	30652073          	csrs	mcounteren,a0
    800001a0:	08000513          	li	a0,128
    800001a4:	30052073          	csrs	mstatus,a0
    800001a8:	00001537          	lui	a0,0x1
    800001ac:	8005051b          	addiw	a0,a0,-2048
    800001b0:	30452073          	csrs	mie,a0
    800001b4:	00000013          	nop
    800001b8:	00000013          	nop
    800001bc:	00000013          	nop
    800001c0:	00000013          	nop
    800001c4:	00000013          	nop
    800001c8:	00000013          	nop
    800001cc:	00000013          	nop
    800001d0:	00000013          	nop
    800001d4:	00000013          	nop

00000000800001d8 <pfx>:
    800001d8:	3f89f993          	andi	s3,s3,1016
    800001dc:	00605a97          	auipc	s5,0x605
    800001e0:	e24a8a93          	addi	s5,s5,-476 # 80605000 <data3>
    800001e4:	015989b3          	add	s3,s3,s5
    800001e8:	0009b007          	fld	ft0,0(s3)

00000000800001ec <pfx.bb0.l1>:
    800001ec:	3f8b7b13          	andi	s6,s6,1016
    800001f0:	00605a97          	auipc	s5,0x605
    800001f4:	e10a8a93          	addi	s5,s5,-496 # 80605000 <data3>
    800001f8:	015b0b33          	add	s6,s6,s5
    800001fc:	010b3087          	fld	ft1,16(s6)

0000000080000200 <pfx.bb0.l2>:
    80000200:	3f89f993          	andi	s3,s3,1016
    80000204:	00605a97          	auipc	s5,0x605
    80000208:	dfca8a93          	addi	s5,s5,-516 # 80605000 <data3>
    8000020c:	015989b3          	add	s3,s3,s5
    80000210:	0189b107          	fld	ft2,24(s3)

0000000080000214 <pfx.bb0.l3>:
    80000214:	3f8b7b13          	andi	s6,s6,1016
    80000218:	00608917          	auipc	s2,0x608
    8000021c:	de890913          	addi	s2,s2,-536 # 80608000 <data6>
    80000220:	012b0b33          	add	s6,s6,s2
    80000224:	010b3187          	fld	ft3,16(s6)

0000000080000228 <pfx.bb0.l4>:
    80000228:	3f8b7b13          	andi	s6,s6,1016
    8000022c:	00604a97          	auipc	s5,0x604
    80000230:	dd4a8a93          	addi	s5,s5,-556 # 80604000 <data2>
    80000234:	015b0b33          	add	s6,s6,s5
    80000238:	000b3207          	fld	ft4,0(s6)

000000008000023c <pfx.bb0.l5>:
    8000023c:	3f89f993          	andi	s3,s3,1016
    80000240:	00603b17          	auipc	s6,0x603
    80000244:	dc0b0b13          	addi	s6,s6,-576 # 80603000 <data1>
    80000248:	016989b3          	add	s3,s3,s6
    8000024c:	0089b287          	fld	ft5,8(s3)

0000000080000250 <pfx.bb0.l6>:
    80000250:	3f8a7a13          	andi	s4,s4,1016
    80000254:	00607917          	auipc	s2,0x607
    80000258:	dac90913          	addi	s2,s2,-596 # 80607000 <data5>
    8000025c:	012a0a33          	add	s4,s4,s2
    80000260:	008a3307          	fld	ft6,8(s4)

0000000080000264 <pfx.bb0.l7>:
    80000264:	3f8a7a13          	andi	s4,s4,1016
    80000268:	00604b17          	auipc	s6,0x604
    8000026c:	d98b0b13          	addi	s6,s6,-616 # 80604000 <data2>
    80000270:	016a0a33          	add	s4,s4,s6
    80000274:	000a3387          	fld	ft7,0(s4)

0000000080000278 <pfx.bb0.l8>:
    80000278:	3f8afa93          	andi	s5,s5,1016
    8000027c:	00607a17          	auipc	s4,0x607
    80000280:	d84a0a13          	addi	s4,s4,-636 # 80607000 <data5>
    80000284:	014a8ab3          	add	s5,s5,s4
    80000288:	000ab407          	fld	fs0,0(s5)

000000008000028c <pfx.bb0.l9>:
    8000028c:	3f8a7a13          	andi	s4,s4,1016
    80000290:	00602997          	auipc	s3,0x602
    80000294:	d7098993          	addi	s3,s3,-656 # 80602000 <data>
    80000298:	013a0a33          	add	s4,s4,s3
    8000029c:	000a3487          	fld	fs1,0(s4)

00000000800002a0 <pfx.bb0.l10>:
    800002a0:	50f00913          	li	s2,1295

00000000800002a4 <pfx.bb0.l11>:
    800002a4:	74b00993          	li	s3,1867

00000000800002a8 <pfx.bb0.l12>:
    800002a8:	0fa00a13          	li	s4,250

00000000800002ac <pfx.bb0.l13>:
    800002ac:	32400a93          	li	s5,804

00000000800002b0 <pfx.bb0.l14>:
    800002b0:	1e200b13          	li	s6,482

00000000800002b4 <pfx.bb0.l15>:
    800002b4:	4a200b93          	li	s7,1186

00000000800002b8 <pfx.bb0.l16>:
    800002b8:	3e800c13          	li	s8,1000

00000000800002bc <pfx.bb0.l17>:
    800002bc:	55d00c93          	li	s9,1373

00000000800002c0 <pfx.bb0.l18>:
    800002c0:	2f300d13          	li	s10,755

00000000800002c4 <pfx.bb0.l19>:
    800002c4:	04700d93          	li	s11,71

00000000800002c8 <pfx.exit>:
    800002c8:	00100f13          	li	t5,1
    800002cc:	00002537          	lui	a0,0x2
    800002d0:	8005051b          	addiw	a0,a0,-2048
    800002d4:	30053073          	csrc	mstatus,a0
    800002d8:	00200297          	auipc	t0,0x200
    800002dc:	d2828293          	addi	t0,t0,-728 # 80200000 <pre_attack0>
    800002e0:	34129073          	csrw	mepc,t0
    800002e4:	30200073          	mret

00000000800002e8 <recv_end_m>:
    800002e8:	c0002ef3          	rdcycle	t4
    800002ec:	41ce8e33          	sub	t3,t4,t3
    800002f0:	00005597          	auipc	a1,0x5
    800002f4:	d9058593          	addi	a1,a1,-624 # 80005080 <timing>
    800002f8:	01c5b023          	sd	t3,0(a1)
    800002fc:	00100193          	li	gp,1
    80000300:	00900593          	li	a1,9
    80000304:	342022f3          	csrr	t0,mcause
    80000308:	00558463          	beq	a1,t0,80000310 <recv_end_m+0x28>
    8000030c:	00300193          	li	gp,3
    80000310:	00005517          	auipc	a0,0x5
    80000314:	cf050513          	addi	a0,a0,-784 # 80005000 <tohost>
    80000318:	00000013          	nop
    8000031c:	00353023          	sd	gp,0(a0)
    80000320:	ffdff06f          	j	8000031c <recv_end_m+0x34>

0000000080000324 <recv_end_s>:
    80000324:	c0002ef3          	rdcycle	t4
    80000328:	41ce8e33          	sub	t3,t4,t3
    8000032c:	00005597          	auipc	a1,0x5
    80000330:	d5458593          	addi	a1,a1,-684 # 80005080 <timing>
    80000334:	01c5b023          	sd	t3,0(a1)
    80000338:	00100193          	li	gp,1
    8000033c:	00800593          	li	a1,8
    80000340:	142022f3          	csrr	t0,scause
    80000344:	00558463          	beq	a1,t0,8000034c <recv_end_s+0x28>
    80000348:	00300193          	li	gp,3
    8000034c:	00005517          	auipc	a0,0x5
    80000350:	cb450513          	addi	a0,a0,-844 # 80005000 <tohost>
    80000354:	00000013          	nop
    80000358:	00353023          	sd	gp,0(a0)
    8000035c:	ffdff06f          	j	80000358 <recv_end_s+0x34>

0000000080000360 <xcpt>:
    80000360:	08000513          	li	a0,128
    80000364:	30053073          	csrc	mstatus,a0
    80000368:	00001537          	lui	a0,0x1
    8000036c:	8005051b          	addiw	a0,a0,-2048
    80000370:	30453073          	csrc	mie,a0
    80000374:	00000517          	auipc	a0,0x0
    80000378:	f7450513          	addi	a0,a0,-140 # 800002e8 <recv_end_m>
    8000037c:	30551073          	csrw	mtvec,a0
    80000380:	00000517          	auipc	a0,0x0
    80000384:	fa450513          	addi	a0,a0,-92 # 80000324 <recv_end_s>
    80000388:	10551073          	csrw	stvec,a0
    8000038c:	00000013          	nop
    80000390:	00000013          	nop
    80000394:	00000013          	nop
    80000398:	c0002e73          	rdcycle	t3
    8000039c:	00002537          	lui	a0,0x2
    800003a0:	8005051b          	addiw	a0,a0,-2048
    800003a4:	30053073          	csrc	mstatus,a0
    800003a8:	00800297          	auipc	t0,0x800
    800003ac:	c5828293          	addi	t0,t0,-936 # 80800000 <receive>
    800003b0:	34129073          	csrw	mepc,t0
    800003b4:	30200073          	mret

00000000800003b8 <pmp_boot>:
    800003b8:	fe010113          	addi	sp,sp,-32
    800003bc:	00813c23          	sd	s0,24(sp)
    800003c0:	02010413          	addi	s0,sp,32
    800003c4:	01f00793          	li	a5,31
    800003c8:	fef43423          	sd	a5,-24(s0)
    800003cc:	fff00793          	li	a5,-1
    800003d0:	00b7d793          	srli	a5,a5,0xb
    800003d4:	fef43023          	sd	a5,-32(s0)
    800003d8:	fe843783          	ld	a5,-24(s0)
    800003dc:	fe043703          	ld	a4,-32(s0)
    800003e0:	00000297          	auipc	t0,0x0
    800003e4:	01c28293          	addi	t0,t0,28 # 800003fc <pmp_boot+0x44>
    800003e8:	305292f3          	csrrw	t0,mtvec,t0
    800003ec:	3b771073          	csrw	pmpaddr7,a4
    800003f0:	00078513          	mv	a0,a5
    800003f4:	03851513          	slli	a0,a0,0x38
    800003f8:	3a051073          	csrw	pmpcfg0,a0
    800003fc:	30529073          	csrw	mtvec,t0
    80000400:	00000013          	nop
    80000404:	01813403          	ld	s0,24(sp)
    80000408:	02010113          	addi	sp,sp,32
    8000040c:	00008067          	ret

0000000080000410 <lfsr63>:
    80000410:	fd010113          	addi	sp,sp,-48
    80000414:	02813423          	sd	s0,40(sp)
    80000418:	03010413          	addi	s0,sp,48
    8000041c:	fca43c23          	sd	a0,-40(s0)
    80000420:	fd843783          	ld	a5,-40(s0)
    80000424:	0017d713          	srli	a4,a5,0x1
    80000428:	fd843783          	ld	a5,-40(s0)
    8000042c:	00f747b3          	xor	a5,a4,a5
    80000430:	0017f793          	andi	a5,a5,1
    80000434:	fef43423          	sd	a5,-24(s0)
    80000438:	fd843783          	ld	a5,-40(s0)
    8000043c:	0017d713          	srli	a4,a5,0x1
    80000440:	fe843783          	ld	a5,-24(s0)
    80000444:	03e79793          	slli	a5,a5,0x3e
    80000448:	00f767b3          	or	a5,a4,a5
    8000044c:	00078513          	mv	a0,a5
    80000450:	02813403          	ld	s0,40(sp)
    80000454:	03010113          	addi	sp,sp,48
    80000458:	00008067          	ret

000000008000045c <vm_boot>:
    8000045c:	fd010113          	addi	sp,sp,-48
    80000460:	02113423          	sd	ra,40(sp)
    80000464:	02813023          	sd	s0,32(sp)
    80000468:	03010413          	addi	s0,sp,48
    8000046c:	00002797          	auipc	a5,0x2
    80000470:	b9478793          	addi	a5,a5,-1132 # 80002000 <pt+0x1000>
    80000474:	00c7d793          	srli	a5,a5,0xc
    80000478:	00a79793          	slli	a5,a5,0xa
    8000047c:	0017e713          	ori	a4,a5,1
    80000480:	00001797          	auipc	a5,0x1
    80000484:	b8078793          	addi	a5,a5,-1152 # 80001000 <pt>
    80000488:	00e7b823          	sd	a4,16(a5)
    8000048c:	00001717          	auipc	a4,0x1
    80000490:	b7470713          	addi	a4,a4,-1164 # 80001000 <pt>
    80000494:	000017b7          	lui	a5,0x1
    80000498:	00f707b3          	add	a5,a4,a5
    8000049c:	20000737          	lui	a4,0x20000
    800004a0:	0cf70713          	addi	a4,a4,207 # 200000cf <_start-0x5fffff31>
    800004a4:	00e7b023          	sd	a4,0(a5) # 1000 <_start-0x7ffff000>
    800004a8:	00200797          	auipc	a5,0x200
    800004ac:	b5878793          	addi	a5,a5,-1192 # 80200000 <pre_attack0>
    800004b0:	00c7d793          	srli	a5,a5,0xc
    800004b4:	00a79713          	slli	a4,a5,0xa
    800004b8:	00200797          	auipc	a5,0x200
    800004bc:	b4878793          	addi	a5,a5,-1208 # 80200000 <pre_attack0>
    800004c0:	0157d793          	srli	a5,a5,0x15
    800004c4:	1ff7f793          	andi	a5,a5,511
    800004c8:	0db76713          	ori	a4,a4,219
    800004cc:	00001697          	auipc	a3,0x1
    800004d0:	b3468693          	addi	a3,a3,-1228 # 80001000 <pt>
    800004d4:	20078793          	addi	a5,a5,512
    800004d8:	00379793          	slli	a5,a5,0x3
    800004dc:	00f687b3          	add	a5,a3,a5
    800004e0:	00e7b023          	sd	a4,0(a5)
    800004e4:	00400797          	auipc	a5,0x400
    800004e8:	b1c78793          	addi	a5,a5,-1252 # 80400000 <pre_attack1>
    800004ec:	00c7d793          	srli	a5,a5,0xc
    800004f0:	00a79713          	slli	a4,a5,0xa
    800004f4:	00400797          	auipc	a5,0x400
    800004f8:	b0c78793          	addi	a5,a5,-1268 # 80400000 <pre_attack1>
    800004fc:	0157d793          	srli	a5,a5,0x15
    80000500:	1ff7f793          	andi	a5,a5,511
    80000504:	0db76713          	ori	a4,a4,219
    80000508:	00001697          	auipc	a3,0x1
    8000050c:	af868693          	addi	a3,a3,-1288 # 80001000 <pt>
    80000510:	20078793          	addi	a5,a5,512
    80000514:	00379793          	slli	a5,a5,0x3
    80000518:	00f687b3          	add	a5,a3,a5
    8000051c:	00e7b023          	sd	a4,0(a5)
    80000520:	00003797          	auipc	a5,0x3
    80000524:	ae078793          	addi	a5,a5,-1312 # 80003000 <pt+0x2000>
    80000528:	00c7d793          	srli	a5,a5,0xc
    8000052c:	00a79713          	slli	a4,a5,0xa
    80000530:	00600797          	auipc	a5,0x600
    80000534:	ad078793          	addi	a5,a5,-1328 # 80600000 <attack>
    80000538:	0157d793          	srli	a5,a5,0x15
    8000053c:	1ff7f793          	andi	a5,a5,511
    80000540:	00176713          	ori	a4,a4,1
    80000544:	00001697          	auipc	a3,0x1
    80000548:	abc68693          	addi	a3,a3,-1348 # 80001000 <pt>
    8000054c:	20078793          	addi	a5,a5,512
    80000550:	00379793          	slli	a5,a5,0x3
    80000554:	00f687b3          	add	a5,a3,a5
    80000558:	00e7b023          	sd	a4,0(a5)
    8000055c:	00800797          	auipc	a5,0x800
    80000560:	aa478793          	addi	a5,a5,-1372 # 80800000 <receive>
    80000564:	00c7d793          	srli	a5,a5,0xc
    80000568:	00a79713          	slli	a4,a5,0xa
    8000056c:	00800797          	auipc	a5,0x800
    80000570:	a9478793          	addi	a5,a5,-1388 # 80800000 <receive>
    80000574:	0157d793          	srli	a5,a5,0x15
    80000578:	1ff7f793          	andi	a5,a5,511
    8000057c:	0db76713          	ori	a4,a4,219
    80000580:	00001697          	auipc	a3,0x1
    80000584:	a8068693          	addi	a3,a3,-1408 # 80001000 <pt>
    80000588:	20078793          	addi	a5,a5,512
    8000058c:	00379793          	slli	a5,a5,0x3
    80000590:	00f687b3          	add	a5,a3,a5
    80000594:	00e7b023          	sd	a4,0(a5)
    80000598:	00004797          	auipc	a5,0x4
    8000059c:	a6878793          	addi	a5,a5,-1432 # 80004000 <pt+0x3000>
    800005a0:	00c7d793          	srli	a5,a5,0xc
    800005a4:	00a79713          	slli	a4,a5,0xa
    800005a8:	00600697          	auipc	a3,0x600
    800005ac:	a5868693          	addi	a3,a3,-1448 # 80600000 <attack>
    800005b0:	004007b7          	lui	a5,0x400
    800005b4:	00f687b3          	add	a5,a3,a5
    800005b8:	0157d793          	srli	a5,a5,0x15
    800005bc:	1ff7f793          	andi	a5,a5,511
    800005c0:	00176713          	ori	a4,a4,1
    800005c4:	00001697          	auipc	a3,0x1
    800005c8:	a3c68693          	addi	a3,a3,-1476 # 80001000 <pt>
    800005cc:	20078793          	addi	a5,a5,512 # 400200 <_start-0x7fbffe00>
    800005d0:	00379793          	slli	a5,a5,0x3
    800005d4:	00f687b3          	add	a5,a3,a5
    800005d8:	00e7b023          	sd	a4,0(a5)
    800005dc:	00c00797          	auipc	a5,0xc00
    800005e0:	a2478793          	addi	a5,a5,-1500 # 80c00000 <secret>
    800005e4:	00c7d793          	srli	a5,a5,0xc
    800005e8:	00a79713          	slli	a4,a5,0xa
    800005ec:	00c00797          	auipc	a5,0xc00
    800005f0:	a1478793          	addi	a5,a5,-1516 # 80c00000 <secret>
    800005f4:	0157d793          	srli	a5,a5,0x15
    800005f8:	1ff7f793          	andi	a5,a5,511
    800005fc:	0c776713          	ori	a4,a4,199
    80000600:	00001697          	auipc	a3,0x1
    80000604:	a0068693          	addi	a3,a3,-1536 # 80001000 <pt>
    80000608:	20078793          	addi	a5,a5,512
    8000060c:	00379793          	slli	a5,a5,0x3
    80000610:	00f687b3          	add	a5,a3,a5
    80000614:	00e7b023          	sd	a4,0(a5)
    80000618:	6f8b67b7          	lui	a5,0x6f8b6
    8000061c:	6eb78793          	addi	a5,a5,1771 # 6f8b66eb <_start-0x10749915>
    80000620:	00179793          	slli	a5,a5,0x1
    80000624:	fef43423          	sd	a5,-24(s0)
    80000628:	fe843503          	ld	a0,-24(s0)
    8000062c:	124000ef          	jal	ra,80000750 <config>
    80000630:	00800793          	li	a5,8
    80000634:	fef43023          	sd	a5,-32(s0)
    80000638:	fe043783          	ld	a5,-32(s0)
    8000063c:	03c79713          	slli	a4,a5,0x3c
    80000640:	00001797          	auipc	a5,0x1
    80000644:	9c078793          	addi	a5,a5,-1600 # 80001000 <pt>
    80000648:	00c7d793          	srli	a5,a5,0xc
    8000064c:	00f767b3          	or	a5,a4,a5
    80000650:	fcf43c23          	sd	a5,-40(s0)
    80000654:	fd843783          	ld	a5,-40(s0)
    80000658:	18079073          	csrw	satp,a5
    8000065c:	0000b7b7          	lui	a5,0xb
    80000660:	1557879b          	addiw	a5,a5,341
    80000664:	30279073          	csrw	medeleg,a5
    80000668:	12000073          	sfence.vma
    8000066c:	00000013          	nop
    80000670:	02813083          	ld	ra,40(sp)
    80000674:	02013403          	ld	s0,32(sp)
    80000678:	03010113          	addi	sp,sp,48
    8000067c:	00008067          	ret

0000000080000680 <set_pte_attack>:
    80000680:	fd010113          	addi	sp,sp,-48
    80000684:	02813423          	sd	s0,40(sp)
    80000688:	03010413          	addi	s0,sp,48
    8000068c:	fca43c23          	sd	a0,-40(s0)
    80000690:	fcb43823          	sd	a1,-48(s0)
    80000694:	fd843783          	ld	a5,-40(s0)
    80000698:	00c7d793          	srli	a5,a5,0xc
    8000069c:	1ff7f793          	andi	a5,a5,511
    800006a0:	fef43423          	sd	a5,-24(s0)
    800006a4:	fd843783          	ld	a5,-40(s0)
    800006a8:	00c7d793          	srli	a5,a5,0xc
    800006ac:	00a79713          	slli	a4,a5,0xa
    800006b0:	fd043783          	ld	a5,-48(s0)
    800006b4:	00f76733          	or	a4,a4,a5
    800006b8:	00001697          	auipc	a3,0x1
    800006bc:	94868693          	addi	a3,a3,-1720 # 80001000 <pt>
    800006c0:	fe843783          	ld	a5,-24(s0)
    800006c4:	40078793          	addi	a5,a5,1024 # b400 <_start-0x7fff4c00>
    800006c8:	00379793          	slli	a5,a5,0x3
    800006cc:	00f687b3          	add	a5,a3,a5
    800006d0:	00e7b023          	sd	a4,0(a5)
    800006d4:	00000013          	nop
    800006d8:	02813403          	ld	s0,40(sp)
    800006dc:	03010113          	addi	sp,sp,48
    800006e0:	00008067          	ret

00000000800006e4 <set_pte_user>:
    800006e4:	fd010113          	addi	sp,sp,-48
    800006e8:	02813423          	sd	s0,40(sp)
    800006ec:	03010413          	addi	s0,sp,48
    800006f0:	fca43c23          	sd	a0,-40(s0)
    800006f4:	fcb43823          	sd	a1,-48(s0)
    800006f8:	fd843703          	ld	a4,-40(s0)
    800006fc:	004007b7          	lui	a5,0x400
    80000700:	00f707b3          	add	a5,a4,a5
    80000704:	00c7d793          	srli	a5,a5,0xc
    80000708:	1ff7f793          	andi	a5,a5,511
    8000070c:	fef43423          	sd	a5,-24(s0)
    80000710:	fd843783          	ld	a5,-40(s0)
    80000714:	00c7d793          	srli	a5,a5,0xc
    80000718:	00a79713          	slli	a4,a5,0xa
    8000071c:	fd043783          	ld	a5,-48(s0)
    80000720:	00f76733          	or	a4,a4,a5
    80000724:	00001697          	auipc	a3,0x1
    80000728:	8dc68693          	addi	a3,a3,-1828 # 80001000 <pt>
    8000072c:	fe843783          	ld	a5,-24(s0)
    80000730:	60078793          	addi	a5,a5,1536 # 400600 <_start-0x7fbffa00>
    80000734:	00379793          	slli	a5,a5,0x3
    80000738:	00f687b3          	add	a5,a3,a5
    8000073c:	00e7b023          	sd	a4,0(a5)
    80000740:	00000013          	nop
    80000744:	02813403          	ld	s0,40(sp)
    80000748:	03010113          	addi	sp,sp,48
    8000074c:	00008067          	ret

0000000080000750 <config>:
    80000750:	fd010113          	addi	sp,sp,-48
    80000754:	02113423          	sd	ra,40(sp)
    80000758:	02813023          	sd	s0,32(sp)
    8000075c:	03010413          	addi	s0,sp,48
    80000760:	fca43c23          	sd	a0,-40(s0)
    80000764:	00600797          	auipc	a5,0x600
    80000768:	89c78793          	addi	a5,a5,-1892 # 80600000 <attack>
    8000076c:	0df00593          	li	a1,223
    80000770:	00078513          	mv	a0,a5
    80000774:	f0dff0ef          	jal	ra,80000680 <set_pte_attack>
    80000778:	00601797          	auipc	a5,0x601
    8000077c:	88878793          	addi	a5,a5,-1912 # 80601000 <shared>
    80000780:	0db00593          	li	a1,219
    80000784:	00078513          	mv	a0,a5
    80000788:	ef9ff0ef          	jal	ra,80000680 <set_pte_attack>
    8000078c:	00600797          	auipc	a5,0x600
    80000790:	87478793          	addi	a5,a5,-1932 # 80600000 <attack>
    80000794:	0df00593          	li	a1,223
    80000798:	00078513          	mv	a0,a5
    8000079c:	f49ff0ef          	jal	ra,800006e4 <set_pte_user>
    800007a0:	00601797          	auipc	a5,0x601
    800007a4:	86078793          	addi	a5,a5,-1952 # 80601000 <shared>
    800007a8:	0db00593          	li	a1,219
    800007ac:	00078513          	mv	a0,a5
    800007b0:	f35ff0ef          	jal	ra,800006e4 <set_pte_user>
    800007b4:	fe042623          	sw	zero,-20(s0)
    800007b8:	0580006f          	j	80000810 <config+0xc0>
    800007bc:	0d700793          	li	a5,215
    800007c0:	fef43023          	sd	a5,-32(s0)
    800007c4:	fec42783          	lw	a5,-20(s0)
    800007c8:	00c79713          	slli	a4,a5,0xc
    800007cc:	00602797          	auipc	a5,0x602
    800007d0:	83478793          	addi	a5,a5,-1996 # 80602000 <data>
    800007d4:	00f707b3          	add	a5,a4,a5
    800007d8:	fe043583          	ld	a1,-32(s0)
    800007dc:	00078513          	mv	a0,a5
    800007e0:	ea1ff0ef          	jal	ra,80000680 <set_pte_attack>
    800007e4:	fec42783          	lw	a5,-20(s0)
    800007e8:	00c79713          	slli	a4,a5,0xc
    800007ec:	00602797          	auipc	a5,0x602
    800007f0:	81478793          	addi	a5,a5,-2028 # 80602000 <data>
    800007f4:	00f707b3          	add	a5,a4,a5
    800007f8:	0d700593          	li	a1,215
    800007fc:	00078513          	mv	a0,a5
    80000800:	ee5ff0ef          	jal	ra,800006e4 <set_pte_user>
    80000804:	fec42783          	lw	a5,-20(s0)
    80000808:	0017879b          	addiw	a5,a5,1
    8000080c:	fef42623          	sw	a5,-20(s0)
    80000810:	fec42783          	lw	a5,-20(s0)
    80000814:	0007871b          	sext.w	a4,a5
    80000818:	00700793          	li	a5,7
    8000081c:	fae7d0e3          	bge	a5,a4,800007bc <config+0x6c>
    80000820:	00000013          	nop
    80000824:	00000013          	nop
    80000828:	02813083          	ld	ra,40(sp)
    8000082c:	02013403          	ld	s0,32(sp)
    80000830:	03010113          	addi	sp,sp,48
    80000834:	00008067          	ret

Disassembly of section .bss:

0000000080001000 <pt>:
	...

Disassembly of section .tohost:

0000000080005000 <tohost>:
	...

0000000080005040 <fromhost>:
	...

0000000080005080 <timing>:
	...

Disassembly of section .text.preattack0:

0000000080200000 <pre_attack0>:
    80200000:	e2021ad3          	fclass.d	s5,ft4

0000000080200004 <prp0.entry.l1>:
    80200004:	222190d3          	fsgnjn.d	ft1,ft3,ft2

0000000080200008 <prp0.entry.l2>:
    80200008:	d23af253          	fcvt.d.lu	ft4,s5

000000008020000c <prp0.entry.l3>:
    8020000c:	e0021953          	fclass.s	s2,ft4

0000000080200010 <prp0.entry.l4>:
    80200010:	00e9da1b          	srliw	s4,s3,0xe

0000000080200014 <prp0.entry.l5>:
    80200014:	033a4abb          	divw	s5,s4,s3

0000000080200018 <prp0.entry.l6>:
    80200018:	2230214f          	fnmadd.d	ft2,ft0,ft3,ft4,rdn

000000008020001c <prp0.entry.l7>:
    8020001c:	d00af0d3          	fcvt.s.w	ft1,s5

0000000080200020 <prp0.entry.l8>:
    80200020:	01298ab3          	add	s5,s3,s2

0000000080200024 <prp0.entry.l9>:
    80200024:	d02a7153          	fcvt.s.l	ft2,s4

0000000080200028 <prp0.entry.l10>:
    80200028:	016a6263          	bltu	s4,s6,8020002c <prp0.bb0>

000000008020002c <prp0.bb0>:
    8020002c:	08000a6f          	jal	s4,802000ac <prp0.bb3>

0000000080200030 <prp0.bb0.l1>:
    80200030:	073a6e63          	bltu	s4,s3,802000ac <prp0.bb3>

0000000080200034 <prp0.bb0.l2>:
    80200034:	00401097          	auipc	ra,0x401
    80200038:	100080e7          	jalr	256(ra) # 80601134 <fn2.exit>

000000008020003c <prp0.bb0.l3>:
    8020003c:	d229f153          	fcvt.d.l	ft2,s3

0000000080200040 <prp0.bb0.l4>:
    80200040:	076a6663          	bltu	s4,s6,802000ac <prp0.bb3>

0000000080200044 <prp0.bb0.l5>:
    80200044:	00022153          	fadd.s	ft2,ft4,ft0,rdn

0000000080200048 <prp0.bb0.l6>:
    80200048:	07394263          	blt	s2,s3,802000ac <prp0.bb3>

000000008020004c <prp0.bb0.l7>:
    8020004c:	58003153          	fsqrt.s	ft2,ft0,rup

0000000080200050 <prp0.bb0.l8>:
    80200050:	00401097          	auipc	ra,0x401
    80200054:	0c8080e7          	jalr	200(ra) # 80601118 <fn1.exit>

0000000080200058 <prp0.bb0.l9>:
    80200058:	c0207ad3          	fcvt.l.s	s5,ft0

000000008020005c <prp0.bb0.l10>:
    8020005c:	00400aef          	jal	s5,80200060 <prp0.bb1>

0000000080200060 <prp0.bb1>:
    80200060:	f00900d3          	fmv.w.x	ft1,s2

0000000080200064 <prp0.bb1.l1>:
    80200064:	d00a7153          	fcvt.s.w	ft2,s4

0000000080200068 <prp0.bb1.l2>:
    80200068:	00401097          	auipc	ra,0x401
    8020006c:	f98080e7          	jalr	-104(ra) # 80601000 <shared>

0000000080200070 <prp0.bb1.l3>:
    80200070:	346b3993          	sltiu	s3,s6,838

0000000080200074 <prp0.bb1.l4>:
    80200074:	1030f253          	fmul.s	ft4,ft1,ft3

0000000080200078 <prp0.bb1.l5>:
    80200078:	100190cf          	fnmadd.s	ft1,ft3,ft0,ft2,rtz

000000008020007c <prp0.bb1.l6>:
    8020007c:	016a9263          	bne	s5,s6,80200080 <prp0.bb2>

0000000080200080 <prp0.bb2>:
    80200080:	05695c63          	bge	s2,s6,802000d8 <pre_attack0_end>

0000000080200084 <prp0.bb2.l1>:
    80200084:	00401097          	auipc	ra,0x401
    80200088:	fa4080e7          	jalr	-92(ra) # 80601028 <fn0.exit>

000000008020008c <prp0.bb2.l2>:
    8020008c:	01395ab3          	srl	s5,s2,s3

0000000080200090 <prp0.bb2.l3>:
    80200090:	e20089d3          	fmv.x.d	s3,ft1

0000000080200094 <prp0.bb2.l4>:
    80200094:	200101d3          	fsgnj.s	ft3,ft2,ft0

0000000080200098 <prp0.bb2.l5>:
    80200098:	0079199b          	slliw	s3,s2,0x7

000000008020009c <prp0.bb2.l6>:
    8020009c:	401ad91b          	sraiw	s2,s5,0x1

00000000802000a0 <prp0.bb2.l7>:
    802000a0:	00401097          	auipc	ra,0x401
    802000a4:	0b4080e7          	jalr	180(ra) # 80601154 <fn3.exit>

00000000802000a8 <prp0.bb2.l8>:
    802000a8:	012a6263          	bltu	s4,s2,802000ac <prp0.bb3>

00000000802000ac <prp0.bb3>:
    802000ac:	0ff0000f          	fence

00000000802000b0 <prp0.bb3.l1>:
    802000b0:	a22029d3          	feq.d	s3,ft0,ft2

00000000802000b4 <prp0.bb3.l2>:
    802000b4:	c2017ad3          	fcvt.w.d	s5,ft2

00000000802000b8 <prp0.bb3.l3>:
    802000b8:	c0117a53          	fcvt.wu.s	s4,ft2

00000000802000bc <prp0.bb3.l4>:
    802000bc:	03694abb          	divw	s5,s2,s6

00000000802000c0 <prp0.bb3.l5>:
    802000c0:	413ad933          	sra	s2,s5,s3

00000000802000c4 <prp0.bb3.l6>:
    802000c4:	00401097          	auipc	ra,0x401
    802000c8:	f64080e7          	jalr	-156(ra) # 80601028 <fn0.exit>

00000000802000cc <prp0.bb3.l7>:
    802000cc:	2a201253          	fmax.d	ft4,ft0,ft2

00000000802000d0 <prp0.bb3.l8>:
    802000d0:	d2190053          	fcvt.d.wu	ft0,s2

00000000802000d4 <prp0.bb3.l9>:
    802000d4:	013a1263          	bne	s4,s3,802000d8 <pre_attack0_end>

00000000802000d8 <pre_attack0_end>:
    802000d8:	00200097          	auipc	ra,0x200
    802000dc:	f28080e7          	jalr	-216(ra) # 80400000 <pre_attack1>

Disassembly of section .text.preattack1:

0000000080400000 <pre_attack1>:
    80400000:	d23970d3          	fcvt.d.lu	ft1,s2

0000000080400004 <prp1.entry.l1>:
    80400004:	c211fa53          	fcvt.wu.d	s4,ft3

0000000080400008 <prp1.entry.l2>:
    80400008:	00201097          	auipc	ra,0x201
    8040000c:	110080e7          	jalr	272(ra) # 80601118 <fn1.exit>

0000000080400010 <prp1.entry.l3>:
    80400010:	08220043          	fmadd.s	ft0,ft4,ft2,ft1,rne

0000000080400014 <prp1.entry.l4>:
    80400014:	00201097          	auipc	ra,0x201
    80400018:	104080e7          	jalr	260(ra) # 80601118 <fn1.exit>

000000008040001c <prp1.entry.l5>:
    8040001c:	00000b17          	auipc	s6,0x0
    80400020:	00cb0b13          	addi	s6,s6,12 # 80400028 <prp1.bb0>
    80400024:	000b0a67          	jalr	s4,s6

0000000080400028 <prp1.bb0>:
    80400028:	00201097          	auipc	ra,0x201
    8040002c:	12c080e7          	jalr	300(ra) # 80601154 <fn3.exit>

0000000080400030 <prp1.bb0.l1>:
    80400030:	42010153          	fcvt.d.s	ft2,ft2

0000000080400034 <prp1.bb0.l2>:
    80400034:	0359c863          	blt	s3,s5,80400064 <prp1.bb1>

0000000080400038 <prp1.bb0.l3>:
    80400038:	00201097          	auipc	ra,0x201
    8040003c:	0e0080e7          	jalr	224(ra) # 80601118 <fn1.exit>

0000000080400040 <prp1.bb0.l4>:
    80400040:	d23a7153          	fcvt.d.lu	ft2,s4

0000000080400044 <prp1.bb0.l5>:
    80400044:	c2117ad3          	fcvt.wu.d	s5,ft2

0000000080400048 <prp1.bb0.l6>:
    80400048:	094b1063          	bne	s6,s4,804000c8 <prp1.bb3>

000000008040004c <prp1.bb0.l7>:
    8040004c:	58019253          	fsqrt.s	ft4,ft3,rtz

0000000080400050 <prp1.bb0.l8>:
    80400050:	00201097          	auipc	ra,0x201
    80400054:	fd8080e7          	jalr	-40(ra) # 80601028 <fn0.exit>

0000000080400058 <prp1.bb0.l9>:
    80400058:	00000a17          	auipc	s4,0x0
    8040005c:	070a0a13          	addi	s4,s4,112 # 804000c8 <prp1.bb3>
    80400060:	000a0967          	jalr	s2,s4

0000000080400064 <prp1.bb1>:
    80400064:	c210f9d3          	fcvt.wu.d	s3,ft1

0000000080400068 <prp1.bb1.l1>:
    80400068:	c2027953          	fcvt.w.d	s2,ft4

000000008040006c <prp1.bb1.l2>:
    8040006c:	00201097          	auipc	ra,0x201
    80400070:	0e8080e7          	jalr	232(ra) # 80601154 <fn3.exit>

0000000080400074 <prp1.bb1.l3>:
    80400074:	c2327ad3          	fcvt.lu.d	s5,ft4

0000000080400078 <prp1.bb1.l4>:
    80400078:	0841f04f          	fnmadd.s	ft0,ft3,ft4,ft1

000000008040007c <prp1.bb1.l5>:
    8040007c:	0a3010d3          	fsub.d	ft1,ft0,ft3,rtz

0000000080400080 <prp1.bb1.l6>:
    80400080:	0811a053          	fsub.s	ft0,ft3,ft1,rdn

0000000080400084 <prp1.bb1.l7>:
    80400084:	40aa5a9b          	sraiw	s5,s4,0xa

0000000080400088 <prp1.bb1.l8>:
    80400088:	04c93a13          	sltiu	s4,s2,76

000000008040008c <prp1.bb1.l9>:
    8040008c:	c210f9d3          	fcvt.wu.d	s3,ft1

0000000080400090 <prp1.bb1.l10>:
    80400090:	013a0263          	beq	s4,s3,80400094 <prp1.bb2>

0000000080400094 <prp1.bb2>:
    80400094:	20308253          	fsgnj.s	ft4,ft1,ft3

0000000080400098 <prp1.bb2.l1>:
    80400098:	d22af053          	fcvt.d.l	ft0,s5

000000008040009c <prp1.bb2.l2>:
    8040009c:	03598b3b          	mulw	s6,s3,s5

00000000804000a0 <prp1.bb2.l3>:
    804000a0:	c2027b53          	fcvt.w.d	s6,ft4

00000000804000a4 <prp1.bb2.l4>:
    804000a4:	2a1101d3          	fmin.d	ft3,ft2,ft1

00000000804000a8 <prp1.bb2.l5>:
    804000a8:	5a0020d3          	fsqrt.d	ft1,ft0,rdn

00000000804000ac <prp1.bb2.l6>:
    804000ac:	c2207ad3          	fcvt.l.d	s5,ft0

00000000804000b0 <prp1.bb2.l7>:
    804000b0:	00400153          	fadd.s	ft2,ft0,ft4,rne

00000000804000b4 <prp1.bb2.l8>:
    804000b4:	00201097          	auipc	ra,0x201
    804000b8:	f4c080e7          	jalr	-180(ra) # 80601000 <shared>

00000000804000bc <prp1.bb2.l9>:
    804000bc:	00201097          	auipc	ra,0x201
    804000c0:	098080e7          	jalr	152(ra) # 80601154 <fn3.exit>

00000000804000c4 <prp1.bb2.l10>:
    804000c4:	0040096f          	jal	s2,804000c8 <prp1.bb3>

00000000804000c8 <prp1.bb3>:
    804000c8:	036af063          	bgeu	s5,s6,804000e8 <pre_attack1_end>

00000000804000cc <prp1.bb3.l1>:
    804000cc:	0a310247          	fmsub.d	ft4,ft2,ft3,ft1,rne

00000000804000d0 <prp1.bb3.l2>:
    804000d0:	034adb33          	divu	s6,s5,s4

00000000804000d4 <prp1.bb3.l3>:
    804000d4:	4010f0d3          	fcvt.s.d	ft1,ft1

00000000804000d8 <prp1.bb3.l4>:
    804000d8:	00201097          	auipc	ra,0x201
    804000dc:	05c080e7          	jalr	92(ra) # 80601134 <fn2.exit>

00000000804000e0 <prp1.bb3.l5>:
    804000e0:	c0107a53          	fcvt.wu.s	s4,ft0

00000000804000e4 <prp1.bb3.l6>:
    804000e4:	0129f263          	bgeu	s3,s2,804000e8 <pre_attack1_end>

00000000804000e8 <pre_attack1_end>:
    804000e8:	00200097          	auipc	ra,0x200
    804000ec:	f18080e7          	jalr	-232(ra) # 80600000 <attack>

Disassembly of section .text.attack:

0000000080600000 <attack>:
    80600000:	10013253          	fmul.s	ft4,ft2,ft0,rup

0000000080600004 <tc.entry.l1>:
    80600004:	3f897913          	andi	s2,s2,1016
    80600008:	00004a97          	auipc	s5,0x4
    8060000c:	ff8a8a93          	addi	s5,s5,-8 # 80604000 <data2>
    80600010:	01590933          	add	s2,s2,s5
    80600014:	21392a2f          	amoxor.w	s4,s3,(s2)

0000000080600018 <tc.entry.l2>:
    80600018:	001241c7          	fmsub.s	ft3,ft4,ft1,ft0,rmm

000000008060001c <tc.entry.l3>:
    8060001c:	00000a97          	auipc	s5,0x0
    80600020:	014a8a93          	addi	s5,s5,20 # 80600030 <tc.bb0>
    80600024:	000a89e7          	jalr	s3,s5

0000000080600028 <tc.entry.l4>:
    80600028:	0169f933          	and	s2,s3,s6

000000008060002c <tc.entry.l5>:
    8060002c:	01494263          	blt	s2,s4,80600030 <tc.bb0>

0000000080600030 <tc.bb0>:
    80600030:	032ae9b3          	rem	s3,s5,s2

0000000080600034 <tc.bb0.l1>:
    80600034:	02408153          	fadd.d	ft2,ft1,ft4,rne

0000000080600038 <tc.bb0.l2>:
    80600038:	f20a80d3          	fmv.d.x	ft1,s5

000000008060003c <tc.bb0.l3>:
    8060003c:	03598b33          	mul	s6,s3,s5

0000000080600040 <tc.bb0.l4>:
    80600040:	004071d3          	fadd.s	ft3,ft0,ft4

0000000080600044 <tc.bb0.l5>:
    80600044:	00c4ca97          	auipc	s5,0xc4c

0000000080600048 <tc.bb0.l6>:
    80600048:	015b4263          	blt	s6,s5,8060004c <tc.bb1>

000000008060004c <tc.bb1>:
    8060004c:	7dd000ef          	jal	ra,80601028 <fn0.exit>

0000000080600050 <tc.bb1.l1>:
    80600050:	3f8a7a13          	andi	s4,s4,1016
    80600054:	00005b17          	auipc	s6,0x5
    80600058:	facb0b13          	addi	s6,s6,-84 # 80605000 <data3>
    8060005c:	016a0a33          	add	s4,s4,s6
    80600060:	012a1a23          	sh	s2,20(s4)

0000000080600064 <tc.bb1.l2>:
    80600064:	79d000ef          	jal	ra,80601000 <shared>

0000000080600068 <tc.bb1.l3>:
    80600068:	0000100f          	fence.i

000000008060006c <tc.bb1.l4>:
    8060006c:	2201f14b          	fnmsub.d	ft2,ft3,ft0,ft4

0000000080600070 <tc.bb1.l5>:
    80600070:	013adb33          	srl	s6,s5,s3

0000000080600074 <tc.bb1.l6>:
    80600074:	20202253          	fsgnjx.s	ft4,ft0,ft2

0000000080600078 <tc.bb1.l7>:
    80600078:	e2011ad3          	fclass.d	s5,ft2

000000008060007c <tc.bb1.l8>:
    8060007c:	00000917          	auipc	s2,0x0
    80600080:	00c90913          	addi	s2,s2,12 # 80600088 <tc.bb2>
    80600084:	00090a67          	jalr	s4,s2

0000000080600088 <tc.bb2>:
    80600088:	c01079d3          	fcvt.wu.s	s3,ft0

000000008060008c <tc.bb2.l1>:
    8060008c:	79caba13          	sltiu	s4,s5,1948

0000000080600090 <tc.bb2.l2>:
    80600090:	3f897913          	andi	s2,s2,1016
    80600094:	00003a17          	auipc	s4,0x3
    80600098:	f6ca0a13          	addi	s4,s4,-148 # 80603000 <data1>
    8060009c:	01490933          	add	s2,s2,s4
    806000a0:	816929af          	amomin.w	s3,s6,(s2)

00000000806000a4 <tc.bb2.l3>:
    806000a4:	03597e63          	bgeu	s2,s5,806000e0 <tc.bb3>

00000000806000a8 <tc.bb2.l4>:
    806000a8:	c011f9d3          	fcvt.wu.s	s3,ft3

00000000806000ac <tc.bb2.l5>:
    806000ac:	3f89f993          	andi	s3,s3,1016
    806000b0:	00007917          	auipc	s2,0x7
    806000b4:	f5090913          	addi	s2,s2,-176 # 80607000 <data5>
    806000b8:	012989b3          	add	s3,s3,s2
    806000bc:	0039b427          	fsd	ft3,8(s3)

00000000806000c0 <tc.bb2.l6>:
    806000c0:	3f8afa93          	andi	s5,s5,1016
    806000c4:	00006a17          	auipc	s4,0x6
    806000c8:	f3ca0a13          	addi	s4,s4,-196 # 80606000 <data4>
    806000cc:	014a8ab3          	add	s5,s5,s4
    806000d0:	100aab2f          	lr.w	s6,(s5)

00000000806000d4 <tc.bb2.l7>:
    806000d4:	00000917          	auipc	s2,0x0
    806000d8:	00c90913          	addi	s2,s2,12 # 806000e0 <tc.bb3>
    806000dc:	00090ae7          	jalr	s5,s2

00000000806000e0 <tc.bb3>:
    806000e0:	033a4b3b          	divw	s6,s4,s3

00000000806000e4 <tc.bb3.l1>:
    806000e4:	3f8afa93          	andi	s5,s5,1016
    806000e8:	00003917          	auipc	s2,0x3
    806000ec:	f1890913          	addi	s2,s2,-232 # 80603000 <data1>
    806000f0:	012a8ab3          	add	s5,s5,s2
    806000f4:	100aba2f          	lr.d	s4,(s5)

00000000806000f8 <tc.bb3.l2>:
    806000f8:	3f897913          	andi	s2,s2,1016
    806000fc:	00004997          	auipc	s3,0x4
    80600100:	f0498993          	addi	s3,s3,-252 # 80604000 <data2>
    80600104:	01390933          	add	s2,s2,s3
    80600108:	e1593a2f          	amomaxu.d	s4,s5,(s2)

000000008060010c <tc.bb3.l3>:
    8060010c:	203170cb          	fnmsub.s	ft1,ft2,ft3,ft4

0000000080600110 <tc.bb3.l4>:
    80600110:	076ac463          	blt	s5,s6,80600178 <attack_end>

0000000080600114 <tc.bb3.l5>:
    80600114:	075b0263          	beq	s6,s5,80600178 <attack_end>

0000000080600118 <tc.bb4>:
    80600118:	41698ab3          	sub	s5,s3,s6

000000008060011c <tc.bb4.l1>:
    8060011c:	c20279d3          	fcvt.w.d	s3,ft4

0000000080600120 <tc.bb4.l2>:
    80600120:	034a8b3b          	mulw	s6,s5,s4

0000000080600124 <tc.bb4.l3>:
    80600124:	3f8a7a13          	andi	s4,s4,1016
    80600128:	00002917          	auipc	s2,0x2
    8060012c:	ed890913          	addi	s2,s2,-296 # 80602000 <data>
    80600130:	012a0a33          	add	s4,s4,s2
    80600134:	013a1e23          	sh	s3,28(s4)

0000000080600138 <tc.bb4.l4>:
    80600138:	3f8b7b13          	andi	s6,s6,1016
    8060013c:	00004a97          	auipc	s5,0x4
    80600140:	ec4a8a93          	addi	s5,s5,-316 # 80604000 <data2>
    80600144:	015b0b33          	add	s6,s6,s5
    80600148:	003b2227          	fsw	ft3,4(s6)

000000008060014c <tc.bb4.l5>:
    8060014c:	c210f9d3          	fcvt.wu.d	s3,ft1

0000000080600150 <tc.bb4.l6>:
    80600150:	02800aef          	jal	s5,80600178 <attack_end>

0000000080600154 <tc.bb4.l7>:
    80600154:	3f8a7a13          	andi	s4,s4,1016
    80600158:	00007917          	auipc	s2,0x7
    8060015c:	ea890913          	addi	s2,s2,-344 # 80607000 <data5>
    80600160:	012a0a33          	add	s4,s4,s2
    80600164:	004a0983          	lb	s3,4(s4)

0000000080600168 <tc.bb4.l8>:
    80600168:	00cb1a1b          	slliw	s4,s6,0xc

000000008060016c <tc.bb4.l9>:
    8060016c:	00000b17          	auipc	s6,0x0
    80600170:	00cb0b13          	addi	s6,s6,12 # 80600178 <attack_end>
    80600174:	000b0967          	jalr	s2,s6

0000000080600178 <attack_end>:
    80600178:	00000073          	ecall
    8060017c:	00000013          	nop

0000000080600180 <spdoc>:
	...
    80600188:	00000013          	nop
    8060018c:	00000013          	nop
    80600190:	00000013          	nop
    80600194:	00000013          	nop
    80600198:	00000013          	nop
    8060019c:	00000013          	nop
    806001a0:	00000013          	nop
    806001a4:	00000013          	nop
    806001a8:	00000013          	nop
    806001ac:	00000013          	nop
    806001b0:	00000013          	nop
    806001b4:	00000013          	nop
    806001b8:	00000013          	nop
    806001bc:	00000013          	nop
    806001c0:	00000013          	nop
    806001c4:	00000013          	nop
    806001c8:	00000013          	nop
    806001cc:	00000013          	nop
    806001d0:	00000013          	nop
    806001d4:	00000013          	nop
    806001d8:	00000013          	nop
    806001dc:	00000013          	nop
    806001e0:	00000013          	nop
    806001e4:	00000013          	nop
    806001e8:	00000013          	nop
    806001ec:	00000013          	nop
    806001f0:	00000013          	nop
    806001f4:	00000013          	nop
    806001f8:	00000013          	nop
    806001fc:	00000013          	nop
    80600200:	00000013          	nop
    80600204:	00000013          	nop
    80600208:	00000013          	nop
    8060020c:	00000013          	nop
    80600210:	00000013          	nop
    80600214:	00000013          	nop
    80600218:	00000013          	nop
    8060021c:	00000013          	nop
    80600220:	00000013          	nop
    80600224:	00000013          	nop
    80600228:	00000013          	nop
    8060022c:	00000013          	nop
    80600230:	00000013          	nop
    80600234:	00000013          	nop
    80600238:	00000013          	nop
    8060023c:	00000013          	nop
    80600240:	00000013          	nop
    80600244:	00000013          	nop
    80600248:	00000013          	nop
    8060024c:	00000013          	nop
    80600250:	00000013          	nop
    80600254:	00000013          	nop
    80600258:	00000013          	nop
    8060025c:	00000013          	nop
    80600260:	00000013          	nop
    80600264:	00000013          	nop
    80600268:	00000013          	nop
    8060026c:	00000013          	nop
    80600270:	00000013          	nop
    80600274:	00000013          	nop
    80600278:	00000013          	nop
    8060027c:	00000013          	nop
    80600280:	00000013          	nop
    80600284:	00000013          	nop
    80600288:	00000013          	nop
    8060028c:	00000013          	nop
    80600290:	00000013          	nop
    80600294:	00000013          	nop
    80600298:	00000013          	nop
    8060029c:	00000013          	nop
    806002a0:	00000013          	nop
    806002a4:	00000013          	nop
    806002a8:	00000013          	nop
    806002ac:	00000013          	nop
    806002b0:	00000013          	nop
    806002b4:	00000013          	nop
    806002b8:	00000013          	nop
    806002bc:	00000013          	nop
    806002c0:	00000013          	nop
    806002c4:	00000013          	nop
    806002c8:	00000013          	nop
    806002cc:	00000013          	nop
    806002d0:	00000013          	nop
    806002d4:	00000013          	nop
    806002d8:	00000013          	nop
    806002dc:	00000013          	nop
    806002e0:	00000013          	nop
    806002e4:	00000013          	nop
    806002e8:	00000013          	nop
    806002ec:	00000013          	nop
    806002f0:	00000013          	nop
    806002f4:	00000013          	nop
    806002f8:	00000013          	nop
    806002fc:	00000013          	nop
    80600300:	00000013          	nop
    80600304:	00000013          	nop
    80600308:	00000013          	nop
    8060030c:	00000013          	nop
    80600310:	00000013          	nop
    80600314:	00000013          	nop
    80600318:	00000013          	nop
    8060031c:	00000013          	nop
    80600320:	00000013          	nop
    80600324:	00000013          	nop
    80600328:	00000013          	nop
    8060032c:	00000013          	nop
    80600330:	00000013          	nop
    80600334:	00000013          	nop
    80600338:	00000013          	nop
    8060033c:	00000013          	nop
    80600340:	00000013          	nop
    80600344:	00000013          	nop
    80600348:	00000013          	nop
    8060034c:	00000013          	nop
    80600350:	00000013          	nop
    80600354:	00000013          	nop
    80600358:	00000013          	nop
    8060035c:	00000013          	nop
    80600360:	00000013          	nop
    80600364:	00000013          	nop
    80600368:	00000013          	nop
    8060036c:	00000013          	nop
    80600370:	00000013          	nop
    80600374:	00000013          	nop
    80600378:	00000013          	nop
    8060037c:	00000013          	nop
    80600380:	00000013          	nop
    80600384:	00000013          	nop
    80600388:	00000013          	nop
    8060038c:	00000013          	nop
    80600390:	00000013          	nop
    80600394:	00000013          	nop
    80600398:	00000013          	nop
    8060039c:	00000013          	nop
    806003a0:	00000013          	nop
    806003a4:	00000013          	nop
    806003a8:	00000013          	nop
    806003ac:	00000013          	nop
    806003b0:	00000013          	nop
    806003b4:	00000013          	nop
    806003b8:	00000013          	nop
    806003bc:	00000013          	nop
    806003c0:	00000013          	nop
    806003c4:	00000013          	nop
    806003c8:	00000013          	nop
    806003cc:	00000013          	nop
    806003d0:	00000013          	nop
    806003d4:	00000013          	nop
    806003d8:	00000013          	nop
    806003dc:	00000013          	nop
    806003e0:	00000013          	nop
    806003e4:	00000013          	nop
    806003e8:	00000013          	nop
    806003ec:	00000013          	nop
    806003f0:	00000013          	nop
    806003f4:	00000013          	nop
    806003f8:	00000013          	nop
    806003fc:	00000013          	nop
    80600400:	00000013          	nop
    80600404:	00000013          	nop
    80600408:	00000013          	nop
    8060040c:	00000013          	nop
    80600410:	00000013          	nop
    80600414:	00000013          	nop
    80600418:	00000013          	nop
    8060041c:	00000013          	nop
    80600420:	00000013          	nop
    80600424:	00000013          	nop
    80600428:	00000013          	nop
    8060042c:	00000013          	nop
    80600430:	00000013          	nop
    80600434:	00000013          	nop
    80600438:	00000013          	nop
    8060043c:	00000013          	nop
    80600440:	00000013          	nop
    80600444:	00000013          	nop
    80600448:	00000013          	nop
    8060044c:	00000013          	nop
    80600450:	00000013          	nop
    80600454:	00000013          	nop
    80600458:	00000013          	nop
    8060045c:	00000013          	nop
    80600460:	00000013          	nop
    80600464:	00000013          	nop
    80600468:	00000013          	nop
    8060046c:	00000013          	nop
    80600470:	00000013          	nop
    80600474:	00000013          	nop
    80600478:	00000013          	nop
    8060047c:	00000013          	nop
    80600480:	00000013          	nop
    80600484:	00000013          	nop
    80600488:	00000013          	nop
    8060048c:	00000013          	nop
    80600490:	00000013          	nop
    80600494:	00000013          	nop
    80600498:	00000013          	nop
    8060049c:	00000013          	nop
    806004a0:	00000013          	nop
    806004a4:	00000013          	nop
    806004a8:	00000013          	nop
    806004ac:	00000013          	nop
    806004b0:	00000013          	nop
    806004b4:	00000013          	nop
    806004b8:	00000013          	nop
    806004bc:	00000013          	nop
    806004c0:	00000013          	nop
    806004c4:	00000013          	nop
    806004c8:	00000013          	nop
    806004cc:	00000013          	nop
    806004d0:	00000013          	nop
    806004d4:	00000013          	nop
    806004d8:	00000013          	nop
    806004dc:	00000013          	nop
    806004e0:	00000013          	nop
    806004e4:	00000013          	nop
    806004e8:	00000013          	nop
    806004ec:	00000013          	nop
    806004f0:	00000013          	nop
    806004f4:	00000013          	nop
    806004f8:	00000013          	nop
    806004fc:	00000013          	nop
    80600500:	00000013          	nop
    80600504:	00000013          	nop
    80600508:	00000013          	nop
    8060050c:	00000013          	nop
    80600510:	00000013          	nop
    80600514:	00000013          	nop
    80600518:	00000013          	nop
    8060051c:	00000013          	nop
    80600520:	00000013          	nop
    80600524:	00000013          	nop
    80600528:	00000013          	nop
    8060052c:	00000013          	nop
    80600530:	00000013          	nop
    80600534:	00000013          	nop
    80600538:	00000013          	nop
    8060053c:	00000013          	nop
    80600540:	00000013          	nop
    80600544:	00000013          	nop
    80600548:	00000013          	nop
    8060054c:	00000013          	nop
    80600550:	00000013          	nop
    80600554:	00000013          	nop
    80600558:	00000013          	nop
    8060055c:	00000013          	nop
    80600560:	00000013          	nop
    80600564:	00000013          	nop
    80600568:	00000013          	nop
    8060056c:	00000013          	nop
    80600570:	00000013          	nop
    80600574:	00000013          	nop
    80600578:	00000013          	nop
    8060057c:	00000013          	nop
    80600580:	00000013          	nop
    80600584:	00000013          	nop
    80600588:	00000013          	nop
    8060058c:	00000013          	nop
    80600590:	00000013          	nop
    80600594:	00000013          	nop
    80600598:	00000013          	nop
    8060059c:	00000013          	nop
    806005a0:	00000013          	nop
    806005a4:	00000013          	nop
    806005a8:	00000013          	nop
    806005ac:	00000013          	nop
    806005b0:	00000013          	nop
    806005b4:	00000013          	nop
    806005b8:	00000013          	nop
    806005bc:	00000013          	nop
    806005c0:	00000013          	nop
    806005c4:	00000013          	nop
    806005c8:	00000013          	nop
    806005cc:	00000013          	nop
    806005d0:	00000013          	nop
    806005d4:	00000013          	nop
    806005d8:	00000013          	nop
    806005dc:	00000013          	nop
    806005e0:	00000013          	nop
    806005e4:	00000013          	nop
    806005e8:	00000013          	nop
    806005ec:	00000013          	nop
    806005f0:	00000013          	nop
    806005f4:	00000013          	nop
    806005f8:	00000013          	nop
    806005fc:	00000013          	nop
    80600600:	00000013          	nop
    80600604:	00000013          	nop
    80600608:	00000013          	nop
    8060060c:	00000013          	nop
    80600610:	00000013          	nop
    80600614:	00000013          	nop
    80600618:	00000013          	nop
    8060061c:	00000013          	nop
    80600620:	00000013          	nop
    80600624:	00000013          	nop
    80600628:	00000013          	nop
    8060062c:	00000013          	nop
    80600630:	00000013          	nop
    80600634:	00000013          	nop
    80600638:	00000013          	nop
    8060063c:	00000013          	nop
    80600640:	00000013          	nop
    80600644:	00000013          	nop
    80600648:	00000013          	nop
    8060064c:	00000013          	nop
    80600650:	00000013          	nop
    80600654:	00000013          	nop
    80600658:	00000013          	nop
    8060065c:	00000013          	nop
    80600660:	00000013          	nop
    80600664:	00000013          	nop
    80600668:	00000013          	nop
    8060066c:	00000013          	nop
    80600670:	00000013          	nop
    80600674:	00000013          	nop
    80600678:	00000013          	nop
    8060067c:	00000013          	nop
    80600680:	00000013          	nop
    80600684:	00000013          	nop
    80600688:	00000013          	nop
    8060068c:	00000013          	nop
    80600690:	00000013          	nop
    80600694:	00000013          	nop
    80600698:	00000013          	nop
    8060069c:	00000013          	nop
    806006a0:	00000013          	nop
    806006a4:	00000013          	nop
    806006a8:	00000013          	nop
    806006ac:	00000013          	nop
    806006b0:	00000013          	nop
    806006b4:	00000013          	nop
    806006b8:	00000013          	nop
    806006bc:	00000013          	nop
    806006c0:	00000013          	nop
    806006c4:	00000013          	nop
    806006c8:	00000013          	nop
    806006cc:	00000013          	nop
    806006d0:	00000013          	nop
    806006d4:	00000013          	nop
    806006d8:	00000013          	nop
    806006dc:	00000013          	nop
    806006e0:	00000013          	nop
    806006e4:	00000013          	nop
    806006e8:	00000013          	nop
    806006ec:	00000013          	nop
    806006f0:	00000013          	nop
    806006f4:	00000013          	nop
    806006f8:	00000013          	nop
    806006fc:	00000013          	nop
    80600700:	00000013          	nop
    80600704:	00000013          	nop
    80600708:	00000013          	nop
    8060070c:	00000013          	nop
    80600710:	00000013          	nop
    80600714:	00000013          	nop
    80600718:	00000013          	nop
    8060071c:	00000013          	nop
    80600720:	00000013          	nop
    80600724:	00000013          	nop
    80600728:	00000013          	nop
    8060072c:	00000013          	nop
    80600730:	00000013          	nop
    80600734:	00000013          	nop
    80600738:	00000013          	nop
    8060073c:	00000013          	nop
    80600740:	00000013          	nop
    80600744:	00000013          	nop
    80600748:	00000013          	nop
    8060074c:	00000013          	nop
    80600750:	00000013          	nop
    80600754:	00000013          	nop
    80600758:	00000013          	nop
    8060075c:	00000013          	nop
    80600760:	00000013          	nop
    80600764:	00000013          	nop
    80600768:	00000013          	nop
    8060076c:	00000013          	nop
    80600770:	00000013          	nop
    80600774:	00000013          	nop
    80600778:	00000013          	nop
    8060077c:	00000013          	nop
    80600780:	00000013          	nop
    80600784:	00000013          	nop
    80600788:	00000013          	nop
    8060078c:	00000013          	nop
    80600790:	00000013          	nop
    80600794:	00000013          	nop
    80600798:	00000013          	nop
    8060079c:	00000013          	nop
    806007a0:	00000013          	nop
    806007a4:	00000013          	nop
    806007a8:	00000013          	nop
    806007ac:	00000013          	nop
    806007b0:	00000013          	nop
    806007b4:	00000013          	nop
    806007b8:	00000013          	nop
    806007bc:	00000013          	nop
    806007c0:	00000013          	nop
    806007c4:	00000013          	nop
    806007c8:	00000013          	nop
    806007cc:	00000013          	nop
    806007d0:	00000013          	nop
    806007d4:	00000013          	nop
    806007d8:	00000013          	nop
    806007dc:	00000013          	nop
    806007e0:	00000013          	nop
    806007e4:	00000013          	nop
    806007e8:	00000013          	nop
    806007ec:	00000013          	nop
    806007f0:	00000013          	nop
    806007f4:	00000013          	nop
    806007f8:	00000013          	nop
    806007fc:	00000013          	nop
    80600800:	00000013          	nop
    80600804:	00000013          	nop
    80600808:	00000013          	nop
    8060080c:	00000013          	nop
    80600810:	00000013          	nop
    80600814:	00000013          	nop
    80600818:	00000013          	nop
    8060081c:	00000013          	nop
    80600820:	00000013          	nop
    80600824:	00000013          	nop
    80600828:	00000013          	nop
    8060082c:	00000013          	nop
    80600830:	00000013          	nop
    80600834:	00000013          	nop
    80600838:	00000013          	nop
    8060083c:	00000013          	nop
    80600840:	00000013          	nop
    80600844:	00000013          	nop
    80600848:	00000013          	nop
    8060084c:	00000013          	nop
    80600850:	00000013          	nop
    80600854:	00000013          	nop
    80600858:	00000013          	nop
    8060085c:	00000013          	nop
    80600860:	00000013          	nop
    80600864:	00000013          	nop
    80600868:	00000013          	nop
    8060086c:	00000013          	nop
    80600870:	00000013          	nop
    80600874:	00000013          	nop
    80600878:	00000013          	nop
    8060087c:	00000013          	nop
    80600880:	00000013          	nop
    80600884:	00000013          	nop
    80600888:	00000013          	nop
    8060088c:	00000013          	nop
    80600890:	00000013          	nop
    80600894:	00000013          	nop
    80600898:	00000013          	nop
    8060089c:	00000013          	nop
    806008a0:	00000013          	nop
    806008a4:	00000013          	nop
    806008a8:	00000013          	nop
    806008ac:	00000013          	nop
    806008b0:	00000013          	nop
    806008b4:	00000013          	nop
    806008b8:	00000013          	nop
    806008bc:	00000013          	nop
    806008c0:	00000013          	nop
    806008c4:	00000013          	nop
    806008c8:	00000013          	nop
    806008cc:	00000013          	nop
    806008d0:	00000013          	nop
    806008d4:	00000013          	nop
    806008d8:	00000013          	nop
    806008dc:	00000013          	nop
    806008e0:	00000013          	nop
    806008e4:	00000013          	nop
    806008e8:	00000013          	nop
    806008ec:	00000013          	nop
    806008f0:	00000013          	nop
    806008f4:	00000013          	nop
    806008f8:	00000013          	nop
    806008fc:	00000013          	nop
    80600900:	00000013          	nop
    80600904:	00000013          	nop
    80600908:	00000013          	nop
    8060090c:	00000013          	nop
    80600910:	00000013          	nop
    80600914:	00000013          	nop
    80600918:	00000013          	nop
    8060091c:	00000013          	nop
    80600920:	00000013          	nop
    80600924:	00000013          	nop
    80600928:	00000013          	nop
    8060092c:	00000013          	nop
    80600930:	00000013          	nop
    80600934:	00000013          	nop
    80600938:	00000013          	nop
    8060093c:	00000013          	nop
    80600940:	00000013          	nop
    80600944:	00000013          	nop
    80600948:	00000013          	nop
    8060094c:	00000013          	nop
    80600950:	00000013          	nop
    80600954:	00000013          	nop
    80600958:	00000013          	nop
    8060095c:	00000013          	nop
    80600960:	00000013          	nop
    80600964:	00000013          	nop
    80600968:	00000013          	nop
    8060096c:	00000013          	nop
    80600970:	00000013          	nop
    80600974:	00000013          	nop
    80600978:	00000013          	nop
    8060097c:	00000013          	nop
    80600980:	00000013          	nop
    80600984:	00000013          	nop
    80600988:	00000013          	nop
    8060098c:	00000013          	nop
    80600990:	00000013          	nop
    80600994:	00000013          	nop
    80600998:	00000013          	nop
    8060099c:	00000013          	nop
    806009a0:	00000013          	nop
    806009a4:	00000013          	nop
    806009a8:	00000013          	nop
    806009ac:	00000013          	nop
    806009b0:	00000013          	nop
    806009b4:	00000013          	nop
    806009b8:	00000013          	nop
    806009bc:	00000013          	nop
    806009c0:	00000013          	nop
    806009c4:	00000013          	nop
    806009c8:	00000013          	nop
    806009cc:	00000013          	nop
    806009d0:	00000013          	nop
    806009d4:	00000013          	nop
    806009d8:	00000013          	nop
    806009dc:	00000013          	nop
    806009e0:	00000013          	nop
    806009e4:	00000013          	nop
    806009e8:	00000013          	nop
    806009ec:	00000013          	nop
    806009f0:	00000013          	nop
    806009f4:	00000013          	nop
    806009f8:	00000013          	nop
    806009fc:	00000013          	nop
    80600a00:	00000013          	nop
    80600a04:	00000013          	nop
    80600a08:	00000013          	nop
    80600a0c:	00000013          	nop
    80600a10:	00000013          	nop
    80600a14:	00000013          	nop
    80600a18:	00000013          	nop
    80600a1c:	00000013          	nop
    80600a20:	00000013          	nop
    80600a24:	00000013          	nop
    80600a28:	00000013          	nop
    80600a2c:	00000013          	nop
    80600a30:	00000013          	nop
    80600a34:	00000013          	nop
    80600a38:	00000013          	nop
    80600a3c:	00000013          	nop
    80600a40:	00000013          	nop
    80600a44:	00000013          	nop
    80600a48:	00000013          	nop
    80600a4c:	00000013          	nop
    80600a50:	00000013          	nop
    80600a54:	00000013          	nop
    80600a58:	00000013          	nop
    80600a5c:	00000013          	nop
    80600a60:	00000013          	nop
    80600a64:	00000013          	nop
    80600a68:	00000013          	nop
    80600a6c:	00000013          	nop
    80600a70:	00000013          	nop
    80600a74:	00000013          	nop
    80600a78:	00000013          	nop
    80600a7c:	00000013          	nop
    80600a80:	00000013          	nop
    80600a84:	00000013          	nop
    80600a88:	00000013          	nop
    80600a8c:	00000013          	nop
    80600a90:	00000013          	nop
    80600a94:	00000013          	nop
    80600a98:	00000013          	nop
    80600a9c:	00000013          	nop
    80600aa0:	00000013          	nop
    80600aa4:	00000013          	nop
    80600aa8:	00000013          	nop
    80600aac:	00000013          	nop
    80600ab0:	00000013          	nop
    80600ab4:	00000013          	nop
    80600ab8:	00000013          	nop
    80600abc:	00000013          	nop
    80600ac0:	00000013          	nop
    80600ac4:	00000013          	nop
    80600ac8:	00000013          	nop
    80600acc:	00000013          	nop
    80600ad0:	00000013          	nop
    80600ad4:	00000013          	nop
    80600ad8:	00000013          	nop
    80600adc:	00000013          	nop
    80600ae0:	00000013          	nop
    80600ae4:	00000013          	nop
    80600ae8:	00000013          	nop
    80600aec:	00000013          	nop
    80600af0:	00000013          	nop
    80600af4:	00000013          	nop
    80600af8:	00000013          	nop
    80600afc:	00000013          	nop
    80600b00:	00000013          	nop
    80600b04:	00000013          	nop
    80600b08:	00000013          	nop
    80600b0c:	00000013          	nop
    80600b10:	00000013          	nop
    80600b14:	00000013          	nop
    80600b18:	00000013          	nop
    80600b1c:	00000013          	nop
    80600b20:	00000013          	nop
    80600b24:	00000013          	nop
    80600b28:	00000013          	nop
    80600b2c:	00000013          	nop
    80600b30:	00000013          	nop
    80600b34:	00000013          	nop
    80600b38:	00000013          	nop
    80600b3c:	00000013          	nop
    80600b40:	00000013          	nop
    80600b44:	00000013          	nop
    80600b48:	00000013          	nop
    80600b4c:	00000013          	nop
    80600b50:	00000013          	nop
    80600b54:	00000013          	nop
    80600b58:	00000013          	nop
    80600b5c:	00000013          	nop
    80600b60:	00000013          	nop
    80600b64:	00000013          	nop
    80600b68:	00000013          	nop
    80600b6c:	00000013          	nop
    80600b70:	00000013          	nop
    80600b74:	00000013          	nop
    80600b78:	00000013          	nop
    80600b7c:	00000013          	nop
    80600b80:	00000013          	nop
    80600b84:	00000013          	nop
    80600b88:	00000013          	nop
    80600b8c:	00000013          	nop
    80600b90:	00000013          	nop
    80600b94:	00000013          	nop
    80600b98:	00000013          	nop
    80600b9c:	00000013          	nop
    80600ba0:	00000013          	nop
    80600ba4:	00000013          	nop
    80600ba8:	00000013          	nop
    80600bac:	00000013          	nop
    80600bb0:	00000013          	nop
    80600bb4:	00000013          	nop
    80600bb8:	00000013          	nop
    80600bbc:	00000013          	nop
    80600bc0:	00000013          	nop
    80600bc4:	00000013          	nop
    80600bc8:	00000013          	nop
    80600bcc:	00000013          	nop
    80600bd0:	00000013          	nop
    80600bd4:	00000013          	nop
    80600bd8:	00000013          	nop
    80600bdc:	00000013          	nop
    80600be0:	00000013          	nop
    80600be4:	00000013          	nop
    80600be8:	00000013          	nop
    80600bec:	00000013          	nop
    80600bf0:	00000013          	nop
    80600bf4:	00000013          	nop
    80600bf8:	00000013          	nop
    80600bfc:	00000013          	nop
    80600c00:	00000013          	nop
    80600c04:	00000013          	nop
    80600c08:	00000013          	nop
    80600c0c:	00000013          	nop
    80600c10:	00000013          	nop
    80600c14:	00000013          	nop
    80600c18:	00000013          	nop
    80600c1c:	00000013          	nop
    80600c20:	00000013          	nop
    80600c24:	00000013          	nop
    80600c28:	00000013          	nop
    80600c2c:	00000013          	nop
    80600c30:	00000013          	nop
    80600c34:	00000013          	nop
    80600c38:	00000013          	nop
    80600c3c:	00000013          	nop
    80600c40:	00000013          	nop
    80600c44:	00000013          	nop
    80600c48:	00000013          	nop
    80600c4c:	00000013          	nop
    80600c50:	00000013          	nop
    80600c54:	00000013          	nop
    80600c58:	00000013          	nop
    80600c5c:	00000013          	nop
    80600c60:	00000013          	nop
    80600c64:	00000013          	nop
    80600c68:	00000013          	nop
    80600c6c:	00000013          	nop
    80600c70:	00000013          	nop
    80600c74:	00000013          	nop
    80600c78:	00000013          	nop
    80600c7c:	00000013          	nop
    80600c80:	00000013          	nop
    80600c84:	00000013          	nop
    80600c88:	00000013          	nop
    80600c8c:	00000013          	nop
    80600c90:	00000013          	nop
    80600c94:	00000013          	nop
    80600c98:	00000013          	nop
    80600c9c:	00000013          	nop
    80600ca0:	00000013          	nop
    80600ca4:	00000013          	nop
    80600ca8:	00000013          	nop
    80600cac:	00000013          	nop
    80600cb0:	00000013          	nop
    80600cb4:	00000013          	nop
    80600cb8:	00000013          	nop
    80600cbc:	00000013          	nop
    80600cc0:	00000013          	nop
    80600cc4:	00000013          	nop
    80600cc8:	00000013          	nop
    80600ccc:	00000013          	nop
    80600cd0:	00000013          	nop
    80600cd4:	00000013          	nop
    80600cd8:	00000013          	nop
    80600cdc:	00000013          	nop
    80600ce0:	00000013          	nop
    80600ce4:	00000013          	nop
    80600ce8:	00000013          	nop
    80600cec:	00000013          	nop
    80600cf0:	00000013          	nop
    80600cf4:	00000013          	nop
    80600cf8:	00000013          	nop
    80600cfc:	00000013          	nop
    80600d00:	00000013          	nop
    80600d04:	00000013          	nop
    80600d08:	00000013          	nop
    80600d0c:	00000013          	nop
    80600d10:	00000013          	nop
    80600d14:	00000013          	nop
    80600d18:	00000013          	nop
    80600d1c:	00000013          	nop
    80600d20:	00000013          	nop
    80600d24:	00000013          	nop
    80600d28:	00000013          	nop
    80600d2c:	00000013          	nop
    80600d30:	00000013          	nop
    80600d34:	00000013          	nop
    80600d38:	00000013          	nop
    80600d3c:	00000013          	nop
    80600d40:	00000013          	nop
    80600d44:	00000013          	nop
    80600d48:	00000013          	nop
    80600d4c:	00000013          	nop
    80600d50:	00000013          	nop
    80600d54:	00000013          	nop
    80600d58:	00000013          	nop
    80600d5c:	00000013          	nop
    80600d60:	00000013          	nop
    80600d64:	00000013          	nop
    80600d68:	00000013          	nop
    80600d6c:	00000013          	nop
    80600d70:	00000013          	nop
    80600d74:	00000013          	nop
    80600d78:	00000013          	nop
    80600d7c:	00000013          	nop
    80600d80:	00000013          	nop
    80600d84:	00000013          	nop
    80600d88:	00000013          	nop
    80600d8c:	00000013          	nop
    80600d90:	00000013          	nop
    80600d94:	00000013          	nop
    80600d98:	00000013          	nop
    80600d9c:	00000013          	nop
    80600da0:	00000013          	nop
    80600da4:	00000013          	nop
    80600da8:	00000013          	nop
    80600dac:	00000013          	nop
    80600db0:	00000013          	nop
    80600db4:	00000013          	nop
    80600db8:	00000013          	nop
    80600dbc:	00000013          	nop
    80600dc0:	00000013          	nop
    80600dc4:	00000013          	nop
    80600dc8:	00000013          	nop
    80600dcc:	00000013          	nop
    80600dd0:	00000013          	nop
    80600dd4:	00000013          	nop
    80600dd8:	00000013          	nop
    80600ddc:	00000013          	nop
    80600de0:	00000013          	nop
    80600de4:	00000013          	nop
    80600de8:	00000013          	nop
    80600dec:	00000013          	nop
    80600df0:	00000013          	nop
    80600df4:	00000013          	nop
    80600df8:	00000013          	nop
    80600dfc:	00000013          	nop
    80600e00:	00000013          	nop
    80600e04:	00000013          	nop
    80600e08:	00000013          	nop
    80600e0c:	00000013          	nop
    80600e10:	00000013          	nop
    80600e14:	00000013          	nop
    80600e18:	00000013          	nop
    80600e1c:	00000013          	nop
    80600e20:	00000013          	nop
    80600e24:	00000013          	nop
    80600e28:	00000013          	nop
    80600e2c:	00000013          	nop
    80600e30:	00000013          	nop
    80600e34:	00000013          	nop
    80600e38:	00000013          	nop
    80600e3c:	00000013          	nop
    80600e40:	00000013          	nop
    80600e44:	00000013          	nop
    80600e48:	00000013          	nop
    80600e4c:	00000013          	nop
    80600e50:	00000013          	nop
    80600e54:	00000013          	nop
    80600e58:	00000013          	nop
    80600e5c:	00000013          	nop
    80600e60:	00000013          	nop
    80600e64:	00000013          	nop
    80600e68:	00000013          	nop
    80600e6c:	00000013          	nop
    80600e70:	00000013          	nop
    80600e74:	00000013          	nop
    80600e78:	00000013          	nop
    80600e7c:	00000013          	nop
    80600e80:	00000013          	nop
    80600e84:	00000013          	nop
    80600e88:	00000013          	nop
    80600e8c:	00000013          	nop
    80600e90:	00000013          	nop
    80600e94:	00000013          	nop
    80600e98:	00000013          	nop
    80600e9c:	00000013          	nop
    80600ea0:	00000013          	nop
    80600ea4:	00000013          	nop
    80600ea8:	00000013          	nop
    80600eac:	00000013          	nop
    80600eb0:	00000013          	nop
    80600eb4:	00000013          	nop
    80600eb8:	00000013          	nop
    80600ebc:	00000013          	nop
    80600ec0:	00000013          	nop
    80600ec4:	00000013          	nop
    80600ec8:	00000013          	nop
    80600ecc:	00000013          	nop
    80600ed0:	00000013          	nop
    80600ed4:	00000013          	nop
    80600ed8:	00000013          	nop
    80600edc:	00000013          	nop
    80600ee0:	00000013          	nop
    80600ee4:	00000013          	nop
    80600ee8:	00000013          	nop
    80600eec:	00000013          	nop
    80600ef0:	00000013          	nop
    80600ef4:	00000013          	nop
    80600ef8:	00000013          	nop
    80600efc:	00000013          	nop
    80600f00:	00000013          	nop
    80600f04:	00000013          	nop
    80600f08:	00000013          	nop
    80600f0c:	00000013          	nop
    80600f10:	00000013          	nop
    80600f14:	00000013          	nop
    80600f18:	00000013          	nop
    80600f1c:	00000013          	nop
    80600f20:	00000013          	nop
    80600f24:	00000013          	nop
    80600f28:	00000013          	nop
    80600f2c:	00000013          	nop
    80600f30:	00000013          	nop
    80600f34:	00000013          	nop
    80600f38:	00000013          	nop
    80600f3c:	00000013          	nop
    80600f40:	00000013          	nop
    80600f44:	00000013          	nop
    80600f48:	00000013          	nop
    80600f4c:	00000013          	nop
    80600f50:	00000013          	nop
    80600f54:	00000013          	nop
    80600f58:	00000013          	nop
    80600f5c:	00000013          	nop
    80600f60:	00000013          	nop
    80600f64:	00000013          	nop
    80600f68:	00000013          	nop
    80600f6c:	00000013          	nop
    80600f70:	00000013          	nop
    80600f74:	00000013          	nop
    80600f78:	00000013          	nop
    80600f7c:	00000013          	nop
    80600f80:	00000013          	nop
    80600f84:	00000013          	nop
    80600f88:	00000013          	nop
    80600f8c:	00000013          	nop
    80600f90:	00000013          	nop
    80600f94:	00000013          	nop
    80600f98:	00000013          	nop
    80600f9c:	00000013          	nop
    80600fa0:	00000013          	nop
    80600fa4:	00000013          	nop
    80600fa8:	00000013          	nop
    80600fac:	00000013          	nop
    80600fb0:	00000013          	nop
    80600fb4:	00000013          	nop
    80600fb8:	00000013          	nop
    80600fbc:	00000013          	nop
    80600fc0:	00000013          	nop
    80600fc4:	00000013          	nop
    80600fc8:	00000013          	nop
    80600fcc:	00000013          	nop
    80600fd0:	00000013          	nop
    80600fd4:	00000013          	nop
    80600fd8:	00000013          	nop
    80600fdc:	00000013          	nop
    80600fe0:	00000013          	nop
    80600fe4:	00000013          	nop
    80600fe8:	00000013          	nop
    80600fec:	00000013          	nop
    80600ff0:	00000013          	nop
    80600ff4:	00000013          	nop
    80600ff8:	00000013          	nop
    80600ffc:	00000013          	nop

0000000080601000 <shared>:
    80601000:	0dccbb93          	sltiu	s7,s9,220

0000000080601004 <fn0.entry.l1>:
    80601004:	a0741cd3          	flt.s	s9,fs0,ft7

0000000080601008 <fn0.entry.l2>:
    80601008:	a0731d53          	flt.s	s10,ft6,ft7

000000008060100c <fn0.entry.l3>:
    8060100c:	20629453          	fsgnjn.s	fs0,ft5,ft6

0000000080601010 <fn0.entry.l4>:
    80601010:	c2137cd3          	fcvt.wu.d	s9,ft6

0000000080601014 <fn0.entry.l5>:
    80601014:	038bdcbb          	divuw	s9,s7,s8

0000000080601018 <fn0.entry.l6>:
    80601018:	e0038bd3          	fmv.x.w	s7,ft7

000000008060101c <fn0.entry.l7>:
    8060101c:	d20c82d3          	fcvt.d.w	ft5,s9

0000000080601020 <fn0.entry.l8>:
    80601020:	019dcbb3          	xor	s7,s11,s9

0000000080601024 <fn0.entry.l9>:
    80601024:	00008067          	ret

0000000080601028 <fn0.exit>:
    80601028:	00000013          	nop
    8060102c:	00000013          	nop
    80601030:	00000013          	nop
    80601034:	00000013          	nop
    80601038:	00000013          	nop
    8060103c:	00000013          	nop
    80601040:	00000013          	nop
    80601044:	00000013          	nop
    80601048:	00000013          	nop
    8060104c:	00000013          	nop
    80601050:	00000013          	nop
    80601054:	00000013          	nop
    80601058:	00000013          	nop
    8060105c:	00000013          	nop
    80601060:	00000013          	nop
    80601064:	00000013          	nop
    80601068:	00000013          	nop
    8060106c:	00000013          	nop
    80601070:	00000013          	nop
    80601074:	00000013          	nop
    80601078:	00000013          	nop
    8060107c:	00000013          	nop
    80601080:	00000013          	nop
    80601084:	00000013          	nop
    80601088:	00000013          	nop
    8060108c:	00000013          	nop
    80601090:	00000013          	nop
    80601094:	00000013          	nop
    80601098:	00000013          	nop
    8060109c:	00000013          	nop
    806010a0:	00000013          	nop
    806010a4:	00000013          	nop
    806010a8:	00000013          	nop
    806010ac:	00000013          	nop
    806010b0:	00000013          	nop
    806010b4:	00000013          	nop
    806010b8:	00000013          	nop
    806010bc:	00000013          	nop
    806010c0:	00000013          	nop
    806010c4:	00000013          	nop
    806010c8:	00000013          	nop
    806010cc:	00000013          	nop
    806010d0:	00000013          	nop
    806010d4:	00000013          	nop
    806010d8:	00000013          	nop
    806010dc:	00000013          	nop
    806010e0:	00000013          	nop
    806010e4:	00000013          	nop
    806010e8:	00000013          	nop
    806010ec:	00000013          	nop
    806010f0:	00000013          	nop
    806010f4:	00000013          	nop
    806010f8:	00000013          	nop
    806010fc:	00000013          	nop

0000000080601100 <fn1.entry>:
    80601100:	d21c8453          	fcvt.d.wu	fs0,s9

0000000080601104 <fn1.entry.l1>:
    80601104:	01bc1d9b          	slliw	s11,s8,0x1b

0000000080601108 <fn1.entry.l2>:
    80601108:	189303d3          	fdiv.s	ft7,ft6,fs1,rne

000000008060110c <fn1.entry.l3>:
    8060110c:	285483d3          	fmin.s	ft7,fs1,ft5

0000000080601110 <fn1.entry.l4>:
    80601110:	c2337cd3          	fcvt.lu.d	s9,ft6

0000000080601114 <fn1.entry.l5>:
    80601114:	00008067          	ret

0000000080601118 <fn1.exit>:
    80601118:	018d5cb3          	srl	s9,s10,s8

000000008060111c <fn2.entry.l1>:
    8060111c:	c212fdd3          	fcvt.wu.d	s11,ft5

0000000080601120 <fn2.entry.l2>:
    80601120:	1a7322d3          	fdiv.d	ft5,ft6,ft7,rdn

0000000080601124 <fn2.entry.l3>:
    80601124:	c004fcd3          	fcvt.w.s	s9,fs1

0000000080601128 <fn2.entry.l4>:
    80601128:	a0539cd3          	flt.s	s9,ft7,ft5

000000008060112c <fn2.entry.l5>:
    8060112c:	226493d3          	fsgnjn.d	ft7,fs1,ft6

0000000080601130 <fn2.entry.l6>:
    80601130:	00008067          	ret

0000000080601134 <fn2.exit>:
    80601134:	0000100f          	fence.i

0000000080601138 <fn3.entry.l1>:
    80601138:	0000100f          	fence.i

000000008060113c <fn3.entry.l2>:
    8060113c:	002d7b93          	andi	s7,s10,2

0000000080601140 <fn3.entry.l3>:
    80601140:	f20b8453          	fmv.d.x	fs0,s7

0000000080601144 <fn3.entry.l4>:
    80601144:	01ac7bb3          	and	s7,s8,s10

0000000080601148 <fn3.entry.l5>:
    80601148:	1a7434d3          	fdiv.d	fs1,fs0,ft7,rup

000000008060114c <fn3.entry.l6>:
    8060114c:	a0748cd3          	fle.s	s9,fs1,ft7

0000000080601150 <fn3.entry.l7>:
    80601150:	00008067          	ret

0000000080601154 <fn3.exit>:
    80601154:	03acebbb          	remw	s7,s9,s10

0000000080601158 <fn4.entry.l1>:
    80601158:	01ac4cb3          	xor	s9,s8,s10

000000008060115c <fn4.entry.l2>:
    8060115c:	c034fbd3          	fcvt.lu.s	s7,fs1

0000000080601160 <fn4.entry.l3>:
    80601160:	0ff0000f          	fence

0000000080601164 <fn4.entry.l4>:
    80601164:	038ccbbb          	divw	s7,s9,s8

0000000080601168 <fn4.entry.l5>:
    80601168:	00008067          	ret

000000008060116c <fn4.exit>:
	...

Disassembly of section .data:

0000000080602000 <data>:
    80602000:	3618                	fld	fa4,40(a2)
    80602002:	c47d16eb          	0xc47d16eb
    80602006:	75bc                	ld	a5,104(a1)
    80602008:	f56826db          	0xf56826db
    8060200c:	c0f0                	sw	a2,68(s1)
    8060200e:	7c624f73          	0x7c624f73
    80602012:	3c32                	fld	fs8,296(sp)
    80602014:	96f6f9f7          	0x96f6f9f7
    80602018:	93ec                	0x93ec
    8060201a:	2b9f f281 7a43      	0x7a43f2812b9f
    80602020:	381c                	fld	fa5,48(s0)
    80602022:	fdfe                	sd	t6,248(sp)
    80602024:	56a2                	lw	a3,40(sp)
    80602026:	6742                	ld	a4,16(sp)
    80602028:	cb04                	sw	s1,16(a4)
    8060202a:	e56c                	sd	a1,200(a0)
    8060202c:	539d                	li	t2,-25
    8060202e:	4672                	lw	a2,28(sp)
    80602030:	b7402147          	fmsub.q	ft2,ft0,fs4,fs6,rdn
    80602034:	c5b5                	beqz	a1,806020a0 <data+0xa0>
    80602036:	3e369b4b          	fnmsub.q	fs6,fa3,ft3,ft7,rtz
    8060203a:	78c29087          	0x78c29087
    8060203e:	0228482f          	0x228482f
    80602042:	a9ae                	fsd	fa1,208(sp)
    80602044:	02a0                	addi	s0,sp,328
    80602046:	26c8eef7          	0x26c8eef7
    8060204a:	f685                	bnez	a3,80601f72 <fn4.exit+0xe06>
    8060204c:	650a99af          	0x650a99af
    80602050:	05ad                	addi	a1,a1,11
    80602052:	31e5f5f7          	0x31e5f5f7
    80602056:	44c839a3          	sd	a2,1107(a6)
    8060205a:	fb2c                	sd	a1,112(a4)
    8060205c:	e575                	bnez	a0,80602148 <data+0x148>
    8060205e:	1caa                	slli	s9,s9,0x2a
    80602060:	5e44                	lw	s1,60(a2)
    80602062:	d406                	sw	ra,40(sp)
    80602064:	25a8dfc7          	0x25a8dfc7
    80602068:	432e                	lw	t1,200(sp)
    8060206a:	afa5                	j	806027e2 <data+0x7e2>
    8060206c:	deaeb8af          	0xdeaeb8af
    80602070:	fc40                	sd	s0,184(s0)
    80602072:	5cfa6053          	0x5cfa6053
    80602076:	30fa                	fld	ft1,440(sp)
    80602078:	ad1f a5eb db62      	0xdb62a5ebad1f
    8060207e:	539d828f          	0x539d828f
    80602082:	cddff4b3          	0xcddff4b3
    80602086:	1014                	addi	a3,sp,32
    80602088:	a0239e23          	sh	sp,-1508(t2)
    8060208c:	45538dbb          	0x45538dbb
    80602090:	89a45e17          	auipc	t3,0x89a45
    80602094:	6f80                	ld	s0,24(a5)
    80602096:	8226                	mv	tp,s1
    80602098:	6d18                	ld	a4,24(a0)
    8060209a:	2c51                	addiw	s8,s8,20
    8060209c:	6d85                	lui	s11,0x1
    8060209e:	96048c1b          	addiw	s8,s1,-1696
    806020a2:	f08e150b          	0xf08e150b
    806020a6:	4930                	lw	a2,80(a0)
    806020a8:	7180                	ld	s0,32(a1)
    806020aa:	0344                	addi	s1,sp,388
    806020ac:	b795                	j	80602010 <data+0x10>
    806020ae:	90f6                	add	ra,ra,t4
    806020b0:	3b8a                	fld	fs7,160(sp)
    806020b2:	b5b6                	fsd	fa3,232(sp)
    806020b4:	6f4c                	ld	a1,152(a4)
    806020b6:	1cba                	slli	s9,s9,0x2e
    806020b8:	76c4                	ld	s1,168(a3)
    806020ba:	6d8c                	ld	a1,24(a1)
    806020bc:	199b03a3          	sb	s9,391(s6)
    806020c0:	0262                	slli	tp,tp,0x18
    806020c2:	5114                	lw	a3,32(a0)
    806020c4:	3302                	fld	ft6,32(sp)
    806020c6:	7661                	lui	a2,0xffff8
    806020c8:	4678                	lw	a4,76(a2)
    806020ca:	fe49                	bnez	a2,80602064 <data+0x64>
    806020cc:	6628                	ld	a0,72(a2)
    806020ce:	8af7c78b          	0x8af7c78b
    806020d2:	04a9                	addi	s1,s1,10
    806020d4:	316a                	fld	ft2,184(sp)
    806020d6:	9e634687          	flq	fa3,-1562(t1)
    806020da:	28d2                	fld	fa7,272(sp)
    806020dc:	bb17e1db          	0xbb17e1db
    806020e0:	32ee572b          	0x32ee572b
    806020e4:	01acfce7          	0x1acfce7
    806020e8:	df31                	beqz	a4,80602044 <data+0x44>
    806020ea:	faf92bcb          	fnmsub.d	fs7,fs2,fa5,ft11,rdn
    806020ee:	e5b8                	sd	a4,72(a1)
    806020f0:	01c06b9b          	0x1c06b9b
    806020f4:	828a9863          	bne	s5,s0,80601124 <fn2.entry.l3>
    806020f8:	fbed                	bnez	a5,806020ea <data+0xea>
    806020fa:	0afe                	slli	s5,s5,0x1f
    806020fc:	d350                	sw	a2,36(a4)
    806020fe:	29d4                	fld	fa3,144(a1)
    80602100:	24e8                	fld	fa0,200(s1)
    80602102:	3e0341a7          	fsq	ft0,995(t1)
    80602106:	73f1                	lui	t2,0xffffc
    80602108:	511e549b          	0x511e549b
    8060210c:	1454                	addi	a3,sp,548
    8060210e:	149f c4e2 91d2      	0x91d2c4e2149f
    80602114:	dffe                	sw	t6,252(sp)
    80602116:	434d                	li	t1,19
    80602118:	504c                	lw	a1,36(s0)
    8060211a:	daba                	sw	a4,116(sp)
    8060211c:	ad9e                	fsd	ft7,216(sp)
    8060211e:	3038d837          	lui	a6,0x3038d
    80602122:	e9d34307          	flq	ft6,-355(t1)
    80602126:	8cdd                	or	s1,s1,a5
    80602128:	86f4                	0x86f4
    8060212a:	c4e2                	sw	s8,72(sp)
    8060212c:	3e31                	addiw	t3,t3,-20
    8060212e:	903c                	0x903c
    80602130:	c7de                	sw	s7,204(sp)
    80602132:	16fa                	slli	a3,a3,0x3e
    80602134:	e59d                	bnez	a1,80602162 <data+0x162>
    80602136:	bdf1                	j	80602012 <data+0x12>
    80602138:	2b6d                	addiw	s6,s6,27
    8060213a:	92d6                	add	t0,t0,s5
    8060213c:	851e                	mv	a0,t2
    8060213e:	f58454af          	0xf58454af
    80602142:	eb1f f20c 6fd5      	0x6fd5f20ceb1f
    80602148:	4f38                	lw	a4,88(a4)
    8060214a:	b208025b          	0xb208025b
    8060214e:	d6ce                	sw	s3,108(sp)
    80602150:	55b1                	li	a1,-20
    80602152:	01fa                	slli	gp,gp,0x1e
    80602154:	6bc4                	ld	s1,144(a5)
    80602156:	65665043          	0x65665043
    8060215a:	2c3a                	fld	fs8,392(sp)
    8060215c:	1212                	slli	tp,tp,0x24
    8060215e:	049d                	addi	s1,s1,7
    80602160:	dc44                	sw	s1,60(s0)
    80602162:	0e96f84f          	fnmadd.q	fa6,fa3,fs1,ft1
    80602166:	7b8c                	ld	a1,48(a5)
    80602168:	52a1                	li	t0,-24
    8060216a:	7c5ecc03          	lbu	s8,1989(t4)
    8060216e:	baf5                	j	80601b6a <fn4.exit+0x9fe>
    80602170:	56c0                	lw	s0,44(a3)
    80602172:	e7ac                	sd	a1,72(a5)
    80602174:	9215                	srli	a2,a2,0x25
    80602176:	c546956f          	jal	a0,8056b5ca <pre_attack1_end+0x16b4e2>
    8060217a:	6bb5                	lui	s7,0xd
    8060217c:	8b61                	andi	a4,a4,24
    8060217e:	bad5                	j	80601b72 <fn4.exit+0xa06>
    80602180:	f5d3f0fb          	0xf5d3f0fb
    80602184:	77b5                	lui	a5,0xfffed
    80602186:	e846aeef          	jal	t4,8056c80a <pre_attack1_end+0x16c722>
    8060218a:	94e5aa97          	auipc	s5,0x94e5a
    8060218e:	3635                	addiw	a2,a2,-19
    80602190:	2a75                	addiw	s4,s4,29
    80602192:	a510                	fsd	fa2,8(a0)
    80602194:	579f0a37          	lui	s4,0x579f0
    80602198:	825f 995c 0120      	0x120995c825f
    8060219e:	8376ee13          	ori	t3,a3,-1993
    806021a2:	312bee17          	auipc	t3,0x312be
    806021a6:	6769                	lui	a4,0x1a
    806021a8:	6ea7ad7b          	0x6ea7ad7b
    806021ac:	176d                	addi	a4,a4,-5
    806021ae:	a294                	fsd	fa3,0(a3)
    806021b0:	c1842a53          	0xc1842a53
    806021b4:	6966                	ld	s2,88(sp)
    806021b6:	4081                	li	ra,0
    806021b8:	e840                	sd	s0,144(s0)
    806021ba:	0eda                	slli	t4,t4,0x16
    806021bc:	6845                	lui	a6,0x11
    806021be:	2c5c                	fld	fa5,152(s0)
    806021c0:	3ea6                	fld	ft9,104(sp)
    806021c2:	9014                	0x9014
    806021c4:	8ca2                	mv	s9,s0
    806021c6:	a4780eeb          	0xa4780eeb
    806021ca:	fc6a                	sd	s10,56(sp)
    806021cc:	4b0d                	li	s6,3
    806021ce:	52f60487          	0x52f60487
    806021d2:	271a                	fld	fa4,384(sp)
    806021d4:	78d8                	ld	a4,176(s1)
    806021d6:	8cdd                	or	s1,s1,a5
    806021d8:	eddc80eb          	0xeddc80eb
    806021dc:	5bb2                	lw	s7,44(sp)
    806021de:	3852                	fld	fa6,304(sp)
    806021e0:	3690cc77          	0x3690cc77
    806021e4:	fed8                	sd	a4,184(a3)
    806021e6:	379e                	fld	fa5,480(sp)
    806021e8:	7881                	lui	a7,0xfffe0
    806021ea:	5c51                	li	s8,-12
    806021ec:	2c5e                	fld	fs8,464(sp)
    806021ee:	d83d                	beqz	s0,80602164 <data+0x164>
    806021f0:	1b17fa0f          	0x1b17fa0f
    806021f4:	c625                	beqz	a2,8060225c <data+0x25c>
    806021f6:	5222                	lw	tp,40(sp)
    806021f8:	1ca6                	slli	s9,s9,0x29
    806021fa:	a029                	j	80602204 <data+0x204>
    806021fc:	4f61                	li	t5,24
    806021fe:	268f284b          	fnmsub.q	fa6,ft10,fs0,ft4,rdn
    80602202:	d62e                	sw	a1,44(sp)
    80602204:	71b28433          	0x71b28433
    80602208:	bfa6                	fsd	fs1,504(sp)
    8060220a:	6382                	ld	t2,0(sp)
    8060220c:	db8e                	sw	gp,244(sp)
    8060220e:	7721                	lui	a4,0xfffe8
    80602210:	a6c1                	j	806025d0 <data+0x5d0>
    80602212:	78fb8f1b          	addiw	t5,s7,1935
    80602216:	fe39                	bnez	a2,80602174 <data+0x174>
    80602218:	2e52                	fld	ft8,272(sp)
    8060221a:	d224                	sw	s1,96(a2)
    8060221c:	29df 9fe5 620d      	0x620d9fe529df
    80602222:	f5e1                	bnez	a1,806021ea <data+0x1ea>
    80602224:	78ac                	ld	a1,112(s1)
    80602226:	a604                	fsd	fs1,8(a2)
    80602228:	7d5d                	lui	s10,0xffff7
    8060222a:	50aa                	lw	ra,168(sp)
    8060222c:	12b1                	addi	t0,t0,-20
    8060222e:	24f4                	fld	fa3,200(s1)
    80602230:	8f12                	mv	t5,tp
    80602232:	6312fe53          	0x6312fe53
    80602236:	5c74                	lw	a3,124(s0)
    80602238:	3110d1fb          	0x3110d1fb
    8060223c:	c0c6                	sw	a7,64(sp)
    8060223e:	7565                	lui	a0,0xffff9
    80602240:	fbc1                	bnez	a5,806021d0 <data+0x1d0>
    80602242:	567d                	li	a2,-1
    80602244:	7e1e                	ld	t3,480(sp)
    80602246:	f156                	sd	s5,160(sp)
    80602248:	3365                	addiw	t1,t1,-7
    8060224a:	66478aaf          	0x66478aaf
    8060224e:	13ae                	slli	t2,t2,0x2b
    80602250:	3232                	fld	ft4,296(sp)
    80602252:	922c                	0x922c
    80602254:	b2837213          	andi	tp,t1,-1240
    80602258:	c3c5b6f7          	0xc3c5b6f7
    8060225c:	d3b668e7          	0xd3b668e7
    80602260:	78f4                	ld	a3,240(s1)
    80602262:	15a9                	addi	a1,a1,-22
    80602264:	3ed0                	fld	fa2,184(a3)
    80602266:	b504                	fsd	fs1,40(a0)
    80602268:	6b9f 13b5 fc33      	0xfc3313b56b9f
    8060226e:	3fba4cfb          	0x3fba4cfb
    80602272:	a69c                	fsd	fa5,8(a3)
    80602274:	e62e                	sd	a1,264(sp)
    80602276:	e6c48e3f 8ec1cae2 	0x8ec1cae2e6c48e3f
    8060227e:	8868                	0x8868
    80602280:	68a9c977          	0x68a9c977
    80602284:	9c46fe57          	0x9c46fe57
    80602288:	39ea                	fld	fs3,184(sp)
    8060228a:	c1c6                	sw	a7,192(sp)
    8060228c:	d39d                	beqz	a5,806021b2 <data+0x1b2>
    8060228e:	2372                	fld	ft6,280(sp)
    80602290:	7556                	ld	a0,368(sp)
    80602292:	542510a7          	0x542510a7
    80602296:	4d35                	li	s10,13
    80602298:	41e8                	lw	a0,68(a1)
    8060229a:	2fb8                	fld	fa4,88(a5)
    8060229c:	57de                	lw	a5,244(sp)
    8060229e:	cd7c                	sw	a5,92(a0)
    806022a0:	38d1                	addiw	a7,a7,-12
    806022a2:	0aff79fb          	0xaff79fb
    806022a6:	cf6e                	sw	s11,156(sp)
    806022a8:	5be6                	lw	s7,120(sp)
    806022aa:	cf5f 6dd7 c1b6      	0xc1b66dd7cf5f
    806022b0:	2a68                	fld	fa0,208(a2)
    806022b2:	c918                	sw	a4,16(a0)
    806022b4:	a0f8                	fsd	fa4,192(s1)
    806022b6:	5aa1                	li	s5,-24
    806022b8:	f444                	sd	s1,168(s0)
    806022ba:	fd02                	sd	zero,184(sp)
    806022bc:	22d6                	fld	ft5,336(sp)
    806022be:	1e7d                	addi	t3,t3,-1
    806022c0:	ced2                	sw	s4,92(sp)
    806022c2:	90243273          	csrrc	tp,0x902,s0
    806022c6:	adce                	fsd	fs3,216(sp)
    806022c8:	aef1                	j	806026a4 <data+0x6a4>
    806022ca:	8f26                	mv	t5,s1
    806022cc:	476d                	li	a4,27
    806022ce:	49af5ab3          	0x49af5ab3
    806022d2:	6b99                	lui	s7,0x6
    806022d4:	f599                	bnez	a1,806021e2 <data+0x1e2>
    806022d6:	b469                	j	80601d60 <fn4.exit+0xbf4>
    806022d8:	7e84                	ld	s1,56(a3)
    806022da:	2234                	fld	fa3,64(a2)
    806022dc:	9069d88f          	0x9069d88f
    806022e0:	6bfa                	ld	s7,408(sp)
    806022e2:	b5ea                	fsd	fs10,232(sp)
    806022e4:	ef5a                	sd	s6,408(sp)
    806022e6:	2411                	addiw	s0,s0,4
    806022e8:	ea74                	sd	a3,208(a2)
    806022ea:	466a                	lw	a2,152(sp)
    806022ec:	4e3a                	lw	t3,140(sp)
    806022ee:	26d7dd53          	0x26d7dd53
    806022f2:	5a94                	lw	a3,48(a3)
    806022f4:	d8f4                	sw	a3,116(s1)
    806022f6:	1698                	addi	a4,sp,864
    806022f8:	bd65                	j	806021b0 <data+0x1b0>
    806022fa:	61108ff7          	0x61108ff7
    806022fe:	9fa5                	addw	a5,a5,s1
    80602300:	0471f9cb          	0x471f9cb
    80602304:	28a5                	addiw	a7,a7,9
    80602306:	ec82                	sd	zero,88(sp)
    80602308:	9ca8                	0x9ca8
    8060230a:	e0ab99ef          	jal	s3,805bb914 <pre_attack1_end+0x1bb82c>
    8060230e:	9645                	srai	a2,a2,0x31
    80602310:	73b17bb3          	0x73b17bb3
    80602314:	a012                	fsd	ft4,0(sp)
    80602316:	981c4c53          	0x981c4c53
    8060231a:	fa292bbb          	0xfa292bbb
    8060231e:	f0a2                	sd	s0,96(sp)
    80602320:	d099b163          	0xd099b163
    80602324:	c62a2c4f          	fnmadd.q	fs8,fs4,ft2,fs8,rdn
    80602328:	cf3d19e7          	0xcf3d19e7
    8060232c:	e670                	sd	a2,200(a2)
    8060232e:	f4fa                	sd	t5,104(sp)
    80602330:	0424                	addi	s1,sp,520
    80602332:	6d4f9c4b          	0x6d4f9c4b
    80602336:	bb29                	j	80602050 <data+0x50>
    80602338:	1552                	slli	a0,a0,0x34
    8060233a:	e575                	bnez	a0,80602426 <data+0x426>
    8060233c:	c8cdb457          	0xc8cdb457
    80602340:	9c60                	0x9c60
    80602342:	0c75                	addi	s8,s8,29
    80602344:	9af8                	0x9af8
    80602346:	1a22                	slli	s4,s4,0x28
    80602348:	d425b1a7          	fsd	ft2,-701(a1)
    8060234c:	f116                	sd	t0,160(sp)
    8060234e:	1681                	addi	a3,a3,-32
    80602350:	16ea                	slli	a3,a3,0x3a
    80602352:	e41d                	bnez	s0,80602380 <data+0x380>
    80602354:	4030                	lw	a2,64(s0)
    80602356:	eecbaadb          	0xeecbaadb
    8060235a:	0d2d                	addi	s10,s10,11
    8060235c:	a149                	j	806027de <data+0x7de>
    8060235e:	40b8                	lw	a4,64(s1)
    80602360:	7d3e                	ld	s10,488(sp)
    80602362:	e948                	sd	a0,144(a0)
    80602364:	86857b57          	0x86857b57
    80602368:	4f49                	li	t5,18
    8060236a:	04e1edaf          	0x4e1edaf
    8060236e:	1b1fb33f 36f3074d 	0x36f3074d1b1fb33f
    80602376:	2a78                	fld	fa4,208(a2)
    80602378:	29b4                	fld	fa3,80(a1)
    8060237a:	68a792a3          	sh	a0,1669(a5) # fffffffffffed685 <secret+0xffffffff7f3ed685>
    8060237e:	50f9                	li	ra,-2
    80602380:	c508                	sw	a0,8(a0)
    80602382:	92c45c67          	0x92c45c67
    80602386:	d17c                	sw	a5,100(a0)
    80602388:	1b4e                	slli	s6,s6,0x33
    8060238a:	7139                	addi	sp,sp,-64
    8060238c:	650ebacf          	0x650ebacf
    80602390:	da007c27          	0xda007c27
    80602394:	d348                	sw	a0,36(a4)
    80602396:	340a                	fld	fs0,160(sp)
    80602398:	45de                	lw	a1,212(sp)
    8060239a:	edd4                	sd	a3,152(a1)
    8060239c:	58d5                	li	a7,-11
    8060239e:	cb5e                	sw	s7,148(sp)
    806023a0:	bcbff7cf          	0xbcbff7cf
    806023a4:	ca8e                	sw	gp,84(sp)
    806023a6:	822e                	mv	tp,a1
    806023a8:	7e6e                	ld	t3,248(sp)
    806023aa:	daa5                	beqz	a3,8060231a <data+0x31a>
    806023ac:	3871                	addiw	a6,a6,-4
    806023ae:	90cd                	srli	s1,s1,0x33
    806023b0:	9832                	add	a6,a6,a2
    806023b2:	d6178d8b          	0xd6178d8b
    806023b6:	ccf4                	sw	a3,92(s1)
    806023b8:	3e28                	fld	fa0,120(a2)
    806023ba:	3726                	fld	fa4,104(sp)
    806023bc:	cd514a77          	0xcd514a77
    806023c0:	da5f d6ac fe1c      	0xfe1cd6acda5f
    806023c6:	d591                	beqz	a1,806022d2 <data+0x2d2>
    806023c8:	7569                	lui	a0,0xffffa
    806023ca:	e2fa                	sd	t5,320(sp)
    806023cc:	fcfb50e3          	bge	s6,a5,8060238c <data+0x38c>
    806023d0:	c4a8                	sw	a0,72(s1)
    806023d2:	c470                	sw	a2,76(s0)
    806023d4:	89d0                	0x89d0
    806023d6:	1176a56f          	jal	a0,8066ccec <data7+0x63cec>
    806023da:	4b28                	lw	a0,80(a4)
    806023dc:	342e                	fld	fs0,232(sp)
    806023de:	3c4c                	fld	fa1,184(s0)
    806023e0:	b6585d83          	lhu	s11,-1179(a6) # 10b65 <_start-0x7ffef49b>
    806023e4:	94df 76d1 7dde      	0x7dde76d194df
    806023ea:	d71d                	beqz	a4,80602318 <data+0x318>
    806023ec:	a44f7feb          	0xa44f7feb
    806023f0:	77b5                	lui	a5,0xfffed
    806023f2:	59ad                	li	s3,-21
    806023f4:	5b76                	lw	s6,124(sp)
    806023f6:	701e                	0x701e
    806023f8:	ab41                	j	80602988 <data+0x988>
    806023fa:	00cc                	addi	a1,sp,68
    806023fc:	5fa0f33b          	0x5fa0f33b
	...

0000000080603000 <data1>:
    80603000:	bb2a                	fsd	fa0,432(sp)
    80603002:	efc0                	sd	s0,152(a5)
    80603004:	9f84                	0x9f84
    80603006:	f02c                	sd	a1,96(s0)
    80603008:	4d50                	lw	a2,28(a0)
    8060300a:	3d7c                	fld	fa5,248(a0)
    8060300c:	e0a6                	sd	s1,64(sp)
    8060300e:	1a46722b          	0x1a46722b
    80603012:	1e1e                	slli	t3,t3,0x27
    80603014:	7e82                	ld	t4,32(sp)
    80603016:	7adf5b0b          	0x7adf5b0b
    8060301a:	9ee4                	0x9ee4
    8060301c:	e1d6                	sd	s5,192(sp)
    8060301e:	c9f0                	sw	a2,84(a1)
    80603020:	a9ef61e7          	0xa9ef61e7
    80603024:	c8e701eb          	0xc8e701eb
    80603028:	3c21                	addiw	s8,s8,-24
    8060302a:	9678                	0x9678
    8060302c:	2c1a                	fld	fs8,384(sp)
    8060302e:	3330                	fld	fa2,96(a4)
    80603030:	5271                	li	tp,-4
    80603032:	433c                	lw	a5,64(a4)
    80603034:	6b8e                	ld	s7,192(sp)
    80603036:	90b8                	0x90b8
    80603038:	df18                	sw	a4,56(a4)
    8060303a:	c420                	sw	s0,72(s0)
    8060303c:	e045                	bnez	s0,806030dc <data1+0xdc>
    8060303e:	fe52                	sd	s4,312(sp)
    80603040:	0020443b          	0x20443b
    80603044:	e491                	bnez	s1,80603050 <data1+0x50>
    80603046:	618a                	ld	gp,128(sp)
    80603048:	7522                	ld	a0,40(sp)
    8060304a:	3dee9027          	0x3dee9027
    8060304e:	cbc8                	sw	a0,20(a5)
    80603050:	e011                	bnez	s0,80603054 <data1+0x54>
    80603052:	73747673          	csrrci	a2,0x737,8
    80603056:	375e                	fld	fa4,496(sp)
    80603058:	2bf4                	fld	fa3,208(a5)
    8060305a:	1fc9                	addi	t6,t6,-14
    8060305c:	7c2e                	ld	s8,232(sp)
    8060305e:	f9d0                	sd	a2,176(a1)
    80603060:	91cda507          	flw	fa0,-1764(s11) # 91c <_start-0x7ffff6e4>
    80603064:	5238                	lw	a4,96(a2)
    80603066:	cfd1                	beqz	a5,80603102 <data1+0x102>
    80603068:	d8d0                	sw	a2,52(s1)
    8060306a:	b8d9e2a7          	0xb8d9e2a7
    8060306e:	4bd9                	li	s7,22
    80603070:	f254                	sd	a3,160(a2)
    80603072:	0079                	c.nop	30
    80603074:	123672d7          	0x123672d7
    80603078:	d202                	sw	zero,36(sp)
    8060307a:	f569                	bnez	a0,80603044 <data1+0x44>
    8060307c:	a17a                	fsd	ft10,128(sp)
    8060307e:	e6e2a047          	fmsub.q	ft0,ft5,fa4,ft8,rdn
    80603082:	06a5dd93          	0x6a5dd93
    80603086:	ccbde68f          	0xccbde68f
    8060308a:	b64e                	fsd	fs3,296(sp)
    8060308c:	bb01e347          	fmsub.d	ft6,ft3,fa6,fs7,unknown
    80603090:	a034f453          	0xa034f453
    80603094:	f422                	sd	s0,40(sp)
    80603096:	1812                	slli	a6,a6,0x24
    80603098:	13f8                	addi	a4,sp,492
    8060309a:	2e64                	fld	fs1,216(a2)
    8060309c:	7ed2                	ld	t4,304(sp)
    8060309e:	0dca                	slli	s11,s11,0x12
    806030a0:	50db73f3          	csrrci	t2,0x50d,22
    806030a4:	c862                	sw	s8,16(sp)
    806030a6:	48a8                	lw	a0,80(s1)
    806030a8:	46aeb5fb          	0x46aeb5fb
    806030ac:	e355                	bnez	a4,80603150 <data1+0x150>
    806030ae:	5058                	lw	a4,36(s0)
    806030b0:	2dc8                	fld	fa0,152(a1)
    806030b2:	eda6                	sd	s1,216(sp)
    806030b4:	0bfc                	addi	a5,sp,476
    806030b6:	e705                	bnez	a4,806030de <data1+0xde>
    806030b8:	39e8                	fld	fa0,240(a1)
    806030ba:	c3d0                	sw	a2,4(a5)
    806030bc:	9196                	add	gp,gp,t0
    806030be:	7724                	ld	s1,104(a4)
    806030c0:	69a9f81b          	0x69a9f81b
    806030c4:	c134                	sw	a3,64(a0)
    806030c6:	e70e                	sd	gp,392(sp)
    806030c8:	555c                	lw	a5,44(a0)
    806030ca:	3ba5                	addiw	s7,s7,-23
    806030cc:	0244                	addi	s1,sp,260
    806030ce:	ed20e93b          	0xed20e93b
    806030d2:	cb01                	beqz	a4,806030e2 <data1+0xe2>
    806030d4:	3748                	fld	fa0,168(a4)
    806030d6:	0b41                	addi	s6,s6,16
    806030d8:	fcc9                	bnez	s1,80603072 <data1+0x72>
    806030da:	7bcc                	ld	a1,176(a5)
    806030dc:	cb0056f7          	0xcb0056f7
    806030e0:	5085                	li	ra,-31
    806030e2:	74f9                	lui	s1,0xffffe
    806030e4:	8c7e7363          	bgeu	t3,t2,806021aa <data+0x1aa>
    806030e8:	53e84a03          	lbu	s4,1342(a6)
    806030ec:	72dd                	lui	t0,0xffff7
    806030ee:	38a5                	addiw	a7,a7,-23
    806030f0:	4e6e                	lw	t3,216(sp)
    806030f2:	aead                	j	8060346c <data1+0x46c>
    806030f4:	1aae                	slli	s5,s5,0x2b
    806030f6:	f526                	sd	s1,168(sp)
    806030f8:	79421ca3          	sh	s4,1945(tp) # 799 <_start-0x7ffff867>
    806030fc:	bdd9                	j	80602fd2 <data+0xfd2>
    806030fe:	6c059287          	0x6c059287
    80603102:	5c74                	lw	a3,124(s0)
    80603104:	e334f1f7          	0xe334f1f7
    80603108:	eeabcc6b          	0xeeabcc6b
    8060310c:	d4a9                	beqz	s1,80603056 <data1+0x56>
    8060310e:	c19f2fab          	0xc19f2fab
    80603112:	60d4                	ld	a3,128(s1)
    80603114:	3a0a                	fld	fs4,160(sp)
    80603116:	5e6d86d3          	0x5e6d86d3
    8060311a:	17daf06b          	0x17daf06b
    8060311e:	348e                	fld	fs1,224(sp)
    80603120:	b5e3096f          	jal	s2,8053347e <pre_attack1_end+0x133396>
    80603124:	8b74e4a3          	0x8b74e4a3
    80603128:	1bdc                	addi	a5,sp,500
    8060312a:	8480                	0x8480
    8060312c:	8a39                	andi	a2,a2,14
    8060312e:	cfc8                	sw	a0,28(a5)
    80603130:	59fe00cb          	fnmsub.s	ft1,ft8,ft11,fa1,rne
    80603134:	1dd5                	addi	s11,s11,-11
    80603136:	51b661bf 6630cfef 	0x6630cfef51b661bf
    8060313e:	bc3c                	fsd	fa5,120(s0)
    80603140:	a4c9                	j	80603402 <data1+0x402>
    80603142:	a5a1                	j	8060378a <data1+0x78a>
    80603144:	0749                	addi	a4,a4,18
    80603146:	8ded                	and	a1,a1,a1
    80603148:	bde4                	fsd	fs1,248(a1)
    8060314a:	29089cc7          	fmsub.s	fs9,fa7,fa6,ft5,rtz
    8060314e:	9a66                	add	s4,s4,s9
    80603150:	bc69                	j	80602bea <data+0xbea>
    80603152:	cce6                	sw	s9,88(sp)
    80603154:	8400                	0x8400
    80603156:	01e2                	slli	gp,gp,0x18
    80603158:	ef98                	sd	a4,24(a5)
    8060315a:	e184                	sd	s1,0(a1)
    8060315c:	61d9                	lui	gp,0x16
    8060315e:	7d2a                	ld	s10,168(sp)
    80603160:	ce68                	sw	a0,92(a2)
    80603162:	dd067d03          	0xdd067d03
    80603166:	91c1                	srli	a1,a1,0x30
    80603168:	9d46                	add	s10,s10,a7
    8060316a:	3bec                	fld	fa1,240(a5)
    8060316c:	33d2                	fld	ft7,304(sp)
    8060316e:	12a5                	addi	t0,t0,-23
    80603170:	e286                	sd	ra,320(sp)
    80603172:	80f5                	srli	s1,s1,0x1d
    80603174:	c9c2                	sw	a6,208(sp)
    80603176:	ecbc                	sd	a5,88(s1)
    80603178:	d028                	sw	a0,96(s0)
    8060317a:	f60e                	sd	gp,296(sp)
    8060317c:	85e0                	0x85e0
    8060317e:	150d                	addi	a0,a0,-29
    80603180:	58fc                	lw	a5,116(s1)
    80603182:	0716                	slli	a4,a4,0x5
    80603184:	155a                	slli	a0,a0,0x36
    80603186:	eed4                	sd	a3,152(a3)
    80603188:	e196                	sd	t0,192(sp)
    8060318a:	4f1e8b53          	0x4f1e8b53
    8060318e:	171ba4af          	0x171ba4af
    80603192:	acc2                	fsd	fa6,88(sp)
    80603194:	8e16                	mv	t3,t0
    80603196:	85d6                	mv	a1,s5
    80603198:	67aa                	ld	a5,136(sp)
    8060319a:	0bd5                	addi	s7,s7,21
    8060319c:	9292                	add	t0,t0,tp
    8060319e:	452d                	li	a0,11
    806031a0:	457c                	lw	a5,76(a0)
    806031a2:	8ac72aa3          	sw	a2,-1867(a4) # fffffffffffe78b5 <secret+0xffffffff7f3e78b5>
    806031a6:	5768                	lw	a0,108(a4)
    806031a8:	27bd                	addiw	a5,a5,15
    806031aa:	b29a                	fsd	ft6,352(sp)
    806031ac:	e651                	bnez	a2,80603238 <data1+0x238>
    806031ae:	3d91                	addiw	s11,s11,-28
    806031b0:	d680408b          	0xd680408b
    806031b4:	ae2a                	fsd	fa0,280(sp)
    806031b6:	d0c6                	sw	a7,96(sp)
    806031b8:	4ee9                	li	t4,26
    806031ba:	2e54                	fld	fa3,152(a2)
    806031bc:	f105                	bnez	a0,806030dc <data1+0xdc>
    806031be:	37e8                	fld	fa0,232(a5)
    806031c0:	4b31                	li	s6,12
    806031c2:	2374e01b          	0x2374e01b
    806031c6:	7844                	ld	s1,176(s0)
    806031c8:	a9fe                	fsd	ft11,208(sp)
    806031ca:	2ada                	fld	fs5,400(sp)
    806031cc:	babd                	j	80602b4a <data+0xb4a>
    806031ce:	3b41                	addiw	s6,s6,-16
    806031d0:	b021ee0b          	0xb021ee0b
    806031d4:	1d54                	addi	a3,sp,692
    806031d6:	fbbea58b          	0xfbbea58b
    806031da:	28b4                	fld	fa3,80(s1)
    806031dc:	1e8e                	slli	t4,t4,0x23
    806031de:	899fa637          	lui	a2,0x899fa
    806031e2:	33c0                	fld	fs0,160(a5)
    806031e4:	9f1a                	add	t5,t5,t1
    806031e6:	ea7c                	sd	a5,208(a2)
    806031e8:	36f1db03          	lhu	s6,879(gp) # 1636f <_start-0x7ffe9c91>
    806031ec:	4c89                	li	s9,2
    806031ee:	2b4ff563          	bgeu	t6,s4,80603498 <data1+0x498>
    806031f2:	9276                	add	tp,tp,t4
    806031f4:	021bf37b          	0x21bf37b
    806031f8:	7f48                	ld	a0,184(a4)
    806031fa:	bca4                	fsd	fs1,120(s1)
    806031fc:	a065                	j	806032a4 <data1+0x2a4>
    806031fe:	e6c4d37b          	0xe6c4d37b
    80603202:	3d90                	fld	fa2,56(a1)
    80603204:	1d92                	slli	s11,s11,0x24
    80603206:	c615                	beqz	a2,80603232 <data1+0x232>
    80603208:	f0e4                	sd	s1,224(s1)
    8060320a:	b0b9                	j	80602a58 <data+0xa58>
    8060320c:	337c                	fld	fa5,224(a4)
    8060320e:	bfcc                	fsd	fa1,184(a5)
    80603210:	856d                	srai	a0,a0,0x1b
    80603212:	0518c497          	auipc	s1,0x518c
    80603216:	c48a                	sw	sp,72(sp)
    80603218:	28ad                	addiw	a7,a7,11
    8060321a:	ee78                	sd	a4,216(a2)
    8060321c:	5c09                	li	s8,-30
    8060321e:	739d                	lui	t2,0xfffe7
    80603220:	6203ef2f          	0x6203ef2f
    80603224:	ce1e                	sw	t2,28(sp)
    80603226:	4f59                	li	t5,22
    80603228:	3ed1                	addiw	t4,t4,-12
    8060322a:	1756238b          	0x1756238b
    8060322e:	9c91                	subw	s1,s1,a2
    80603230:	2eed                	addiw	t4,t4,27
    80603232:	4fb1                	li	t6,12
    80603234:	ffb00f0f          	0xffb00f0f
    80603238:	818a                	mv	gp,sp
    8060323a:	8d6c                	0x8d6c
    8060323c:	9e741343          	fmadd.q	ft6,fs0,ft7,fs3,rtz
    80603240:	957e                	add	a0,a0,t6
    80603242:	5f68                	lw	a0,124(a4)
    80603244:	e74c                	sd	a1,136(a4)
    80603246:	63d1308f          	0x63d1308f
    8060324a:	1de6                	slli	s11,s11,0x39
    8060324c:	c7c1                	beqz	a5,806032d4 <data1+0x2d4>
    8060324e:	ddb9                	beqz	a1,806031ac <data1+0x1ac>
    80603250:	724574f3          	csrrci	s1,0x724,10
    80603254:	1b7fac8f          	0x1b7fac8f
    80603258:	4a027c3b          	0x4a027c3b
    8060325c:	3719                	addiw	a4,a4,-26
    8060325e:	d57f                	0xd57f
    80603260:	098a                	slli	s3,s3,0x2
    80603262:	8924                	0x8924
    80603264:	b57e                	fsd	ft11,168(sp)
    80603266:	9e61                	0x9e61
    80603268:	f4c6                	sd	a7,104(sp)
    8060326a:	4106                	lw	sp,64(sp)
    8060326c:	8711                	srai	a4,a4,0x4
    8060326e:	f971                	bnez	a0,80603242 <data1+0x242>
    80603270:	7a11                	lui	s4,0xfffe4
    80603272:	be25                	j	80602daa <data+0xdaa>
    80603274:	af2a                	fsd	fa0,408(sp)
    80603276:	3f76                	fld	ft10,376(sp)
    80603278:	37cb9d87          	0x37cb9d87
    8060327c:	d69a                	sw	t1,108(sp)
    8060327e:	d0d2                	sw	s4,96(sp)
    80603280:	ad84                	fsd	fs1,24(a1)
    80603282:	b94afc4b          	fnmsub.s	fs8,fs5,fs4,fs7
    80603286:	2790                	fld	fa2,8(a5)
    80603288:	e405                	bnez	s0,806032b0 <data1+0x2b0>
    8060328a:	75c0                	ld	s0,168(a1)
    8060328c:	10c4                	addi	s1,sp,100
    8060328e:	1db5                	addi	s11,s11,-19
    80603290:	5a72                	lw	s4,60(sp)
    80603292:	98f5                	andi	s1,s1,-3
    80603294:	49b4                	lw	a3,80(a1)
    80603296:	787f                	0x787f
    80603298:	2d3c                	fld	fa5,88(a0)
    8060329a:	2d99                	addiw	s11,s11,6
    8060329c:	8e62                	mv	t3,s8
    8060329e:	d0f5                	beqz	s1,80603282 <data1+0x282>
    806032a0:	b58a                	fsd	ft2,232(sp)
    806032a2:	ffff                	0xffff
    806032a4:	6014                	ld	a3,0(s0)
    806032a6:	b362cc3f 084e3224 	0x84e3224b362cc3f
    806032ae:	5e60782b          	0x5e60782b
    806032b2:	306e                	fld	ft0,248(sp)
    806032b4:	35fad5c7          	0x35fad5c7
    806032b8:	665c                	ld	a5,136(a2)
    806032ba:	13b04497          	auipc	s1,0x13b04
    806032be:	e546                	sd	a7,136(sp)
    806032c0:	aa85                	j	80603430 <data1+0x430>
    806032c2:	5ebd                	li	t4,-17
    806032c4:	0db6                	slli	s11,s11,0xd
    806032c6:	0971                	addi	s2,s2,28
    806032c8:	b3d1bf47          	fmsub.d	ft10,ft3,ft9,fs6,rup
    806032cc:	76ed9bcb          	fnmsub.q	fs7,fs11,fa4,fa4,rtz
    806032d0:	2d88                	fld	fa0,24(a1)
    806032d2:	fede                	sd	s7,376(sp)
    806032d4:	84c0                	0x84c0
    806032d6:	aa8f734b          	fnmsub.d	ft6,ft10,fs0,fs5
    806032da:	8632                	mv	a2,a2
    806032dc:	2398                	fld	fa4,0(a5)
    806032de:	28e5                	addiw	a7,a7,25
    806032e0:	2ea4                	fld	fs1,88(a3)
    806032e2:	16cb6d37          	lui	s10,0x16cb6
    806032e6:	77b6                	ld	a5,360(sp)
    806032e8:	854e                	mv	a0,s3
    806032ea:	d8a5                	beqz	s1,8060325a <data1+0x25a>
    806032ec:	bec8db7b          	0xbec8db7b
    806032f0:	a09d                	j	80603356 <data1+0x356>
    806032f2:	6b21                	lui	s6,0x8
    806032f4:	7c8462f3          	csrrsi	t0,0x7c8,8
    806032f8:	0da4                	addi	s1,sp,728
    806032fa:	ea2cc8f3          	0xea2cc8f3
    806032fe:	bd16                	fsd	ft5,184(sp)
    80603300:	227a                	fld	ft4,408(sp)
    80603302:	bbe5                	j	806030fa <data1+0xfa>
    80603304:	913d0ba7          	0x913d0ba7
    80603308:	4d1e                	lw	s10,196(sp)
    8060330a:	3912                	fld	fs2,288(sp)
    8060330c:	9ffa                	add	t6,t6,t5
    8060330e:	4ac1860f          	0x4ac1860f
    80603312:	d95fe093          	ori	ra,t6,-619
    80603316:	3d70                	fld	fa2,248(a0)
    80603318:	5646                	lw	a2,112(sp)
    8060331a:	b4ece287          	0xb4ece287
    8060331e:	9b19                	andi	a4,a4,-26
    80603320:	20f4                	fld	fa3,192(s1)
    80603322:	8ec4                	0x8ec4
    80603324:	9d99                	subw	a1,a1,a4
    80603326:	8909                	andi	a0,a0,2
    80603328:	1a79                	addi	s4,s4,-2
    8060332a:	a9ed                	j	80603824 <data1+0x824>
    8060332c:	a2ec0347          	fmsub.d	ft6,fs8,fa4,fs4,rne
    80603330:	778d                	lui	a5,0xfffe3
    80603332:	13c1ba73          	csrrc	s4,0x13c,gp
    80603336:	44b1                	li	s1,12
    80603338:	32cc                	fld	fa1,160(a3)
    8060333a:	ad68                	fsd	fa0,216(a0)
    8060333c:	bb42                	fsd	fa6,432(sp)
    8060333e:	50d3167b          	0x50d3167b
    80603342:	6078                	ld	a4,192(s0)
    80603344:	84ad                	srai	s1,s1,0xb
    80603346:	1ed9                	addi	t4,t4,-10
    80603348:	604c                	ld	a1,128(s0)
    8060334a:	86e8                	0x86e8
    8060334c:	9102                	jalr	sp
    8060334e:	cb94                	sw	a3,16(a5)
    80603350:	f350                	sd	a2,160(a4)
    80603352:	b36d                	j	806030fc <data1+0xfc>
    80603354:	5ead                	li	t4,-21
    80603356:	8f1a                	mv	t5,t1
    80603358:	5e5c3297          	auipc	t0,0x5e5c3
    8060335c:	97f8                	0x97f8
    8060335e:	fc7a                	sd	t5,56(sp)
    80603360:	d4fd                	beqz	s1,8060334e <data1+0x34e>
    80603362:	92b9                	srli	a3,a3,0x2e
    80603364:	83f0                	0x83f0
    80603366:	cc70                	sw	a2,92(s0)
    80603368:	f0a68277          	0xf0a68277
    8060336c:	6b9f b58f 1b0d      	0x1b0db58f6b9f
    80603372:	1550                	addi	a2,sp,676
    80603374:	5dc5                	li	s11,-15
    80603376:	134d                	addi	t1,t1,-13
    80603378:	a2d0b59b          	0xa2d0b59b
    8060337c:	855c                	0x855c
    8060337e:	8d35                	xor	a0,a0,a3
    80603380:	ad11                	j	80603994 <data1+0x994>
    80603382:	21ce                	fld	ft3,208(sp)
    80603384:	42e4                	lw	s1,68(a3)
    80603386:	089e                	slli	a7,a7,0x7
    80603388:	6d42                	ld	s10,16(sp)
    8060338a:	1e70                	addi	a2,sp,828
    8060338c:	7995                	lui	s3,0xfffe5
    8060338e:	3328                	fld	fa0,96(a4)
    80603390:	146fa5db          	0x146fa5db
    80603394:	fa31                	bnez	a2,806032e8 <data1+0x2e8>
    80603396:	4072                	0x4072
    80603398:	86cc477b          	0x86cc477b
    8060339c:	05f6                	slli	a1,a1,0x1d
    8060339e:	f882                	sd	zero,112(sp)
    806033a0:	0ade                	slli	s5,s5,0x17
    806033a2:	8262                	mv	tp,s8
    806033a4:	3998                	fld	fa4,48(a1)
    806033a6:	f612                	sd	tp,296(sp)
    806033a8:	8f50                	0x8f50
    806033aa:	e7b508cb          	fnmsub.q	fa7,fa0,fs11,ft8,rne
    806033ae:	4b10929b          	0x4b10929b
    806033b2:	bac6                	fsd	fa7,368(sp)
    806033b4:	ad9f bddf 9a73      	0x9a73bddfad9f
    806033ba:	09cc                	addi	a1,sp,212
    806033bc:	8ca06103          	lwu	sp,-1846(zero) # fffffffffffff8ca <secret+0xffffffff7f3ff8ca>
    806033c0:	e091                	bnez	s1,806033c4 <data1+0x3c4>
    806033c2:	6d1f 80cd eee5      	0xeee580cd6d1f
    806033c8:	642d                	lui	s0,0xb
    806033ca:	186bd98f          	0x186bd98f
    806033ce:	94b89fb3          	0x94b89fb3
    806033d2:	7b70148b          	0x7b70148b
    806033d6:	783ba5ab          	0x783ba5ab
    806033da:	af47e007          	0xaf47e007
    806033de:	f2d2                	sd	s4,352(sp)
    806033e0:	7f5f c6f1 6f87      	0x6f87c6f17f5f
    806033e6:	918d                	srli	a1,a1,0x23
    806033e8:	cdb0                	sw	a2,88(a1)
    806033ea:	90c9                	srli	s1,s1,0x32
    806033ec:	a2e5                	j	806035d4 <data1+0x5d4>
    806033ee:	953d446b          	0x953d446b
    806033f2:	c10e                	sw	gp,128(sp)
    806033f4:	c254a64b          	fnmsub.d	fa2,fs1,ft5,fs8,rdn
    806033f8:	0bdf 76a1 be71      	0xbe7176a10bdf
    806033fe:	b014                	fsd	fa3,32(s0)
	...

0000000080604000 <data2>:
    80604000:	32be                	fld	ft5,488(sp)
    80604002:	fd78                	sd	a4,248(a0)
    80604004:	83f9                	srli	a5,a5,0x1e
    80604006:	ef6d384f          	fnmadd.q	fa6,fs10,fs6,ft9,rup
    8060400a:	0df6                	slli	s11,s11,0x1d
    8060400c:	5b3e                	lw	s6,236(sp)
    8060400e:	2682                	fld	fa3,0(sp)
    80604010:	bf8c7baf          	0xbf8c7baf
    80604014:	a3c9                	j	806045d6 <data2+0x5d6>
    80604016:	b048                	fsd	fa0,160(s0)
    80604018:	b8e0                	fsd	fs0,240(s1)
    8060401a:	ffe0768b          	0xffe0768b
    8060401e:	94b4                	0x94b4
    80604020:	67c8                	ld	a0,136(a5)
    80604022:	29768473          	0x29768473
    80604026:	d09f d469 f487      	0xf487d469d09f
    8060402c:	2f98                	fld	fa4,24(a5)
    8060402e:	ace4b997          	auipc	s3,0xace4b
    80604032:	9f24                	0x9f24
    80604034:	23ff                	0x23ff
    80604036:	d6f65aab          	0xd6f65aab
    8060403a:	a3c2ad6f          	jal	s10,8052e276 <pre_attack1_end+0x12e18e>
    8060403e:	71b0                	ld	a2,96(a1)
    80604040:	f906                	sd	ra,176(sp)
    80604042:	949c                	0x949c
    80604044:	b12d                	j	80603c6e <data1+0xc6e>
    80604046:	21da                	fld	ft3,400(sp)
    80604048:	16ce                	slli	a3,a3,0x33
    8060404a:	9dd6                	add	s11,s11,s5
    8060404c:	6340                	ld	s0,128(a4)
    8060404e:	866a35b7          	lui	a1,0x866a3
    80604052:	b371                	j	80603dde <data1+0xdde>
    80604054:	92d6                	add	t0,t0,s5
    80604056:	366c                	fld	fa1,232(a2)
    80604058:	f1ce                	sd	s3,224(sp)
    8060405a:	280d1707          	0x280d1707
    8060405e:	7f0e                	ld	t5,224(sp)
    80604060:	49d5                	li	s3,21
    80604062:	aae4                	fsd	fs1,208(a3)
    80604064:	9659                	srai	a2,a2,0x36
    80604066:	7ad6                	ld	s5,368(sp)
    80604068:	fb35                	bnez	a4,80603fdc <data1+0xfdc>
    8060406a:	4372                	lw	t1,28(sp)
    8060406c:	a23a                	fsd	fa4,256(sp)
    8060406e:	aa6a                	fsd	fs10,272(sp)
    80604070:	06eee86f          	jal	a6,806f20de <data7+0xe90de>
    80604074:	1fb123bb          	0x1fb123bb
    80604078:	1f2a                	slli	t5,t5,0x2a
    8060407a:	6fad                	lui	t6,0xb
    8060407c:	99fd                	andi	a1,a1,-1
    8060407e:	8715                	srai	a4,a4,0x5
    80604080:	1876                	slli	a6,a6,0x3d
    80604082:	6dfd                	lui	s11,0x1f
    80604084:	5878                	lw	a4,116(s0)
    80604086:	4f1a7047          	fmsub.q	ft0,fs4,fa7,fs1
    8060408a:	a8ec                	fsd	fa1,208(s1)
    8060408c:	cd25                	beqz	a0,80604104 <data2+0x104>
    8060408e:	92526293          	ori	t0,tp,-1755
    80604092:	eac69fbf 311bfad9 	0x311bfad9eac69fbf
    8060409a:	7d0c                	ld	a1,56(a0)
    8060409c:	1dc4                	addi	s1,sp,756
    8060409e:	7892                	ld	a7,288(sp)
    806040a0:	ce7e                	sw	t6,28(sp)
    806040a2:	2469                	addiw	s0,s0,26
    806040a4:	05008dfb          	0x5008dfb
    806040a8:	f87d                	bnez	s0,8060409e <data2+0x9e>
    806040aa:	637e                	ld	t1,472(sp)
    806040ac:	80dc                	0x80dc
    806040ae:	0b139527          	0xb139527
    806040b2:	4572                	lw	a0,28(sp)
    806040b4:	fa20                	sd	s0,112(a2)
    806040b6:	5ada                	lw	s5,180(sp)
    806040b8:	9561a4f7          	0x9561a4f7
    806040bc:	d13d                	beqz	a0,80604022 <data2+0x22>
    806040be:	de503ecb          	fnmsub.q	ft9,ft0,ft5,fs11,rup
    806040c2:	21b6                	fld	ft3,328(sp)
    806040c4:	9e6c                	0x9e6c
    806040c6:	c23d                	beqz	a2,8060412c <data2+0x12c>
    806040c8:	dd60                	sw	s0,124(a0)
    806040ca:	d0ec                	sw	a1,100(s1)
    806040cc:	a2d8                	fsd	fa4,128(a3)
    806040ce:	170d11f3          	csrrw	gp,0x170,s10
    806040d2:	fddf 163f 3e29      	0x3e29163ffddf
    806040d8:	341772af          	0x341772af
    806040dc:	98d89127          	0x98d89127
    806040e0:	8ea0                	0x8ea0
    806040e2:	f8a0                	sd	s0,112(s1)
    806040e4:	edd69fd7          	0xedd69fd7
    806040e8:	a5a58953          	0xa5a58953
    806040ec:	5adc                	lw	a5,52(a3)
    806040ee:	b86ef1ab          	0xb86ef1ab
    806040f2:	c24c                	sw	a1,4(a2)
    806040f4:	1c920ec7          	0x1c920ec7
    806040f8:	4418                	lw	a4,8(s0)
    806040fa:	4f90                	lw	a2,24(a5)
    806040fc:	46f6                	lw	a3,92(sp)
    806040fe:	90e09337          	lui	t1,0x90e09
    80604102:	5cac                	lw	a1,120(s1)
    80604104:	3059                	0x3059
    80604106:	c9dc                	sw	a5,20(a1)
    80604108:	ac64                	fsd	fs1,216(s0)
    8060410a:	a0723e1b          	0xa0723e1b
    8060410e:	eede                	sd	s7,344(sp)
    80604110:	db19                	beqz	a4,80604026 <data2+0x26>
    80604112:	9b4d                	andi	a4,a4,-13
    80604114:	0705                	addi	a4,a4,1
    80604116:	8f12                	mv	t5,tp
    80604118:	bb1e250b          	0xbb1e250b
    8060411c:	d6b5                	beqz	a3,80604088 <data2+0x88>
    8060411e:	3f0c                	fld	fa1,56(a4)
    80604120:	48c5                	li	a7,17
    80604122:	9bf2                	add	s7,s7,t3
    80604124:	e1e1                	bnez	a1,806041e4 <data2+0x1e4>
    80604126:	2d7f8c37          	lui	s8,0x2d7f8
    8060412a:	100c                	addi	a1,sp,32
    8060412c:	508c0f63          	beq	s8,s0,8060464a <data2+0x64a>
    80604130:	67a5                	lui	a5,0x9
    80604132:	8fa4                	0x8fa4
    80604134:	7811                	lui	a6,0xfffe4
    80604136:	40a6                	lw	ra,72(sp)
    80604138:	ac11                	j	8060434c <data2+0x34c>
    8060413a:	ea95                	bnez	a3,8060416e <data2+0x16e>
    8060413c:	5fd23bdb          	0x5fd23bdb
    80604140:	8dec                	0x8dec
    80604142:	0fe5                	addi	t6,t6,25
    80604144:	67df dae7 aab6      	0xaab6dae767df
    8060414a:	d432                	sw	a2,40(sp)
    8060414c:	40904e33          	0x40904e33
    80604150:	ef86                	sd	ra,472(sp)
    80604152:	e0de                	sd	s7,64(sp)
    80604154:	3d54                	fld	fa3,184(a0)
    80604156:	82d8                	0x82d8
    80604158:	a47d                	j	80604406 <data2+0x406>
    8060415a:	d50a                	sw	sp,168(sp)
    8060415c:	32ec                	fld	fa1,224(a3)
    8060415e:	7d5e                	ld	s10,496(sp)
    80604160:	353e1bb3          	0x353e1bb3
    80604164:	9e3a                	add	t3,t3,a4
    80604166:	a322                	fsd	fs0,384(sp)
    80604168:	bbcc8cd7          	0xbbcc8cd7
    8060416c:	1dc9                	addi	s11,s11,-14
    8060416e:	e408                	sd	a0,8(s0)
    80604170:	3578                	fld	fa4,232(a0)
    80604172:	4ebd                	li	t4,15
    80604174:	68a5                	lui	a7,0x9
    80604176:	106007eb          	0x106007eb
    8060417a:	fe28331b          	0xfe28331b
    8060417e:	75b9                	lui	a1,0xfffee
    80604180:	5b64d56f          	jal	a0,80651736 <data7+0x48736>
    80604184:	e1f9                	bnez	a1,8060424a <data2+0x24a>
    80604186:	550c                	lw	a1,40(a0)
    80604188:	5332                	lw	t1,44(sp)
    8060418a:	841f 8f20 ee23      	0xee238f20841f
    80604190:	5771                	li	a4,-4
    80604192:	73d890a3          	sh	t4,1825(a7) # 9721 <_start-0x7fff68df>
    80604196:	97be                	add	a5,a5,a5
    80604198:	0f2d5efb          	0xf2d5efb
    8060419c:	d35e                	sw	s7,164(sp)
    8060419e:	7e68f5d3          	0x7e68f5d3
    806041a2:	08a0                	addi	s0,sp,88
    806041a4:	48c1                	li	a7,16
    806041a6:	fe8e                	sd	gp,376(sp)
    806041a8:	c0c8                	sw	a0,4(s1)
    806041aa:	03fa                	slli	t2,t2,0x1e
    806041ac:	9996                	add	s3,s3,t0
    806041ae:	610d                	addi	sp,sp,160
    806041b0:	7976                	ld	s2,376(sp)
    806041b2:	030c6537          	lui	a0,0x30c6
    806041b6:	1628                	addi	a0,sp,808
    806041b8:	29e8                	fld	fa0,208(a1)
    806041ba:	062c                	addi	a1,sp,776
    806041bc:	969d98c7          	fmsub.q	fa7,fs11,fs1,fs2,rtz
    806041c0:	8b24                	0x8b24
    806041c2:	e574                	sd	a3,200(a0)
    806041c4:	f01c                	sd	a5,32(s0)
    806041c6:	306b3dcf          	fnmadd.s	fs11,fs6,ft6,ft6,rup
    806041ca:	cd76b2eb          	0xcd76b2eb
    806041ce:	3886                	fld	fa7,96(sp)
    806041d0:	b68c                	fsd	fa1,40(a3)
    806041d2:	376e                	fld	fa4,248(sp)
    806041d4:	7444                	ld	s1,168(s0)
    806041d6:	6878                	ld	a4,208(s0)
    806041d8:	6122                	ld	sp,8(sp)
    806041da:	f4bc                	sd	a5,104(s1)
    806041dc:	7ab4                	ld	a3,112(a3)
    806041de:	a26e                	fsd	fs11,256(sp)
    806041e0:	7045                	c.lui	zero,0xffff1
    806041e2:	6b9bf14f          	fnmadd.d	ft2,fs7,fs9,fa3
    806041e6:	8a8d                	andi	a3,a3,3
    806041e8:	bcb1                	j	80603c44 <data1+0xc44>
    806041ea:	0229                	addi	tp,tp,10
    806041ec:	9f09                	subw	a4,a4,a0
    806041ee:	8b05                	andi	a4,a4,1
    806041f0:	5368                	lw	a0,100(a4)
    806041f2:	ca28                	sw	a0,80(a2)
    806041f4:	493c460b          	0x493c460b
    806041f8:	cf3a                	sw	a4,156(sp)
    806041fa:	8fdf 9197 24b8      	0x24b891978fdf
    80604200:	e49def2f          	0xe49def2f
    80604204:	aa40                	fsd	fs0,144(a2)
    80604206:	1a58                	addi	a4,sp,308
    80604208:	20e1                	addiw	ra,ra,24
    8060420a:	598d16e3          	bne	s10,s8,80604f96 <data2+0xf96>
    8060420e:	4e3bbde3          	0x4e3bbde3
    80604212:	04c0                	addi	s0,sp,580
    80604214:	b00b98d7          	0xb00b98d7
    80604218:	8526                	mv	a0,s1
    8060421a:	1186                	slli	gp,gp,0x21
    8060421c:	1ea91f1b          	0x1ea91f1b
    80604220:	d551df43          	0xd551df43
    80604224:	811f 4ea1 8a18      	0x8a184ea1811f
    8060422a:	0396f84b          	fnmsub.d	fa6,fa3,fs9,ft0
    8060422e:	23b6                	fld	ft7,328(sp)
    80604230:	79ba                	ld	s3,424(sp)
    80604232:	4b54                	lw	a3,20(a4)
    80604234:	446a                	lw	s0,152(sp)
    80604236:	a99e                	fsd	ft7,208(sp)
    80604238:	fc81                	bnez	s1,80604150 <data2+0x150>
    8060423a:	d8b1baeb          	0xd8b1baeb
    8060423e:	c23e                	sw	a5,4(sp)
    80604240:	4c8d174b          	0x4c8d174b
    80604244:	6f5a                	ld	t5,400(sp)
    80604246:	3795                	addiw	a5,a5,-27
    80604248:	2d0e2c4b          	0x2d0e2c4b
    8060424c:	175e                	slli	a4,a4,0x37
    8060424e:	7661                	lui	a2,0xffff8
    80604250:	ef01                	bnez	a4,80604268 <data2+0x268>
    80604252:	9ad0                	0x9ad0
    80604254:	d771                	beqz	a4,80604220 <data2+0x220>
    80604256:	7b10                	ld	a2,48(a4)
    80604258:	adce                	fsd	fs3,216(sp)
    8060425a:	45e2                	lw	a1,24(sp)
    8060425c:	ee32                	sd	a2,280(sp)
    8060425e:	7bad                	lui	s7,0xfffeb
    80604260:	288d                	addiw	a7,a7,3
    80604262:	5198                	lw	a4,32(a1)
    80604264:	7564                	ld	s1,232(a0)
    80604266:	a68d                	j	806045c8 <data2+0x5c8>
    80604268:	6905                	lui	s2,0x1
    8060426a:	4d4e                	lw	s10,208(sp)
    8060426c:	7291                	lui	t0,0xfffe4
    8060426e:	46ddbd5b          	0x46ddbd5b
    80604272:	f3ad                	bnez	a5,806041d4 <data2+0x1d4>
    80604274:	67eb2563          	0x67eb2563
    80604278:	8ae4                	0x8ae4
    8060427a:	2f5f a123 46d9      	0x46d9a1232f5f
    80604280:	79fc                	ld	a5,240(a1)
    80604282:	bf99                	j	806041d8 <data2+0x1d8>
    80604284:	5a02                	lw	s4,32(sp)
    80604286:	0748                	addi	a0,sp,900
    80604288:	41510633          	sub	a2,sp,s5
    8060428c:	1bcc                	addi	a1,sp,500
    8060428e:	ae28                	fsd	fa0,88(a2)
    80604290:	5c7f                	0x5c7f
    80604292:	d41bcb27          	fsq	ft1,-682(s7) # fffffffffffead56 <secret+0xffffffff7f3ead56>
    80604296:	e15d                	bnez	a0,8060433c <data2+0x33c>
    80604298:	1f613683          	ld	a3,502(sp)
    8060429c:	7ef6                	ld	t4,376(sp)
    8060429e:	8ef0ff8f          	0x8ef0ff8f
    806042a2:	aa68a953          	0xaa68a953
    806042a6:	2796106b          	0x2796106b
    806042aa:	f6be3113          	sltiu	sp,t3,-149
    806042ae:	1a6a                	slli	s4,s4,0x3a
    806042b0:	3989                	addiw	s3,s3,-30
    806042b2:	f448                	sd	a0,168(s0)
    806042b4:	24b9                	addiw	s1,s1,14
    806042b6:	0744                	addi	s1,sp,900
    806042b8:	bf40                	fsd	fs0,184(a4)
    806042ba:	e886                	sd	ra,80(sp)
    806042bc:	0399                	addi	t2,t2,6
    806042be:	79ed                	lui	s3,0xffffb
    806042c0:	6494                	ld	a3,8(s1)
    806042c2:	03da                	slli	t2,t2,0x16
    806042c4:	cc92                	sw	tp,88(sp)
    806042c6:	8150                	0x8150
    806042c8:	e361                	bnez	a4,80604388 <data2+0x388>
    806042ca:	0d4c                	addi	a1,sp,660
    806042cc:	7204                	ld	s1,32(a2)
    806042ce:	0ed4                	addi	a3,sp,852
    806042d0:	196a                	slli	s2,s2,0x3a
    806042d2:	80d5                	srli	s1,s1,0x15
    806042d4:	ffda                	sd	s6,504(sp)
    806042d6:	6a49                	lui	s4,0x12
    806042d8:	a5ff                	0xa5ff
    806042da:	7421                	lui	s0,0xfffe8
    806042dc:	eefa                	sd	t5,344(sp)
    806042de:	d2ce                	sw	s3,100(sp)
    806042e0:	52b1                	li	t0,-20
    806042e2:	f086                	sd	ra,96(sp)
    806042e4:	9a72                	add	s4,s4,t3
    806042e6:	a514                	fsd	fa3,8(a0)
    806042e8:	6122                	ld	sp,8(sp)
    806042ea:	07d6742b          	0x7d6742b
    806042ee:	5844                	lw	s1,52(s0)
    806042f0:	4f15                	li	t5,5
    806042f2:	e591                	bnez	a1,806042fe <data2+0x2fe>
    806042f4:	a0d5                	j	806043d8 <data2+0x3d8>
    806042f6:	449f 0559 a404      	0xa4040559449f
    806042fc:	7b85                	lui	s7,0xfffe1
    806042fe:	2ddf e354 cd13      	0xcd13e3542ddf
    80604304:	c2e2                	sw	s8,68(sp)
    80604306:	eaf4                	sd	a3,208(a3)
    80604308:	34b6                	fld	fs1,360(sp)
    8060430a:	b8717b63          	bgeu	sp,t2,806036a0 <data1+0x6a0>
    8060430e:	b17c                	fsd	fa5,224(a0)
    80604310:	72f9                	lui	t0,0xffffe
    80604312:	e1063fa7          	fsd	fa6,-481(a2) # ffffffffffff7e1f <secret+0xffffffff7f3f7e1f>
    80604316:	636d                	lui	t1,0x1b
    80604318:	d348                	sw	a0,36(a4)
    8060431a:	9015                	srli	s0,s0,0x25
    8060431c:	56b1bdcf          	fnmadd.q	fs11,ft3,fa1,fa0,rup
    80604320:	cc9d818f          	0xcc9d818f
    80604324:	b244                	fsd	fs1,160(a2)
    80604326:	a88d                	j	80604398 <data2+0x398>
    80604328:	81266d33          	0x81266d33
    8060432c:	4871                	li	a6,28
    8060432e:	c5e726ef          	jal	a3,8057678c <pre_attack1_end+0x1766a4>
    80604332:	6af8                	ld	a4,208(a3)
    80604334:	6054cc5b          	0x6054cc5b
    80604338:	9a84c533          	0x9a84c533
    8060433c:	9766                	add	a4,a4,s9
    8060433e:	fe36                	sd	a3,312(sp)
    80604340:	cfc9                	beqz	a5,806043da <data2+0x3da>
    80604342:	8c94                	0x8c94
    80604344:	28ec3c17          	auipc	s8,0x28ec3
    80604348:	fd35                	bnez	a0,806042c4 <data2+0x2c4>
    8060434a:	b308                	fsd	fa0,32(a4)
    8060434c:	8306                	mv	t1,ra
    8060434e:	c685                	beqz	a3,80604376 <data2+0x376>
    80604350:	d7ed                	beqz	a5,8060433a <data2+0x33a>
    80604352:	0fba0467          	jalr	s0,251(s4) # 120fb <_start-0x7ffedf05>
    80604356:	f128                	sd	a0,96(a0)
    80604358:	ba35                	j	80603c94 <data1+0xc94>
    8060435a:	1bba                	slli	s7,s7,0x2e
    8060435c:	597d                	li	s2,-1
    8060435e:	12d4                	addi	a3,sp,356
    80604360:	231c                	fld	fa5,0(a4)
    80604362:	8efe                	mv	t4,t6
    80604364:	1499                	addi	s1,s1,-26
    80604366:	fad900b3          	0xfad900b3
    8060436a:	8de4                	0x8de4
    8060436c:	de21                	beqz	a2,806042c4 <data2+0x2c4>
    8060436e:	b442                	fsd	fa6,40(sp)
    80604370:	08b44e7b          	0x8b44e7b
    80604374:	305a                	fld	ft0,432(sp)
    80604376:	9254                	0x9254
    80604378:	14dbd5bb          	0x14dbd5bb
    8060437c:	a5c9                	j	80604a3e <data2+0xa3e>
    8060437e:	d1fa                	sw	t5,224(sp)
    80604380:	0eaa                	slli	t4,t4,0xa
    80604382:	c4ac                	sw	a1,72(s1)
    80604384:	d708                	sw	a0,40(a4)
    80604386:	4240                	lw	s0,4(a2)
    80604388:	b0f5                	j	80603c74 <data1+0xc74>
    8060438a:	5574                	lw	a3,108(a0)
    8060438c:	fe59                	bnez	a2,8060432a <data2+0x32a>
    8060438e:	d4d8                	sw	a4,44(s1)
    80604390:	47e1                	li	a5,24
    80604392:	caaa6e83          	lwu	t4,-854(s4)
    80604396:	ead6                	sd	s5,336(sp)
    80604398:	e1518a2b          	0xe1518a2b
    8060439c:	6836                	ld	a6,328(sp)
    8060439e:	1b2e                	slli	s6,s6,0x2b
    806043a0:	4264                	lw	s1,68(a2)
    806043a2:	12f0                	addi	a2,sp,364
    806043a4:	c6d2                	sw	s4,76(sp)
    806043a6:	f5a9                	bnez	a1,806042f0 <data2+0x2f0>
    806043a8:	6c69                	lui	s8,0x1a
    806043aa:	654e                	ld	a0,208(sp)
    806043ac:	dc9f b819 1179      	0x1179b819dc9f
    806043b2:	7a59                	lui	s4,0xffff6
    806043b4:	8320                	0x8320
    806043b6:	24ed                	addiw	s1,s1,27
    806043b8:	7da5                	lui	s11,0xfffe9
    806043ba:	d195                	beqz	a1,806042de <data2+0x2de>
    806043bc:	e044                	sd	s1,128(s0)
    806043be:	d158                	sw	a4,36(a0)
    806043c0:	0145                	addi	sp,sp,17
    806043c2:	b984                	fsd	fs1,48(a1)
    806043c4:	b6db9e77          	0xb6db9e77
    806043c8:	90b67dbf ff766416 	0xff76641690b67dbf
    806043d0:	34c4                	fld	fs1,168(s1)
    806043d2:	910d                	srli	a0,a0,0x23
    806043d4:	427a                	lw	tp,156(sp)
    806043d6:	c082                	sw	zero,64(sp)
    806043d8:	d1082e57          	0xd1082e57
    806043dc:	eafa                	sd	t5,336(sp)
    806043de:	8620                	0x8620
    806043e0:	7165                	addi	sp,sp,-400
    806043e2:	8481                	c.srai64	s1
    806043e4:	73be                	ld	t2,488(sp)
    806043e6:	081f7ebb          	0x81f7ebb
    806043ea:	4bca                	lw	s7,144(sp)
    806043ec:	78d1                	lui	a7,0xffff4
    806043ee:	0bb8                	addi	a4,sp,472
    806043f0:	1204                	addi	s1,sp,288
    806043f2:	d16a                	sw	s10,160(sp)
    806043f4:	f42686bf 35299ccd 	0x35299ccdf42686bf
    806043fc:	0e0e                	slli	t3,t3,0x3
    806043fe:	0000564b          	fnmsub.s	fa2,ft0,ft0,ft0,unknown
	...

0000000080605000 <data3>:
    80605000:	5515                	li	a0,-27
    80605002:	9f5f b9ea a6da      	0xa6dab9ea9f5f
    80605008:	16d7facb          	fnmsub.q	fs5,fa5,fa3,ft2
    8060500c:	66dbeeeb          	0x66dbeeeb
    80605010:	a730                	fsd	fa2,72(a4)
    80605012:	2d3d                	addiw	s10,s10,15
    80605014:	d6b1fabb          	0xd6b1fabb
    80605018:	4f1c                	lw	a5,24(a4)
    8060501a:	ec2d                	bnez	s0,80605094 <data3+0x94>
    8060501c:	56bc                	lw	a5,104(a3)
    8060501e:	2e7dae3f a6146f21 	0xa6146f212e7dae3f
    80605026:	c8d8                	sw	a4,20(s1)
    80605028:	0b295dbf 336cec43 	0x336cec430b295dbf
    80605030:	fbe8                	sd	a0,240(a5)
    80605032:	bcc6653f 859b811d 	0x859b811dbcc6653f
    8060503a:	1a5e                	slli	s4,s4,0x37
    8060503c:	c33d                	beqz	a4,806050a2 <data3+0xa2>
    8060503e:	267a82c7          	fmsub.q	ft5,fs5,ft7,ft4,rne
    80605042:	1d85                	addi	s11,s11,-31
    80605044:	e788043b          	0xe788043b
    80605048:	fe09                	bnez	a2,80604f62 <data2+0xf62>
    8060504a:	5ce1                	li	s9,-8
    8060504c:	1f5d                	addi	t5,t5,-9
    8060504e:	9609                	srai	a2,a2,0x22
    80605050:	6b96474f          	fnmadd.d	fa4,fa2,fs9,fa3,rmm
    80605054:	ba68c4f3          	0xba68c4f3
    80605058:	9d70                	0x9d70
    8060505a:	7323c833          	0x7323c833
    8060505e:	f0bc                	sd	a5,96(s1)
    80605060:	25e1                	addiw	a1,a1,24
    80605062:	2acc                	fld	fa1,144(a3)
    80605064:	544a                	lw	s0,176(sp)
    80605066:	3aa6                	fld	fs5,104(sp)
    80605068:	6d76faab          	0x6d76faab
    8060506c:	f605                	bnez	a2,80604f94 <data2+0xf94>
    8060506e:	b161bb17          	auipc	s6,0xb161b
    80605072:	a710                	fsd	fa2,8(a4)
    80605074:	1ddee07b          	0x1ddee07b
    80605078:	06d8                	addi	a4,sp,836
    8060507a:	f591                	bnez	a1,80604f86 <data2+0xf86>
    8060507c:	3a79                	addiw	s4,s4,-2
    8060507e:	e8b1                	bnez	s1,806050d2 <data3+0xd2>
    80605080:	b966                	fsd	fs9,176(sp)
    80605082:	f3a8                	sd	a0,96(a5)
    80605084:	9c925257          	0x9c925257
    80605088:	b731a413          	slti	s0,gp,-1165
    8060508c:	a7aa                	fsd	fa0,456(sp)
    8060508e:	03b8                	addi	a4,sp,456
    80605090:	d6b0                	sw	a2,104(a3)
    80605092:	99dd                	andi	a1,a1,-9
    80605094:	c274                	sw	a3,68(a2)
    80605096:	4bd6                	lw	s7,84(sp)
    80605098:	599a                	lw	s3,164(sp)
    8060509a:	a785034f          	fnmadd.q	ft6,fa0,fs8,fs4,rne
    8060509e:	a23c                	fsd	fa5,64(a2)
    806050a0:	5898                	lw	a4,48(s1)
    806050a2:	f974                	sd	a3,240(a0)
    806050a4:	e4ec                	sd	a1,200(s1)
    806050a6:	96ae                	add	a3,a3,a1
    806050a8:	bf24                	fsd	fs1,120(a4)
    806050aa:	a4dc                	fsd	fa5,136(s1)
    806050ac:	fa74ed5b          	0xfa74ed5b
    806050b0:	411a3a8b          	0x411a3a8b
    806050b4:	1a264ca7          	fsq	ft2,441(a2)
    806050b8:	262c                	fld	fa1,72(a2)
    806050ba:	1f75                	addi	t5,t5,-3
    806050bc:	5882                	lw	a7,32(sp)
    806050be:	92d6                	add	t0,t0,s5
    806050c0:	c4f0                	sw	a2,76(s1)
    806050c2:	62f4                	ld	a3,192(a3)
    806050c4:	1091                	addi	ra,ra,-28
    806050c6:	6a342ec3          	fmadd.d	ft9,fs0,ft3,fa3,rdn
    806050ca:	9380                	0x9380
    806050cc:	e80a1877          	0xe80a1877
    806050d0:	27ae                	fld	fa5,200(sp)
    806050d2:	4360                	lw	s0,68(a4)
    806050d4:	ac1a4efb          	0xac1a4efb
    806050d8:	1d7f                	0x1d7f
    806050da:	c2e5                	beqz	a3,806051ba <data3+0x1ba>
    806050dc:	6ceb9ef7          	0x6ceb9ef7
    806050e0:	3e51                	addiw	t3,t3,-12
    806050e2:	9c38                	0x9c38
    806050e4:	6a3e                	ld	s4,456(sp)
    806050e6:	e856                	sd	s5,16(sp)
    806050e8:	7359                	lui	t1,0xffff6
    806050ea:	d1c5201b          	0xd1c5201b
    806050ee:	23a961b3          	0x23a961b3
    806050f2:	c549cc17          	auipc	s8,0xc549c
    806050f6:	9581                	srai	a1,a1,0x20
    806050f8:	0049                	c.nop	18
    806050fa:	62a5                	lui	t0,0x9
    806050fc:	5c5a                	lw	s8,180(sp)
    806050fe:	0358                	addi	a4,sp,388
    80605100:	5eb6                	lw	t4,108(sp)
    80605102:	d8ae                	sw	a1,112(sp)
    80605104:	d27e                	sw	t6,36(sp)
    80605106:	edc4                	sd	s1,152(a1)
    80605108:	3175                	addiw	sp,sp,-3
    8060510a:	7da5                	lui	s11,0xfffe9
    8060510c:	1026                	c.slli	zero,0x29
    8060510e:	0028                	addi	a0,sp,8
    80605110:	0d20                	addi	s0,sp,664
    80605112:	82d42307          	flw	ft6,-2003(s0) # fffffffffffe782d <secret+0xffffffff7f3e782d>
    80605116:	921c                	0x921c
    80605118:	5e1c                	lw	a5,56(a2)
    8060511a:	f8f4                	sd	a3,240(s1)
    8060511c:	bc89d5a3          	0xbc89d5a3
    80605120:	a762                	fsd	fs8,392(sp)
    80605122:	3a3a                	fld	fs4,424(sp)
    80605124:	84d1                	srai	s1,s1,0x14
    80605126:	ce2376cf          	fnmadd.q	fa3,ft6,ft2,fs9
    8060512a:	c200                	sw	s0,0(a2)
    8060512c:	f511                	bnez	a0,80605038 <data3+0x38>
    8060512e:	691c                	ld	a5,16(a0)
    80605130:	b6a5b067          	0xb6a5b067
    80605134:	3bf9                	addiw	s7,s7,-2
    80605136:	6c98                	ld	a4,24(s1)
    80605138:	42a30b0f          	0x42a30b0f
    8060513c:	b7e8                	fsd	fa0,232(a5)
    8060513e:	4d0d                	li	s10,3
    80605140:	89a6b2a7          	fsd	fs10,-1915(a3)
    80605144:	3bae                	fld	fs7,232(sp)
    80605146:	4288                	lw	a0,0(a3)
    80605148:	e7be                	sd	a5,456(sp)
    8060514a:	24ad                	addiw	s1,s1,11
    8060514c:	3a4a                	fld	fs4,176(sp)
    8060514e:	467e                	lw	a2,220(sp)
    80605150:	9f19                	subw	a4,a4,a4
    80605152:	5996                	lw	s3,100(sp)
    80605154:	31ea                	fld	ft3,184(sp)
    80605156:	c900c61b          	0xc900c61b
    8060515a:	bd734aeb          	0xbd734aeb
    8060515e:	3830                	fld	fa2,112(s0)
    80605160:	2a90                	fld	fa2,16(a3)
    80605162:	0f489037          	lui	zero,0xf489
    80605166:	2aa4c563          	blt	s1,a0,80605410 <data3+0x410>
    8060516a:	1336                	slli	t1,t1,0x2d
    8060516c:	5bad                	li	s7,-21
    8060516e:	fec9d773          	csrrwi	a4,0xfec,19
    80605172:	f86c                	sd	a1,240(s0)
    80605174:	8734                	0x8734
    80605176:	8646                	mv	a2,a7
    80605178:	d540                	sw	s0,44(a0)
    8060517a:	de41                	beqz	a2,80605112 <data3+0x112>
    8060517c:	2c11                	addiw	s8,s8,4
    8060517e:	3bf9                	addiw	s7,s7,-2
    80605180:	57a6                	lw	a5,104(sp)
    80605182:	02a45dfb          	0x2a45dfb
    80605186:	155d80af          	0x155d80af
    8060518a:	8cb1                	xor	s1,s1,a2
    8060518c:	00df 1e7e b326      	0xb3261e7e00df
    80605192:	9c7c                	0x9c7c
    80605194:	29aa2b2b          	0x29aa2b2b
    80605198:	7ed9e983          	lwu	s3,2029(s3) # ffffffffffffb7ed <secret+0xffffffff7f3fb7ed>
    8060519c:	4ea4                	lw	s1,88(a3)
    8060519e:	8c8962c3          	0x8c8962c3
    806051a2:	8ddd                	or	a1,a1,a5
    806051a4:	4688                	lw	a0,8(a3)
    806051a6:	76b9                	lui	a3,0xfffee
    806051a8:	ae32                	fsd	fa2,280(sp)
    806051aa:	bc72                	fsd	ft8,56(sp)
    806051ac:	343a                	fld	fs0,424(sp)
    806051ae:	05f4                	addi	a3,sp,716
    806051b0:	2b3a                	fld	fs6,392(sp)
    806051b2:	5269                	li	tp,-6
    806051b4:	dc62                	sw	s8,56(sp)
    806051b6:	2f8702f7          	0x2f8702f7
    806051ba:	e55a                	sd	s6,136(sp)
    806051bc:	8844                	0x8844
    806051be:	9e66                	add	t3,t3,s9
    806051c0:	231a                	fld	ft6,384(sp)
    806051c2:	75f8                	ld	a4,232(a1)
    806051c4:	c3b0                	sw	a2,64(a5)
    806051c6:	bc59                	j	80604c5c <data2+0xc5c>
    806051c8:	b7ce                	fsd	fs3,488(sp)
    806051ca:	b0cd                	j	80604aac <data2+0xaac>
    806051cc:	7dda                	ld	s11,432(sp)
    806051ce:	6c91                	lui	s9,0x4
    806051d0:	d3a1                	beqz	a5,80605110 <data3+0x110>
    806051d2:	d2363f2f          	0xd2363f2f
    806051d6:	701bcf97          	auipc	t6,0x701bc
    806051da:	c9d8                	sw	a4,20(a1)
    806051dc:	b5c20abb          	0xb5c20abb
    806051e0:	3269                	addiw	tp,tp,-6
    806051e2:	e71a                	sd	t1,392(sp)
    806051e4:	8605                	srai	a2,a2,0x1
    806051e6:	d7b8                	sw	a4,104(a5)
    806051e8:	1bae                	slli	s7,s7,0x2b
    806051ea:	f8b4                	sd	a3,112(s1)
    806051ec:	71ba                	ld	gp,424(sp)
    806051ee:	c54e098b          	0xc54e098b
    806051f2:	4c7f                	0x4c7f
    806051f4:	7342                	ld	t1,48(sp)
    806051f6:	bfb5                	j	80605172 <data3+0x172>
    806051f8:	5991                	li	s3,-28
    806051fa:	97b4                	0x97b4
    806051fc:	938a                	add	t2,t2,sp
    806051fe:	9fec                	0x9fec
    80605200:	d85d                	beqz	s0,806051b6 <data3+0x1b6>
    80605202:	4511                	li	a0,4
    80605204:	637248a7          	fsq	fs7,1585(tp) # 631 <_start-0x7ffff9cf>
    80605208:	a36a                	fsd	fs10,384(sp)
    8060520a:	9511                	srai	a0,a0,0x24
    8060520c:	86cd                	srai	a3,a3,0x13
    8060520e:	61aa                	ld	gp,136(sp)
    80605210:	f3c9                	bnez	a5,80605192 <data3+0x192>
    80605212:	f55b2727          	fsw	fs5,-178(s6) # 31c1ffbc <_start-0x4e3e0044>
    80605216:	1981                	addi	s3,s3,-32
    80605218:	032ac24b          	fnmsub.d	ft4,fs5,fs2,ft0,rmm
    8060521c:	eb20                	sd	s0,80(a4)
    8060521e:	ec5f 316d 7339      	0x7339316dec5f
    80605224:	4dd9                	li	s11,22
    80605226:	5f9e                	lw	t6,228(sp)
    80605228:	91b9                	srli	a1,a1,0x2e
    8060522a:	d235                	beqz	a2,8060518e <data3+0x18e>
    8060522c:	9976                	add	s2,s2,t4
    8060522e:	6cc560ab          	0x6cc560ab
    80605232:	379e                	fld	fa5,480(sp)
    80605234:	ea69                	bnez	a2,80605306 <data3+0x306>
    80605236:	4e40                	lw	s0,28(a2)
    80605238:	64e5                	lui	s1,0x19
    8060523a:	9830                	0x9830
    8060523c:	7591                	lui	a1,0xfffe4
    8060523e:	6602                	ld	a2,0(sp)
    80605240:	bb06ef0b          	0xbb06ef0b
    80605244:	aa2e                	fsd	fa1,272(sp)
    80605246:	92ed                	srli	a3,a3,0x3b
    80605248:	2cd2                	fld	fs9,272(sp)
    8060524a:	589e                	lw	a7,228(sp)
    8060524c:	032d                	addi	t1,t1,11
    8060524e:	ce34                	sw	a3,88(a2)
    80605250:	188c                	addi	a1,sp,112
    80605252:	98c1                	andi	s1,s1,-16
    80605254:	0ccd                	addi	s9,s9,19
    80605256:	6094                	ld	a3,0(s1)
    80605258:	0cc16f6f          	jal	t5,8061b324 <data7+0x12324>
    8060525c:	4e1c                	lw	a5,24(a2)
    8060525e:	6261                	lui	tp,0x18
    80605260:	0ce9                	addi	s9,s9,26
    80605262:	18a0                	addi	s0,sp,120
    80605264:	1d2c05fb          	0x1d2c05fb
    80605268:	23ea                	fld	ft7,152(sp)
    8060526a:	8136                	mv	sp,a3
    8060526c:	593d                	li	s2,-17
    8060526e:	e887b0a3          	sd	s0,-383(a5) # 8e81 <_start-0x7fff717f>
    80605272:	f6ad                	bnez	a3,806051dc <data3+0x1dc>
    80605274:	89a1                	andi	a1,a1,8
    80605276:	3968                	fld	fa0,240(a0)
    80605278:	16a5ab6b          	0x16a5ab6b
    8060527c:	691d                	lui	s2,0x7
    8060527e:	2482                	fld	fs1,0(sp)
    80605280:	1c8e7043          	0x1c8e7043
    80605284:	4bd8                	lw	a4,20(a5)
    80605286:	6269                	lui	tp,0x1a
    80605288:	72f90d2b          	0x72f90d2b
    8060528c:	d8e28563          	beq	t0,a4,80604816 <data2+0x816>
    80605290:	b660c1cb          	fnmsub.q	ft3,ft1,ft6,fs6,rmm
    80605294:	eae0                	sd	s0,208(a3)
    80605296:	5b9f e459 7c7d      	0x7c7de4595b9f
    8060529c:	5f2d                	li	t5,-21
    8060529e:	9934                	0x9934
    806052a0:	9e38                	0x9e38
    806052a2:	68fd                	lui	a7,0x1f
    806052a4:	1558                	addi	a4,sp,676
    806052a6:	9980                	0x9980
    806052a8:	986c                	0x986c
    806052aa:	aaad                	j	80605424 <data3+0x424>
    806052ac:	72a5938b          	0x72a5938b
    806052b0:	3c49                	addiw	s8,s8,-14
    806052b2:	2202                	fld	ft4,0(sp)
    806052b4:	86ca                	mv	a3,s2
    806052b6:	e80a5b3f ac1a0587 	0xac1a0587e80a5b3f
    806052be:	d28c                	sw	a1,32(a3)
    806052c0:	7f8d                	lui	t6,0xfffe3
    806052c2:	61e4                	ld	s1,192(a1)
    806052c4:	7aae9c5b          	0x7aae9c5b
    806052c8:	c259b3bb          	0xc259b3bb
    806052cc:	01fc                	addi	a5,sp,204
    806052ce:	8592                	mv	a1,tp
    806052d0:	906a8573          	0x906a8573
    806052d4:	415c1b07          	0x415c1b07
    806052d8:	eb09                	bnez	a4,806052ea <data3+0x2ea>
    806052da:	0361                	addi	t1,t1,24
    806052dc:	2acc2e47          	fmsub.d	ft8,fs8,fa2,ft5,rdn
    806052e0:	40d5                	li	ra,21
    806052e2:	f41e                	sd	t2,40(sp)
    806052e4:	6fce                	ld	t6,208(sp)
    806052e6:	2c3c                	fld	fa5,88(s0)
    806052e8:	a5d5                	j	806059cc <data3+0x9cc>
    806052ea:	f219                	bnez	a2,806051f0 <data3+0x1f0>
    806052ec:	b57e                	fsd	ft11,168(sp)
    806052ee:	11b0                	addi	a2,sp,232
    806052f0:	05b887d7          	0x5b887d7
    806052f4:	6c9c                	ld	a5,24(s1)
    806052f6:	60c0a9ab          	0x60c0a9ab
    806052fa:	d7a0                	sw	s0,104(a5)
    806052fc:	8aed                	andi	a3,a3,27
    806052fe:	9c61                	0x9c61
    80605300:	be44                	fsd	fs1,184(a2)
    80605302:	3965                	addiw	s2,s2,-7
    80605304:	1470972b          	0x1470972b
    80605308:	f5f1                	bnez	a1,806052d4 <data3+0x2d4>
    8060530a:	1b14                	addi	a3,sp,432
    8060530c:	d291                	beqz	a3,80605210 <data3+0x210>
    8060530e:	c3787e07          	0xc3787e07
    80605312:	09cc                	addi	a1,sp,212
    80605314:	0adb13bf a7ff7c7a 	0xa7ff7c7a0adb13bf
    8060531c:	f98a                	sd	sp,240(sp)
    8060531e:	7d98                	ld	a4,56(a1)
    80605320:	8be4f653          	0x8be4f653
    80605324:	b080de33          	0xb080de33
    80605328:	a22e64fb          	0xa22e64fb
    8060532c:	3b6d                	addiw	s6,s6,-5
    8060532e:	4878                	lw	a4,84(s0)
    80605330:	7c61                	lui	s8,0xffff8
    80605332:	bc3d                	j	80604d70 <data2+0xd70>
    80605334:	9845                	andi	s0,s0,-15
    80605336:	cf0e800f          	0xcf0e800f
    8060533a:	8074                	0x8074
    8060533c:	6210bfaf          	amoand.d.rl	t6,ra,(ra)
    80605340:	cae2                	sw	s8,84(sp)
    80605342:	4072                	0x4072
    80605344:	66e2                	ld	a3,24(sp)
    80605346:	3b9f 9889 ad34      	0xad3498893b9f
    8060534c:	21f317b3          	0x21f317b3
    80605350:	c829                	beqz	s0,806053a2 <data3+0x3a2>
    80605352:	69c1                	lui	s3,0x10
    80605354:	a1a5                	j	806057bc <data3+0x7bc>
    80605356:	03a894b7          	lui	s1,0x3a89
    8060535a:	eaec306b          	0xeaec306b
    8060535e:	8219                	srli	a2,a2,0x6
    80605360:	cd40                	sw	s0,28(a0)
    80605362:	207d                	0x207d
    80605364:	9086                	add	ra,ra,ra
    80605366:	f141                	bnez	a0,806052e6 <data3+0x2e6>
    80605368:	e338                	sd	a4,64(a4)
    8060536a:	0edf91d3          	fsub.q	ft3,ft11,fa3,rtz
    8060536e:	6b02                	ld	s6,0(sp)
    80605370:	c4a8                	sw	a0,72(s1)
    80605372:	561c                	lw	a5,40(a2)
    80605374:	9d4e                	add	s10,s10,s3
    80605376:	4bd0                	lw	a2,20(a5)
    80605378:	ee524ed3          	0xee524ed3
    8060537c:	6b46                	ld	s6,80(sp)
    8060537e:	5ba2                	lw	s7,40(sp)
    80605380:	b194d88b          	0xb194d88b
    80605384:	8aea                	mv	s5,s10
    80605386:	8d02                	jr	s10
    80605388:	03e2                	slli	t2,t2,0x18
    8060538a:	be5ca02f          	0xbe5ca02f
    8060538e:	9cba                	add	s9,s9,a4
    80605390:	d441496f          	jal	s2,805198d4 <pre_attack1_end+0x1197ec>
    80605394:	e6f445cb          	fnmsub.q	fa1,fs0,fa5,ft8,rmm
    80605398:	f11e                	sd	t2,160(sp)
    8060539a:	fd62                	sd	s8,184(sp)
    8060539c:	dd81                	beqz	a1,806052b4 <data3+0x2b4>
    8060539e:	5dd0                	lw	a2,60(a1)
    806053a0:	4fdef907          	0x4fdef907
    806053a4:	674639c7          	fmsub.q	fs3,fa2,fs4,fa2,rup
    806053a8:	02ab6333          	rem	t1,s6,a0
    806053ac:	bdc8                	fsd	fa0,184(a1)
    806053ae:	380d                	addiw	a6,a6,-29
    806053b0:	1d8e                	slli	s11,s11,0x23
    806053b2:	dcc2010f          	0xdcc2010f
    806053b6:	82ea                	mv	t0,s10
    806053b8:	2671                	addiw	a2,a2,28
    806053ba:	5e16                	lw	t3,100(sp)
    806053bc:	c366e6af          	0xc366e6af
    806053c0:	d1057c5b          	0xd1057c5b
    806053c4:	ba344367          	0xba344367
    806053c8:	cdf8                	sw	a4,92(a1)
    806053ca:	8a81                	andi	a3,a3,0
    806053cc:	9389                	srli	a5,a5,0x22
    806053ce:	1214                	addi	a3,sp,288
    806053d0:	cab393ef          	jal	t2,8053f07a <pre_attack1_end+0x13ef92>
    806053d4:	518e                	lw	gp,224(sp)
    806053d6:	bc3d                	j	80604e14 <data2+0xe14>
    806053d8:	e39e                	sd	t2,448(sp)
    806053da:	327f                	0x327f
    806053dc:	eb7a                	sd	t5,400(sp)
    806053de:	59c0ee8f          	0x59c0ee8f
    806053e2:	a960                	fsd	fs0,208(a0)
    806053e4:	d311                	beqz	a4,806052e8 <data3+0x2e8>
    806053e6:	3850                	fld	fa2,176(s0)
    806053e8:	ccfa                	sw	t5,88(sp)
    806053ea:	7b85                	lui	s7,0xfffe1
    806053ec:	eea6                	sd	s1,344(sp)
    806053ee:	59d6                	lw	s3,116(sp)
    806053f0:	4df9                	li	s11,30
    806053f2:	24a4                	fld	fs1,72(s1)
    806053f4:	239d                	addiw	t2,t2,7
    806053f6:	6578                	ld	a4,200(a0)
    806053f8:	381c                	fld	fa5,48(s0)
    806053fa:	f1aa                	sd	a0,224(sp)
    806053fc:	f0fc                	sd	a5,224(s1)
    806053fe:	0000d5d3          	fadd.s	fa1,ft1,ft0,unknown
	...

0000000080606000 <data4>:
    80606000:	face                	sd	s3,368(sp)
    80606002:	b5072103          	lw	sp,-1200(a4)
    80606006:	aa79                	j	806061a4 <data4+0x1a4>
    80606008:	d7f7d79b          	0xd7f7d79b
    8060600c:	44b1                	li	s1,12
    8060600e:	4408                	lw	a0,8(s0)
    80606010:	7b7d                	lui	s6,0xfffff
    80606012:	c3c6b543          	fmadd.d	fa0,fa3,ft8,fs8,rup
    80606016:	1c2d6fc7          	0x1c2d6fc7
    8060601a:	e3ac                	sd	a1,64(a5)
    8060601c:	9643f70f          	0x9643f70f
    80606020:	3ec6                	fld	ft9,112(sp)
    80606022:	1612                	slli	a2,a2,0x24
    80606024:	164a                	slli	a2,a2,0x32
    80606026:	e849                	bnez	s0,806060b8 <data4+0xb8>
    80606028:	8f60                	0x8f60
    8060602a:	36dc                	fld	fa5,168(a3)
    8060602c:	d13c                	sw	a5,96(a0)
    8060602e:	5ae2                	lw	s5,56(sp)
    80606030:	f6d1                	bnez	a3,80605fbc <data3+0xfbc>
    80606032:	6e60                	ld	s0,216(a2)
    80606034:	9fac                	0x9fac
    80606036:	6240                	ld	s0,128(a2)
    80606038:	5405                	li	s0,-31
    8060603a:	7725                	lui	a4,0xfffe9
    8060603c:	0e2e                	slli	t3,t3,0xb
    8060603e:	da89                	beqz	a3,80605f50 <data3+0xf50>
    80606040:	d4da                	sw	s6,104(sp)
    80606042:	ff02                	sd	zero,440(sp)
    80606044:	afacf36f          	jal	t1,805d533e <pre_attack1_end+0x1d5256>
    80606048:	5194                	lw	a3,32(a1)
    8060604a:	d289                	beqz	a3,80605f4c <data3+0xf4c>
    8060604c:	70864ec3          	fmadd.s	ft9,fa2,fs0,fa4,rmm
    80606050:	f66c                	sd	a1,232(a2)
    80606052:	640ba843          	0x640ba843
    80606056:	ba6c                	fsd	fa1,240(a2)
    80606058:	62d4                	ld	a3,128(a3)
    8060605a:	1dd2                	slli	s11,s11,0x34
    8060605c:	98ce7ff3          	csrrci	t6,0x98c,28
    80606060:	e6c8                	sd	a0,136(a3)
    80606062:	ffee                	sd	s11,504(sp)
    80606064:	f16a                	sd	s10,160(sp)
    80606066:	68b2                	ld	a7,264(sp)
    80606068:	6140                	ld	s0,128(a0)
    8060606a:	550aac93          	slti	s9,s5,1360
    8060606e:	49d6                	lw	s3,84(sp)
    80606070:	b3cdaf4b          	fnmsub.d	ft10,fs11,ft8,fs6,rdn
    80606074:	2fb4                	fld	fa3,88(a5)
    80606076:	c1c0                	sw	s0,4(a1)
    80606078:	bbbbe8cf          	fnmadd.d	fa7,fs7,fs11,fs7,unknown
    8060607c:	15e77047          	0x15e77047
    80606080:	8ef0                	0x8ef0
    80606082:	4c82                	lw	s9,0(sp)
    80606084:	92dd                	srli	a3,a3,0x37
    80606086:	8ed1                	or	a3,a3,a2
    80606088:	36f0                	fld	fa2,232(a3)
    8060608a:	e632                	sd	a2,264(sp)
    8060608c:	b6999507          	0xb6999507
    80606090:	b4d8f6eb          	0xb4d8f6eb
    80606094:	e1c1                	bnez	a1,80606114 <data4+0x114>
    80606096:	a22a                	fsd	fa0,256(sp)
    80606098:	c5f1ae1b          	0xc5f1ae1b
    8060609c:	75df 229c 3d8c      	0x3d8c229c75df
    806060a2:	516e                	lw	sp,248(sp)
    806060a4:	6562                	ld	a0,24(sp)
    806060a6:	59d4                	lw	a3,52(a1)
    806060a8:	e5c4                	sd	s1,136(a1)
    806060aa:	2f6d9a33          	0x2f6d9a33
    806060ae:	b3e4                	fsd	fs1,224(a5)
    806060b0:	3b08                	fld	fa0,48(a4)
    806060b2:	fe99                	bnez	a3,80605fd0 <data3+0xfd0>
    806060b4:	6204                	ld	s1,0(a2)
    806060b6:	352e                	fld	fa0,232(sp)
    806060b8:	19bd                	addi	s3,s3,-17
    806060ba:	c12319f7          	0xc12319f7
    806060be:	4315                	li	t1,5
    806060c0:	7ed2                	ld	t4,304(sp)
    806060c2:	1649                	addi	a2,a2,-14
    806060c4:	750c                	ld	a1,40(a0)
    806060c6:	b745                	j	80606066 <data4+0x66>
    806060c8:	b6f4                	fsd	fa3,232(a3)
    806060ca:	2e3633fb          	0x2e3633fb
    806060ce:	f93c                	sd	a5,112(a0)
    806060d0:	8530                	0x8530
    806060d2:	d348                	sw	a0,36(a4)
    806060d4:	f514                	sd	a3,40(a0)
    806060d6:	8489                	srai	s1,s1,0x2
    806060d8:	56f0                	lw	a2,108(a3)
    806060da:	f121                	bnez	a0,8060601a <data4+0x1a>
    806060dc:	a370                	fsd	fa2,192(a4)
    806060de:	384d                	addiw	a6,a6,-13
    806060e0:	8304                	0x8304
    806060e2:	6b68                	ld	a0,208(a4)
    806060e4:	72c2                	ld	t0,48(sp)
    806060e6:	4479aba3          	sw	t2,1111(s3) # 10457 <_start-0x7ffefba9>
    806060ea:	7ea67553          	0x7ea67553
    806060ee:	0362                	slli	t1,t1,0x18
    806060f0:	a591                	j	80606734 <data4+0x734>
    806060f2:	c0a4                	sw	s1,64(s1)
    806060f4:	a44d                	j	80606396 <data4+0x396>
    806060f6:	475922f3          	csrrs	t0,0x475,s2
    806060fa:	99e2                	add	s3,s3,s8
    806060fc:	0218                	addi	a4,sp,256
    806060fe:	871f 90d9 b6a9      	0xb6a990d9871f
    80606104:	44b5                	li	s1,13
    80606106:	9a46                	add	s4,s4,a7
    80606108:	0afe                	slli	s5,s5,0x1f
    8060610a:	715f 2def 2799      	0x27992def715f
    80606110:	9e75                	0x9e75
    80606112:	e08c                	sd	a1,0(s1)
    80606114:	6bbf81cf          	fnmadd.d	ft3,ft11,fs11,fa3,rne
    80606118:	9b249d73          	csrrw	s10,0x9b2,s1
    8060611c:	108d                	addi	ra,ra,-29
    8060611e:	a8d4e73f 755393ee 	0x755393eea8d4e73f
    80606126:	64b6                	ld	s1,328(sp)
    80606128:	16c9                	addi	a3,a3,-14
    8060612a:	222c                	fld	fa1,64(a2)
    8060612c:	5676                	lw	a2,124(sp)
    8060612e:	5ec0                	lw	s0,60(a3)
    80606130:	f5d6                	sd	s5,232(sp)
    80606132:	bacfb353          	0xbacfb353
    80606136:	96b4                	0x96b4
    80606138:	cbb5f8d7          	0xcbb5f8d7
    8060613c:	2468                	fld	fa0,200(s0)
    8060613e:	1c0d2847          	0x1c0d2847
    80606142:	dad2                	sw	s4,116(sp)
    80606144:	15d9                	addi	a1,a1,-10
    80606146:	257e                	fld	fa0,472(sp)
    80606148:	bdcd                	j	8060603a <data4+0x3a>
    8060614a:	131d                	addi	t1,t1,-25
    8060614c:	ea20                	sd	s0,80(a2)
    8060614e:	99413b2f          	0x99413b2f
    80606152:	1521                	addi	a0,a0,-24
    80606154:	2461                	addiw	s0,s0,24
    80606156:	2039                	0x2039
    80606158:	d301                	beqz	a4,80606058 <data4+0x58>
    8060615a:	0375                	addi	t1,t1,29
    8060615c:	71b4                	ld	a3,96(a1)
    8060615e:	7c00                	ld	s0,56(s0)
    80606160:	86e8                	0x86e8
    80606162:	4744                	lw	s1,12(a4)
    80606164:	fee9                	bnez	a3,8060613e <data4+0x13e>
    80606166:	9194                	0x9194
    80606168:	fb18                	sd	a4,48(a4)
    8060616a:	ca56                	sw	s5,20(sp)
    8060616c:	5c4ed2af          	0x5c4ed2af
    80606170:	fb75fc8b          	0xfb75fc8b
    80606174:	0640                	addi	s0,sp,772
    80606176:	6244                	ld	s1,128(a2)
    80606178:	e9a322a3          	sw	s10,-379(t1) # ffffffffffff5e85 <secret+0xffffffff7f3f5e85>
    8060617c:	f8dc8167          	jalr	sp,-115(s9) # 3f8d <_start-0x7fffc073>
    80606180:	3110                	fld	fa2,32(a0)
    80606182:	4539                	li	a0,14
    80606184:	c067a92f          	amominu.w	s2,t1,(a5)
    80606188:	d6d1                	beqz	a3,80606114 <data4+0x114>
    8060618a:	7551                	lui	a0,0xffff4
    8060618c:	6dd9                	lui	s11,0x16
    8060618e:	73dd                	lui	t2,0xffff7
    80606190:	abb4                	fsd	fa3,80(a5)
    80606192:	2256                	fld	ft4,336(sp)
    80606194:	eb49                	bnez	a4,80606226 <data4+0x226>
    80606196:	49c78987          	0x49c78987
    8060619a:	91e1                	srli	a1,a1,0x38
    8060619c:	6314                	ld	a3,0(a4)
    8060619e:	22d5                	addiw	t0,t0,21
    806061a0:	6e6e                	ld	t3,216(sp)
    806061a2:	c051                	beqz	s0,80606226 <data4+0x226>
    806061a4:	349eec87          	0x349eec87
    806061a8:	943a                	add	s0,s0,a4
    806061aa:	5459                	li	s0,-10
    806061ac:	fde8                	sd	a0,248(a1)
    806061ae:	0eff                	0xeff
    806061b0:	d9f6                	sw	t4,240(sp)
    806061b2:	ae1c2437          	lui	s0,0xae1c2
    806061b6:	1b2e223b          	0x1b2e223b
    806061ba:	3791                	addiw	a5,a5,-28
    806061bc:	0c7a                	slli	s8,s8,0x1e
    806061be:	e884d74f          	fnmadd.s	fa4,fs1,fs0,ft9,unknown
    806061c2:	15a4                	addi	s1,sp,744
    806061c4:	203a                	fld	ft0,392(sp)
    806061c6:	cc36                	sw	a3,24(sp)
    806061c8:	fb783e57          	0xfb783e57
    806061cc:	e57a7083          	0xe57a7083
    806061d0:	742c                	ld	a1,104(s0)
    806061d2:	453e                	lw	a0,204(sp)
    806061d4:	7af663e3          	bltu	a2,a5,8060717a <data5+0x17a>
    806061d8:	a266                	fsd	fs9,256(sp)
    806061da:	6526                	ld	a0,72(sp)
    806061dc:	9ad6                	add	s5,s5,s5
    806061de:	b556                	fsd	fs5,168(sp)
    806061e0:	2924                	fld	fs1,80(a0)
    806061e2:	1bca                	slli	s7,s7,0x32
    806061e4:	e7cd                	bnez	a5,8060628e <data4+0x28e>
    806061e6:	a8df efe8 5bb6      	0x5bb6efe8a8df
    806061ec:	eb8e                	sd	gp,464(sp)
    806061ee:	b6b9                	j	80605d3c <data3+0xd3c>
    806061f0:	6f74                	ld	a3,216(a4)
    806061f2:	033e                	slli	t1,t1,0xf
    806061f4:	0839                	addi	a6,a6,14
    806061f6:	c146                	sw	a7,128(sp)
    806061f8:	e62c                	sd	a1,72(a2)
    806061fa:	baf1                	j	80605bd6 <data3+0xbd6>
    806061fc:	b79bb653          	0xb79bb653
    80606200:	c272                	sw	t3,4(sp)
    80606202:	3fd1                	addiw	t6,t6,-12
    80606204:	5bc77e0f          	0x5bc77e0f
    80606208:	0add                	addi	s5,s5,23
    8060620a:	4e44                	lw	s1,28(a2)
    8060620c:	96d2                	add	a3,a3,s4
    8060620e:	d2a4                	sw	s1,96(a3)
    80606210:	c049                	beqz	s0,80606292 <data4+0x292>
    80606212:	6526                	ld	a0,72(sp)
    80606214:	02fad723          	0x2fad723
    80606218:	3858                	fld	fa4,176(s0)
    8060621a:	d52a                	sw	a0,168(sp)
    8060621c:	c6df 0d5a c637      	0xc6370d5ac6df
    80606222:	e16d                	bnez	a0,80606304 <data4+0x304>
    80606224:	c01c4787          	flq	fa5,-1023(s8) # ffffffffffff7c01 <secret+0xffffffff7f3f7c01>
    80606228:	4b861b07          	0x4b861b07
    8060622c:	f9c1                	bnez	a1,806061bc <data4+0x1bc>
    8060622e:	e145                	bnez	a0,806062ce <data4+0x2ce>
    80606230:	2bbd                	addiw	s7,s7,15
    80606232:	8b38                	0x8b38
    80606234:	98c4                	0x98c4
    80606236:	68e7ee9b          	0x68e7ee9b
    8060623a:	211cc3a7          	fsq	fa7,519(s9)
    8060623e:	cee2                	sw	s8,92(sp)
    80606240:	7f55                	lui	t5,0xffff5
    80606242:	a4bc                	fsd	fa5,72(s1)
    80606244:	f480                	sd	s0,40(s1)
    80606246:	2be96ed3          	0x2be96ed3
    8060624a:	cb25                	beqz	a4,806062ba <data4+0x2ba>
    8060624c:	5224                	lw	s1,96(a2)
    8060624e:	4b78f1d3          	0x4b78f1d3
    80606252:	12d8                	addi	a4,sp,356
    80606254:	395e                	fld	fs2,496(sp)
    80606256:	4cdd                	li	s9,23
    80606258:	e5da416f          	jal	sp,805ab0b4 <pre_attack1_end+0x1aafcc>
    8060625c:	3ff6                	fld	ft11,376(sp)
    8060625e:	813cbb27          	fsd	fs3,-2026(s9)
    80606262:	b39c                	fsd	fa5,32(a5)
    80606264:	ab9d                	j	806067da <data4+0x7da>
    80606266:	1176                	slli	sp,sp,0x3d
    80606268:	dffcdb03          	lhu	s6,-513(s9)
    8060626c:	7289                	lui	t0,0xfffe2
    8060626e:	bd05458b          	0xbd05458b
    80606272:	c8fc                	sw	a5,84(s1)
    80606274:	c690442f          	0xc690442f
    80606278:	ac50                	fsd	fa2,152(s0)
    8060627a:	c8bd                	beqz	s1,806062f0 <data4+0x2f0>
    8060627c:	b938                	fsd	fa4,112(a0)
    8060627e:	852c                	0x852c
    80606280:	94ff                	0x94ff
    80606282:	eb5c                	sd	a5,144(a4)
    80606284:	75fd                	lui	a1,0xfffff
    80606286:	4bb6                	lw	s7,76(sp)
    80606288:	2495                	addiw	s1,s1,5
    8060628a:	7f6e                	ld	t5,248(sp)
    8060628c:	2aba                	fld	fs5,392(sp)
    8060628e:	581d                	li	a6,-25
    80606290:	efde                	sd	s7,472(sp)
    80606292:	cbd8                	sw	a4,20(a5)
    80606294:	39a8                	fld	fa0,112(a1)
    80606296:	6d1c                	ld	a5,24(a0)
    80606298:	2f3a8e7b          	0x2f3a8e7b
    8060629c:	c966                	sw	s9,144(sp)
    8060629e:	25f1                	addiw	a1,a1,28
    806062a0:	ba6d                	j	80605c5a <data3+0xc5a>
    806062a2:	925e                	add	tp,tp,s7
    806062a4:	c009                	beqz	s0,806062a6 <data4+0x2a6>
    806062a6:	d3aa90cf          	fnmadd.d	ft1,fs5,fs10,fs10,rtz
    806062aa:	c951                	beqz	a0,8060633e <data4+0x33e>
    806062ac:	d242                	sw	a6,36(sp)
    806062ae:	3d345ecb          	0x3d345ecb
    806062b2:	386c                	fld	fa1,240(s0)
    806062b4:	7ea8                	ld	a0,120(a3)
    806062b6:	b23cbe93          	sltiu	t4,s9,-1245
    806062ba:	0510                	addi	a2,sp,640
    806062bc:	e04c                	sd	a1,128(s0)
    806062be:	e299                	bnez	a3,806062c4 <data4+0x2c4>
    806062c0:	64e68a6f          	jal	s4,8066e90e <data7+0x6590e>
    806062c4:	872d                	srai	a4,a4,0xb
    806062c6:	60e1                	lui	ra,0x18
    806062c8:	ca32                	sw	a2,20(sp)
    806062ca:	7d91c833          	0x7d91c833
    806062ce:	8a26                	mv	s4,s1
    806062d0:	3545                	addiw	a0,a0,-15
    806062d2:	412782cb          	fnmsub.s	ft5,fa5,fs2,fs0,rne
    806062d6:	d677b923          	sd	t2,-654(a5)
    806062da:	3a99                	addiw	s5,s5,-26
    806062dc:	a811                	j	806062f0 <data4+0x2f0>
    806062de:	5254                	lw	a3,36(a2)
    806062e0:	308e                	fld	ft1,224(sp)
    806062e2:	32ec                	fld	fa1,224(a3)
    806062e4:	f3c017c3          	fmadd.d	fa5,ft0,ft8,ft10,rtz
    806062e8:	50a8                	lw	a0,96(s1)
    806062ea:	56fb5293          	0x56fb5293
    806062ee:	633d                	lui	t1,0xf
    806062f0:	f30e                	sd	gp,416(sp)
    806062f2:	d3ca                	sw	s2,228(sp)
    806062f4:	ad04                	fsd	fs1,24(a0)
    806062f6:	8b25                	andi	a4,a4,9
    806062f8:	fa75                	bnez	a2,806062ec <data4+0x2ec>
    806062fa:	fae1                	bnez	a3,806062ca <data4+0x2ca>
    806062fc:	e845                	bnez	s0,806063ac <data4+0x3ac>
    806062fe:	5c0c                	lw	a1,56(s0)
    80606300:	9e96                	add	t4,t4,t0
    80606302:	3afe1127          	0x3afe1127
    80606306:	08c1                	addi	a7,a7,16
    80606308:	01a8                	addi	a0,sp,200
    8060630a:	0266                	slli	tp,tp,0x19
    8060630c:	59c6                	lw	s3,112(sp)
    8060630e:	9c58                	0x9c58
    80606310:	69c8                	ld	a0,144(a1)
    80606312:	3a2282c3          	fmadd.d	ft5,ft5,ft2,ft7,rne
    80606316:	dc20                	sw	s0,120(s0)
    80606318:	f905                	bnez	a0,80606248 <data4+0x248>
    8060631a:	1a82                	slli	s5,s5,0x20
    8060631c:	51d2                	lw	gp,52(sp)
    8060631e:	ea49                	bnez	a2,806063b0 <data4+0x3b0>
    80606320:	98dd                	andi	s1,s1,-9
    80606322:	bc0f0f9b          	addiw	t6,t5,-1088
    80606326:	5216                	lw	tp,100(sp)
    80606328:	4f48                	lw	a0,28(a4)
    8060632a:	697a18b3          	0x697a18b3
    8060632e:	cc55                	beqz	s0,806063ea <data4+0x3ea>
    80606330:	0131                	addi	sp,sp,12
    80606332:	20e5                	addiw	ra,ra,25
    80606334:	b5b655b7          	lui	a1,0xb5b65
    80606338:	fb6d                	bnez	a4,8060632a <data4+0x32a>
    8060633a:	5402                	lw	s0,32(sp)
    8060633c:	3318                	fld	fa4,32(a4)
    8060633e:	4c11                	li	s8,4
    80606340:	8366                	mv	t1,s9
    80606342:	5b4c                	lw	a1,52(a4)
    80606344:	aed446e3          	blt	s0,a3,80605e30 <data3+0xe30>
    80606348:	f240                	sd	s0,160(a2)
    8060634a:	05d5                	addi	a1,a1,21
    8060634c:	31f2                	fld	ft3,312(sp)
    8060634e:	c05c                	sw	a5,4(s0)
    80606350:	5dbe                	lw	s11,236(sp)
    80606352:	9e2c                	0x9e2c
    80606354:	f395a0e7          	0xf395a0e7
    80606358:	7689                	lui	a3,0xfffe2
    8060635a:	8569                	srai	a0,a0,0x1a
    8060635c:	aefa                	fsd	ft10,344(sp)
    8060635e:	939a                	add	t2,t2,t1
    80606360:	0879                	addi	a6,a6,30
    80606362:	d9da644f          	fnmadd.s	fs0,fs4,ft9,fs11,unknown
    80606366:	74f1                	lui	s1,0xffffc
    80606368:	391d                	addiw	s2,s2,-25
    8060636a:	2bc4                	fld	fs1,144(a5)
    8060636c:	4906                	lw	s2,64(sp)
    8060636e:	4670                	lw	a2,76(a2)
    80606370:	8f20                	0x8f20
    80606372:	d8c4                	sw	s1,52(s1)
    80606374:	8803334b          	fnmsub.s	ft6,ft6,ft0,fa7,rup
    80606378:	adad                	j	806069f2 <data4+0x9f2>
    8060637a:	ab30                	fsd	fa2,80(a4)
    8060637c:	9186d463          	bge	a3,s8,80605484 <data3+0x484>
    80606380:	aafa                	fsd	ft10,336(sp)
    80606382:	0ea2                	slli	t4,t4,0x8
    80606384:	ccd1                	beqz	s1,80606420 <data4+0x420>
    80606386:	f492                	sd	tp,104(sp)
    80606388:	12a4                	addi	s1,sp,360
    8060638a:	3f915a4f          	fnmadd.q	fs4,ft2,fs9,ft7,unknown
    8060638e:	4ac2979b          	0x4ac2979b
    80606392:	a722                	fsd	fs0,392(sp)
    80606394:	d1681c53          	0xd1681c53
    80606398:	b2e6                	fsd	fs9,352(sp)
    8060639a:	2615                	addiw	a2,a2,5
    8060639c:	b575                	j	80606248 <data4+0x248>
    8060639e:	5ac331cb          	fnmsub.d	ft3,ft6,fa2,fa1,rup
    806063a2:	f0b6                	sd	a3,96(sp)
    806063a4:	4592                	lw	a1,4(sp)
    806063a6:	9ef0                	0x9ef0
    806063a8:	2761                	addiw	a4,a4,24
    806063aa:	b50e                	fsd	ft3,168(sp)
    806063ac:	7cf5df17          	auipc	t5,0x7cf5d
    806063b0:	8689ca2f          	0x8689ca2f
    806063b4:	d7217cc7          	fmsub.q	fs9,ft2,fs2,fs10
    806063b8:	6b85                	lui	s7,0x1
    806063ba:	95b07bb7          	lui	s7,0x95b07
    806063be:	f3aa                	sd	a0,480(sp)
    806063c0:	38c5                	addiw	a7,a7,-15
    806063c2:	8e895193          	0x8e895193
    806063c6:	fc46                	sd	a7,56(sp)
    806063c8:	1409                	addi	s0,s0,-30
    806063ca:	5771                	li	a4,-4
    806063cc:	0851                	addi	a6,a6,20
    806063ce:	7778                	ld	a4,232(a4)
    806063d0:	d63a                	sw	a4,44(sp)
    806063d2:	58ca                	lw	a7,176(sp)
    806063d4:	530d2d43          	fmadd.d	fs10,fs10,fa6,fa0,rdn
    806063d8:	b2a6                	fsd	fs1,352(sp)
    806063da:	90b6                	add	ra,ra,a3
    806063dc:	613e6fe7          	0x613e6fe7
    806063e0:	5c1ad887          	0x5c1ad887
    806063e4:	52ee                	lw	t0,248(sp)
    806063e6:	aa45                	j	80606596 <data4+0x596>
    806063e8:	ecb2                	sd	a2,88(sp)
    806063ea:	0555                	addi	a0,a0,21
    806063ec:	fb9c                	sd	a5,48(a5)
    806063ee:	966c                	0x966c
    806063f0:	c9a0                	sw	s0,80(a1)
    806063f2:	ade5086f          	jal	a6,805566d0 <pre_attack1_end+0x1565e8>
    806063f6:	6242932b          	0x6242932b
    806063fa:	1a5d                	addi	s4,s4,-9
    806063fc:	5395                	li	t2,-27
    806063fe:	0000650b          	0x650b
	...

0000000080607000 <data5>:
    80607000:	b0febe43          	fmadd.s	ft8,ft9,fa5,fs6,rup
    80607004:	d37b8ab3          	0xd37b8ab3
    80607008:	22ce                	fld	ft5,208(sp)
    8060700a:	032a                	slli	t1,t1,0xa
    8060700c:	fa8210f7          	0xfa8210f7
    80607010:	8ad2                	mv	s5,s4
    80607012:	a0ae36d7          	0xa0ae36d7
    80607016:	ed5a                	sd	s6,152(sp)
    80607018:	e3769cbf ac925021 	0xac925021e3769cbf
    80607020:	70e0                	ld	s0,224(s1)
    80607022:	5662                	lw	a2,56(sp)
    80607024:	5549                	li	a0,-14
    80607026:	f380                	sd	s0,32(a5)
    80607028:	084b52a3          	0x84b52a3
    8060702c:	aa46                	fsd	fa7,272(sp)
    8060702e:	98c0                	0x98c0
    80607030:	25f4                	fld	fa3,200(a1)
    80607032:	40e0                	lw	s0,68(s1)
    80607034:	fefe                	sd	t6,376(sp)
    80607036:	0db0                	addi	a2,sp,728
    80607038:	3772                	fld	fa4,312(sp)
    8060703a:	1791                	addi	a5,a5,-28
    8060703c:	3b78                	fld	fa4,240(a4)
    8060703e:	8e9f 00da 2e55      	0x2e5500da8e9f
    80607044:	f17678af          	0xf17678af
    80607048:	121a                	slli	tp,tp,0x26
    8060704a:	5260                	lw	s0,100(a2)
    8060704c:	6662                	ld	a2,24(sp)
    8060704e:	d799                	beqz	a5,80606f5c <data4+0xf5c>
    80607050:	f17c                	sd	a5,224(a0)
    80607052:	5c72                	lw	s8,60(sp)
    80607054:	be34                	fsd	fa3,120(a2)
    80607056:	1e86                	slli	t4,t4,0x21
    80607058:	45b4                	lw	a3,72(a1)
    8060705a:	c375                	beqz	a4,8060713e <data5+0x13e>
    8060705c:	c026                	sw	s1,0(sp)
    8060705e:	d2d2                	sw	s4,100(sp)
    80607060:	db55                	beqz	a4,80607014 <data5+0x14>
    80607062:	fdfd2347          	0xfdfd2347
    80607066:	78fe                	ld	a7,504(sp)
    80607068:	13de                	slli	t2,t2,0x37
    8060706a:	8868c1b3          	0x8868c1b3
    8060706e:	87d4bae7          	0x87d4bae7
    80607072:	1228                	addi	a0,sp,296
    80607074:	bcd2                	fsd	fs4,120(sp)
    80607076:	63d1                	lui	t2,0x14
    80607078:	1d45                	addi	s10,s10,-15
    8060707a:	71b8                	ld	a4,96(a1)
    8060707c:	63c2                	ld	t2,16(sp)
    8060707e:	d7b8                	sw	a4,104(a5)
    80607080:	6652                	ld	a2,272(sp)
    80607082:	7630                	ld	a2,104(a2)
    80607084:	cde1                	beqz	a1,8060715c <data5+0x15c>
    80607086:	8c9c                	0x8c9c
    80607088:	d0d6                	sw	s5,96(sp)
    8060708a:	1044                	addi	s1,sp,36
    8060708c:	b2aa3f5b          	0xb2aa3f5b
    80607090:	d710b5af          	0xd710b5af
    80607094:	f472                	sd	t3,40(sp)
    80607096:	e09c240f          	0xe09c240f
    8060709a:	45b6                	lw	a1,76(sp)
    8060709c:	5709                	li	a4,-30
    8060709e:	69da                	ld	s3,400(sp)
    806070a0:	e2d6                	sd	s5,320(sp)
    806070a2:	6469                	lui	s0,0x1a
    806070a4:	d634afc3          	fmadd.q	ft11,fs1,ft3,fs10,rdn
    806070a8:	7404                	ld	s1,40(s0)
    806070aa:	e8189e73          	csrrw	t3,0xe81,a7
    806070ae:	abc4                	fsd	fs1,144(a5)
    806070b0:	3a42                	fld	fs4,48(sp)
    806070b2:	0558                	addi	a4,sp,644
    806070b4:	ddb1                	beqz	a1,80607010 <data5+0x10>
    806070b6:	ed63523f 7d8fb523 	0x7d8fb523ed63523f
    806070be:	ca8c                	sw	a1,16(a3)
    806070c0:	7c89                	lui	s9,0xfffe2
    806070c2:	1966f6a3          	0x1966f6a3
    806070c6:	98e2                	add	a7,a7,s8
    806070c8:	cae0                	sw	s0,84(a3)
    806070ca:	ab351fe3          	bne	a0,s3,80606b88 <data4+0xb88>
    806070ce:	f316                	sd	t0,416(sp)
    806070d0:	6130                	ld	a2,64(a0)
    806070d2:	642c                	ld	a1,72(s0)
    806070d4:	c67008a7          	0xc67008a7
    806070d8:	c861                	beqz	s0,806071a8 <data5+0x1a8>
    806070da:	018e                	slli	gp,gp,0x3
    806070dc:	0728                	addi	a0,sp,904
    806070de:	eb21                	bnez	a4,8060712e <data5+0x12e>
    806070e0:	ab8c                	fsd	fa1,16(a5)
    806070e2:	a45a                	fsd	fs6,8(sp)
    806070e4:	4f78                	lw	a4,92(a4)
    806070e6:	b8e0                	fsd	fs0,240(s1)
    806070e8:	b865                	j	806069a0 <data4+0x9a0>
    806070ea:	8d22                	mv	s10,s0
    806070ec:	09cd                	addi	s3,s3,19
    806070ee:	be7f                	0xbe7f
    806070f0:	3164                	fld	fs1,224(a0)
    806070f2:	3b66                	fld	fs6,120(sp)
    806070f4:	eda56447          	0xeda56447
    806070f8:	286a5f8b          	0x286a5f8b
    806070fc:	2dbd                	addiw	s11,s11,15
    806070fe:	16a2c26b          	0x16a2c26b
    80607102:	cf88                	sw	a0,24(a5)
    80607104:	1b73a3f3          	csrrs	t2,0x1b7,t2
    80607108:	7601                	lui	a2,0xfffe0
    8060710a:	25b9                	addiw	a1,a1,14
    8060710c:	28bee107          	0x28bee107
    80607110:	7b90                	ld	a2,48(a5)
    80607112:	9a52                	add	s4,s4,s4
    80607114:	fd2c                	sd	a1,120(a0)
    80607116:	1cf1                	addi	s9,s9,-4
    80607118:	a734                	fsd	fa3,72(a4)
    8060711a:	60b0                	ld	a2,64(s1)
    8060711c:	087d                	addi	a6,a6,31
    8060711e:	dd8d                	beqz	a1,80607058 <data5+0x58>
    80607120:	88ae                	mv	a7,a1
    80607122:	c478                	sw	a4,76(s0)
    80607124:	6e4a                	ld	t3,144(sp)
    80607126:	a554                	fsd	fa3,136(a0)
    80607128:	096fb7f7          	0x96fb7f7
    8060712c:	580e                	lw	a6,224(sp)
    8060712e:	fbc9                	bnez	a5,806070c0 <data5+0xc0>
    80607130:	59b5                	li	s3,-19
    80607132:	67a5                	lui	a5,0x9
    80607134:	9ef4                	0x9ef4
    80607136:	5744                	lw	s1,44(a4)
    80607138:	768fd2bf 35a38a74 	0x35a38a74768fd2bf
    80607140:	bace                	fsd	fs3,368(sp)
    80607142:	3b3a                	fld	fs6,424(sp)
    80607144:	f77e                	sd	t6,424(sp)
    80607146:	88016cfb          	0x88016cfb
    8060714a:	9afd                	andi	a3,a3,-1
    8060714c:	6da1                	lui	s11,0x8
    8060714e:	920c                	0x920c
    80607150:	36e5981b          	0x36e5981b
    80607154:	0b7d                	addi	s6,s6,31
    80607156:	a6d8                	fsd	fa4,136(a3)
    80607158:	f8301423          	sh	gp,-120(zero) # ffffffffffffff88 <secret+0xffffffff7f3fff88>
    8060715c:	5aff                	0x5aff
    8060715e:	8422                	mv	s0,s0
    80607160:	d7b4                	sw	a3,104(a5)
    80607162:	66ad                	lui	a3,0xb
    80607164:	ed52                	sd	s4,152(sp)
    80607166:	138e                	slli	t2,t2,0x23
    80607168:	119c3867          	0x119c3867
    8060716c:	c19c                	sw	a5,0(a1)
    8060716e:	2309                	addiw	t1,t1,2
    80607170:	4981                	li	s3,0
    80607172:	4b5a                	lw	s6,148(sp)
    80607174:	42521823          	sh	t0,1072(tp) # 1a430 <_start-0x7ffe5bd0>
    80607178:	9850                	0x9850
    8060717a:	2e28                	fld	fa0,88(a2)
    8060717c:	eb93f717          	auipc	a4,0xeb93f
    80607180:	f91bbdf3          	csrrc	s11,0xf91,s7
    80607184:	10a8                	addi	a0,sp,104
    80607186:	ee60                	sd	s0,216(a2)
    80607188:	95f9                	srai	a1,a1,0x3e
    8060718a:	cfd9                	beqz	a5,80607228 <data5+0x228>
    8060718c:	2407a76b          	0x2407a76b
    80607190:	603d                	c.lui	zero,0xf
    80607192:	037c                	addi	a5,sp,396
    80607194:	38c9dc37          	lui	s8,0x38c9d
    80607198:	719d                	lui	gp,0xfffe7
    8060719a:	18ce                	slli	a7,a7,0x33
    8060719c:	b211                	j	80606aa0 <data4+0xaa0>
    8060719e:	5391d5ef          	jal	a1,80624ed6 <data7+0x1bed6>
    806071a2:	1654e92f          	0x1654e92f
    806071a6:	36f2117b          	0x36f2117b
    806071aa:	46bb4993          	xori	s3,s6,1131
    806071ae:	4885                	li	a7,1
    806071b0:	ba12995b          	0xba12995b
    806071b4:	2cd5                	addiw	s9,s9,21
    806071b6:	5dde                	lw	s11,244(sp)
    806071b8:	6790                	ld	a2,8(a5)
    806071ba:	b558                	fsd	fa4,168(a0)
    806071bc:	7384                	ld	s1,32(a5)
    806071be:	f95a                	sd	s6,176(sp)
    806071c0:	777f                	0x777f
    806071c2:	b782                	fsd	ft0,488(sp)
    806071c4:	eaac                	sd	a1,80(a3)
    806071c6:	a33c                	fsd	fa5,64(a4)
    806071c8:	367a3bf7          	0x367a3bf7
    806071cc:	1c5673a3          	0x1c5673a3
    806071d0:	38cc                	fld	fa1,176(s1)
    806071d2:	7520                	ld	s0,104(a0)
    806071d4:	29c2578b          	0x29c2578b
    806071d8:	09ff23db          	0x9ff23db
    806071dc:	44f9                	li	s1,30
    806071de:	54ed                	li	s1,-5
    806071e0:	6032                	0x6032
    806071e2:	7e4c                	ld	a1,184(a2)
    806071e4:	9ec0                	0x9ec0
    806071e6:	43f0                	lw	a2,68(a5)
    806071e8:	f3c4                	sd	s1,160(a5)
    806071ea:	b0a0                	fsd	fs0,96(s1)
    806071ec:	3a73856f          	jal	a0,8063fd92 <data7+0x36d92>
    806071f0:	9c99                	subw	s1,s1,a4
    806071f2:	e170                	sd	a2,192(a0)
    806071f4:	0b31                	addi	s6,s6,12
    806071f6:	aba2                	fsd	fs0,464(sp)
    806071f8:	b3a1                	j	80606f40 <data4+0xf40>
    806071fa:	5f75                	li	t5,-3
    806071fc:	0cfc                	addi	a5,sp,604
    806071fe:	99c4                	0x99c4
    80607200:	8378                	0x8378
    80607202:	651a                	ld	a0,384(sp)
    80607204:	3e9f 82c8 1c65      	0x1c6582c83e9f
    8060720a:	de52                	sw	s4,60(sp)
    8060720c:	b53a                	fsd	fa4,168(sp)
    8060720e:	f8e2                	sd	s8,112(sp)
    80607210:	8d5612ab          	0x8d5612ab
    80607214:	bc60                	fsd	fs0,248(s0)
    80607216:	f51a                	sd	t1,168(sp)
    80607218:	d6b1                	beqz	a3,80607164 <data5+0x164>
    8060721a:	b92c                	fsd	fa1,112(a0)
    8060721c:	d32004b3          	0xd32004b3
    80607220:	6858                	ld	a4,144(s0)
    80607222:	3280                	fld	fs0,32(a3)
    80607224:	825d                	srli	a2,a2,0x17
    80607226:	35aa                	fld	fa1,168(sp)
    80607228:	808a                	mv	ra,sp
    8060722a:	cffe07bf bc2edfc0 	0xbc2edfc0cffe07bf
    80607232:	6bbe                	ld	s7,456(sp)
    80607234:	c34c                	sw	a1,4(a4)
    80607236:	349a                	fld	fs1,416(sp)
    80607238:	7e68                	ld	a0,248(a2)
    8060723a:	00b86367          	0xb86367
    8060723e:	7c40                	ld	s0,184(s0)
    80607240:	0c184003          	lbu	zero,193(a6) # fffffffffffe40c1 <secret+0xffffffff7f3e40c1>
    80607244:	cb40                	sw	s0,20(a4)
    80607246:	a798                	fsd	fa4,8(a5)
    80607248:	18e996af          	0x18e996af
    8060724c:	bb11                	j	80606f60 <data4+0xf60>
    8060724e:	e23b2f27          	fsw	ft3,-450(s6) # ffffffffffffee3e <secret+0xffffffff7f3fee3e>
    80607252:	f6fa                	sd	t5,360(sp)
    80607254:	d5931f47          	0xd5931f47
    80607258:	7802                	ld	a6,32(sp)
    8060725a:	89743777          	0x89743777
    8060725e:	cb14                	sw	a3,16(a4)
    80607260:	0e91                	addi	t4,t4,4
    80607262:	06d5                	addi	a3,a3,21
    80607264:	be00                	fsd	fs0,56(a2)
    80607266:	cf9f 86a1 3513      	0x351386a1cf9f
    8060726c:	9da1ce23          	0x9da1ce23
    80607270:	c475                	beqz	s0,8060735c <data5+0x35c>
    80607272:	d200                	sw	s0,32(a2)
    80607274:	184d                	addi	a6,a6,-13
    80607276:	d5e8                	sw	a0,108(a1)
    80607278:	080dd62b          	0x80dd62b
    8060727c:	9f3d732f          	0x9f3d732f
    80607280:	6d55                	lui	s10,0x15
    80607282:	ca91a143          	fmadd.d	ft2,ft3,fs1,fs9,rdn
    80607286:	8b3a                	mv	s6,a4
    80607288:	055c                	addi	a5,sp,644
    8060728a:	507d                	c.li	zero,-1
    8060728c:	ac41                	j	8060751c <data5+0x51c>
    8060728e:	58c2                	lw	a7,48(sp)
    80607290:	eb1c                	sd	a5,16(a4)
    80607292:	e4f2                	sd	t3,72(sp)
    80607294:	4b42                	lw	s6,16(sp)
    80607296:	994e                	add	s2,s2,s3
    80607298:	81b5                	srli	a1,a1,0xd
    8060729a:	7c2635cf          	0x7c2635cf
    8060729e:	9239                	srli	a2,a2,0x2e
    806072a0:	224c                	fld	fa1,128(a2)
    806072a2:	6735                	lui	a4,0xd
    806072a4:	651d                	lui	a0,0x7
    806072a6:	cd9a30c7          	0xcd9a30c7
    806072aa:	1542                	slli	a0,a0,0x30
    806072ac:	1e72                	slli	t3,t3,0x3c
    806072ae:	05c2                	slli	a1,a1,0x10
    806072b0:	534671c3          	fmadd.d	ft3,fa2,fs4,fa0
    806072b4:	22dc                	fld	fa5,128(a3)
    806072b6:	d62a                	sw	a0,44(sp)
    806072b8:	6231c8ab          	0x6231c8ab
    806072bc:	6309486b          	0x6309486b
    806072c0:	e7a0                	sd	s0,72(a5)
    806072c2:	e12e                	sd	a1,128(sp)
    806072c4:	a48a                	fsd	ft2,72(sp)
    806072c6:	5e1a                	lw	t3,164(sp)
    806072c8:	b5ac                	fsd	fa1,104(a1)
    806072ca:	ef612ab7          	lui	s5,0xef612
    806072ce:	cc12b673          	csrrc	a2,0xcc1,t0
    806072d2:	eef7b2e7          	0xeef7b2e7
    806072d6:	2f10                	fld	fa2,24(a4)
    806072d8:	2d7d                	addiw	s10,s10,31
    806072da:	85b0                	0x85b0
    806072dc:	aaea                	fsd	fs10,336(sp)
    806072de:	9689                	srai	a3,a3,0x22
    806072e0:	fbed                	bnez	a5,806072d2 <data5+0x2d2>
    806072e2:	bee8                	fsd	fa0,248(a3)
    806072e4:	0012                	c.slli	zero,0x4
    806072e6:	88e8                	0x88e8
    806072e8:	6f44159b          	0x6f44159b
    806072ec:	9298                	0x9298
    806072ee:	96777d1b          	0x96777d1b
    806072f2:	04c141db          	0x4c141db
    806072f6:	d441                	beqz	s0,8060727e <data5+0x27e>
    806072f8:	4718                	lw	a4,8(a4)
    806072fa:	2eba                	fld	ft9,392(sp)
    806072fc:	2e041033          	0x2e041033
    80607300:	80b5                	srli	s1,s1,0xd
    80607302:	9df8                	0x9df8
    80607304:	05fe                	slli	a1,a1,0x1f
    80607306:	efc5                	bnez	a5,806073be <data5+0x3be>
    80607308:	71ca                	ld	gp,176(sp)
    8060730a:	1a0e                	slli	s4,s4,0x23
    8060730c:	51da                	lw	gp,180(sp)
    8060730e:	9fee7947          	fmsub.q	fs2,ft8,ft10,fs3
    80607312:	628e                	ld	t0,192(sp)
    80607314:	6078                	ld	a4,192(s0)
    80607316:	1131                	addi	sp,sp,-20
    80607318:	09c6d2f3          	csrrwi	t0,0x9c,13
    8060731c:	5d823b7b          	0x5d823b7b
    80607320:	ba5c                	fsd	fa5,176(a2)
    80607322:	95e5                	srai	a1,a1,0x39
    80607324:	247c                	fld	fa5,200(s0)
    80607326:	b8ce                	fsd	fs3,112(sp)
    80607328:	452b1cbb          	0x452b1cbb
    8060732c:	a7f1e0b7          	lui	ra,0xa7f1e
    80607330:	2e4c                	fld	fa1,152(a2)
    80607332:	f9eeca53          	0xf9eeca53
    80607336:	bf5d                	j	806072ec <data5+0x2ec>
    80607338:	1c1f8dd3          	0x1c1f8dd3
    8060733c:	4336                	lw	t1,76(sp)
    8060733e:	97f1                	srai	a5,a5,0x3c
    80607340:	100d72b7          	lui	t0,0x100d7
    80607344:	1ac9                	addi	s5,s5,-14
    80607346:	4409                	li	s0,2
    80607348:	b891                	j	80606b9c <data4+0xb9c>
    8060734a:	7bba                	ld	s7,424(sp)
    8060734c:	0ccfad3f 7d5724c9 	0x7d5724c90ccfad3f
    80607354:	aced                	j	8060764e <data5+0x64e>
    80607356:	03fa                	slli	t2,t2,0x1e
    80607358:	477e                	lw	a4,220(sp)
    8060735a:	7899                	lui	a7,0xfffe6
    8060735c:	218c                	fld	fa1,0(a1)
    8060735e:	6fff                	0x6fff
    80607360:	5679                	li	a2,-2
    80607362:	a18e                	fsd	ft3,192(sp)
    80607364:	605c                	ld	a5,128(s0)
    80607366:	fb5e                	sd	s7,432(sp)
    80607368:	82da                	mv	t0,s6
    8060736a:	f2ad3963          	0xf2ad3963
    8060736e:	cfda                	sw	s6,220(sp)
    80607370:	6739                	lui	a4,0xe
    80607372:	dc4e34db          	0xdc4e34db
    80607376:	19ca78f7          	0x19ca78f7
    8060737a:	51b5                	li	gp,-19
    8060737c:	186140b7          	lui	ra,0x18614
    80607380:	51ee                	lw	gp,248(sp)
    80607382:	6e79                	lui	t3,0x1e
    80607384:	9240                	0x9240
    80607386:	b4d9                	j	80606e4c <data4+0xe4c>
    80607388:	96e6                	add	a3,a3,s9
    8060738a:	5c02                	lw	s8,32(sp)
    8060738c:	7456                	ld	s0,368(sp)
    8060738e:	e55f 12ed 322c      	0x322c12ede55f
    80607394:	0b5b1703          	lh	a4,181(s6)
    80607398:	5df8                	lw	a4,124(a1)
    8060739a:	7e55                	lui	t3,0xffff5
    8060739c:	bc45                	j	80606e4c <data4+0xe4c>
    8060739e:	f192                	sd	tp,224(sp)
    806073a0:	d53e                	sw	a5,168(sp)
    806073a2:	fd76                	sd	t4,184(sp)
    806073a4:	b2f4ebcf          	fnmadd.d	fs7,fs1,fa5,fs6,unknown
    806073a8:	0c48                	addi	a0,sp,532
    806073aa:	2262d487          	0x2262d487
    806073ae:	3c7c                	fld	fa5,248(s0)
    806073b0:	6074                	ld	a3,192(s0)
    806073b2:	1eac                	addi	a1,sp,888
    806073b4:	fbe2                	sd	s8,496(sp)
    806073b6:	0fb1                	addi	t6,t6,12
    806073b8:	f899                	bnez	s1,806072ce <data5+0x2ce>
    806073ba:	8a3cea03          	lwu	s4,-1885(s9) # fffffffffffe18a3 <secret+0xffffffff7f3e18a3>
    806073be:	58b4                	lw	a3,112(s1)
    806073c0:	660e                	ld	a2,192(sp)
    806073c2:	a7d0                	fsd	fa2,136(a5)
    806073c4:	044f3e67          	0x44f3e67
    806073c8:	81b8                	0x81b8
    806073ca:	f695                	bnez	a3,806072f6 <data5+0x2f6>
    806073cc:	27ee                	fld	fa5,216(sp)
    806073ce:	889f db79 4fb9      	0x4fb9db79889f
    806073d4:	f864                	sd	s1,240(s0)
    806073d6:	f320d667          	0xf320d667
    806073da:	46bc                	lw	a5,72(a3)
    806073dc:	85f9                	srai	a1,a1,0x1e
    806073de:	bcf6c00f          	0xbcf6c00f
    806073e2:	d9e628a7          	fsw	ft10,-623(a2) # fffffffffffdfd91 <secret+0xffffffff7f3dfd91>
    806073e6:	7d263eef          	jal	t4,8066abb8 <data7+0x61bb8>
    806073ea:	c72d                	beqz	a4,80607454 <data5+0x454>
    806073ec:	d2a2faf3          	csrrci	s5,0xd2a,5
    806073f0:	ec6a                	sd	s10,24(sp)
    806073f2:	cba04947          	fmsub.d	fs2,ft0,fs10,fs9,rmm
    806073f6:	e52c                	sd	a1,72(a0)
    806073f8:	8c9f69c7          	0x8c9f69c7
    806073fc:	1fe5d90f          	0x1fe5d90f
	...

0000000080608000 <data6>:
    80608000:	e99c1403          	lh	s0,-359(s8) # 38c9ce99 <_start-0x47363167>
    80608004:	e87e                	sd	t6,16(sp)
    80608006:	56b5                	li	a3,-19
    80608008:	ce22                	sw	s0,28(sp)
    8060800a:	da6a                	sw	s10,52(sp)
    8060800c:	8046                	c.mv	zero,a7
    8060800e:	0278                	addi	a4,sp,268
    80608010:	36a1                	addiw	a3,a3,-24
    80608012:	d0e8d4ef          	jal	s1,80595520 <pre_attack1_end+0x195438>
    80608016:	186e                	slli	a6,a6,0x3b
    80608018:	b295                	j	8060797c <data5+0x97c>
    8060801a:	eebbc177          	0xeebbc177
    8060801e:	5048                	lw	a0,36(s0)
    80608020:	fd52                	sd	s4,184(sp)
    80608022:	2da6                	fld	fs11,72(sp)
    80608024:	3962                	fld	fs2,56(sp)
    80608026:	3fcd                	addiw	t6,t6,-13
    80608028:	6b08                	ld	a0,16(a4)
    8060802a:	b7129bbb          	0xb7129bbb
    8060802e:	1f78                	addi	a4,sp,956
    80608030:	4221                	li	tp,8
    80608032:	d44c                	sw	a1,44(s0)
    80608034:	675c826b          	0x675c826b
    80608038:	aeb2                	fsd	fa2,344(sp)
    8060803a:	6a39                	lui	s4,0xe
    8060803c:	9684                	0x9684
    8060803e:	5638                	lw	a4,104(a2)
    80608040:	3cb6                	fld	fs9,360(sp)
    80608042:	f5a9                	bnez	a1,80607f8c <data5+0xf8c>
    80608044:	6fb0                	ld	a2,88(a5)
    80608046:	5661                	li	a2,-8
    80608048:	9e86                	add	t4,t4,ra
    8060804a:	efbcdf43          	fmadd.q	ft10,fs9,fs11,ft9,unknown
    8060804e:	fecc                	sd	a1,184(a3)
    80608050:	ffdc                	sd	a5,184(a5)
    80608052:	f008                	sd	a0,32(s0)
    80608054:	c6342e93          	slti	t4,s0,-925
    80608058:	810539bb          	0x810539bb
    8060805c:	47bab6b7          	lui	a3,0x47bab
    80608060:	814dbb0b          	0x814dbb0b
    80608064:	acf2                	fsd	ft8,88(sp)
    80608066:	7ce9                	lui	s9,0xffffa
    80608068:	5d05                	li	s10,-31
    8060806a:	5df1                	li	s11,-4
    8060806c:	de91                	beqz	a3,80607f88 <data5+0xf88>
    8060806e:	8fc4                	0x8fc4
    80608070:	8f59                	or	a4,a4,a4
    80608072:	32f7bd47          	fmsub.d	fs10,fa5,fa5,ft6,rup
    80608076:	5607356f          	jal	a0,8067b5d6 <data7+0x725d6>
    8060807a:	e311                	bnez	a4,8060807e <data6+0x7e>
    8060807c:	5cb8                	lw	a4,120(s1)
    8060807e:	4324                	lw	s1,64(a4)
    80608080:	b96c                	fsd	fa1,240(a0)
    80608082:	f3701b2f          	0xf3701b2f
    80608086:	dcac03db          	0xdcac03db
    8060808a:	4396                	lw	t2,68(sp)
    8060808c:	c0b0                	sw	a2,64(s1)
    8060808e:	916e                	add	sp,sp,s11
    80608090:	eedd                	bnez	a3,8060814e <data6+0x14e>
    80608092:	3ba6                	fld	fs7,104(sp)
    80608094:	b6b0                	fsd	fa2,104(a3)
    80608096:	6e7beb07          	0x6e7beb07
    8060809a:	579baa33          	0x579baa33
    8060809e:	f210ce9b          	0xf210ce9b
    806080a2:	b705                	j	80607fc2 <data5+0xfc2>
    806080a4:	56d5                	li	a3,-11
    806080a6:	a066feb7          	lui	t4,0xa066f
    806080aa:	15ac                	addi	a1,sp,744
    806080ac:	d496239b          	0xd496239b
    806080b0:	109e                	slli	ra,ra,0x27
    806080b2:	7d49c733          	0x7d49c733
    806080b6:	2a7c                	fld	fa5,208(a2)
    806080b8:	fc28                	sd	a0,120(s0)
    806080ba:	6d1816e7          	0x6d1816e7
    806080be:	30c1                	addiw	ra,ra,-16
    806080c0:	0224                	addi	s1,sp,264
    806080c2:	48d9                	li	a7,22
    806080c4:	21c2                	fld	ft3,16(sp)
    806080c6:	837d                	srli	a4,a4,0x1f
    806080c8:	3d0bc94f          	0x3d0bc94f
    806080cc:	f390                	sd	a2,32(a5)
    806080ce:	3684f337          	lui	t1,0x3684f
    806080d2:	ba08                	fsd	fa0,48(a2)
    806080d4:	3e00                	fld	fs0,56(a2)
    806080d6:	99d5                	andi	a1,a1,-11
    806080d8:	68d2                	ld	a7,272(sp)
    806080da:	45de                	lw	a1,212(sp)
    806080dc:	dcadc647          	0xdcadc647
    806080e0:	8fb4                	0x8fb4
    806080e2:	3187b4e7          	0x3187b4e7
    806080e6:	e0ce                	sd	s3,64(sp)
    806080e8:	075ad5bf b7f6435c 	0xb7f6435c075ad5bf
    806080f0:	d138                	sw	a4,96(a0)
    806080f2:	2dc1                	addiw	s11,s11,16
    806080f4:	190a                	slli	s2,s2,0x22
    806080f6:	d038                	sw	a4,96(s0)
    806080f8:	e6d4                	sd	a3,136(a3)
    806080fa:	0c94                	addi	a3,sp,592
    806080fc:	71a7ead3          	0x71a7ead3
    80608100:	bd48                	fsd	fa0,184(a0)
    80608102:	715f 941a b7b1      	0xb7b1941a715f
    80608108:	3efc                	fld	fa5,248(a3)
    8060810a:	78f2                	ld	a7,312(sp)
    8060810c:	acf2                	fsd	ft8,88(sp)
    8060810e:	1728                	addi	a0,sp,936
    80608110:	d8e0                	sw	s0,116(s1)
    80608112:	e5df 630a a18f      	0xa18f630ae5df
    80608118:	a5b12a53          	0xa5b12a53
    8060811c:	dc54                	sw	a3,60(s0)
    8060811e:	da85                	beqz	a3,8060804e <data6+0x4e>
    80608120:	f81e                	sd	t2,48(sp)
    80608122:	5301                	li	t1,-32
    80608124:	f988                	sd	a0,48(a1)
    80608126:	7ff6                	ld	t6,376(sp)
    80608128:	f46c11e3          	bne	s8,t1,8060806a <data6+0x6a>
    8060812c:	8aa2                	mv	s5,s0
    8060812e:	7ab2                	ld	s5,296(sp)
    80608130:	a535                	j	8060875c <data6+0x75c>
    80608132:	b4e5                	j	80607c1a <data5+0xc1a>
    80608134:	6e40                	ld	s0,152(a2)
    80608136:	bcc2                	fsd	fa6,120(sp)
    80608138:	33d1                	addiw	t2,t2,-12
    8060813a:	61abc56f          	jal	a0,806c4754 <data7+0xbb754>
    8060813e:	f514                	sd	a3,40(a0)
    80608140:	8a90                	0x8a90
    80608142:	f58c                	sd	a1,40(a1)
    80608144:	78ac2d47          	fmsub.s	fs10,fs8,fa0,fa5,rdn
    80608148:	ba3c                	fsd	fa5,112(a2)
    8060814a:	88838d8b          	0x88838d8b
    8060814e:	ed30                	sd	a2,88(a0)
    80608150:	c3aa396f          	jal	s2,805ab58a <pre_attack1_end+0x1ab4a2>
    80608154:	6e76                	ld	t3,344(sp)
    80608156:	4d56                	lw	s10,84(sp)
    80608158:	ec24                	sd	s1,88(s0)
    8060815a:	e3eb3a9b          	0xe3eb3a9b
    8060815e:	abed                	j	80608758 <data6+0x758>
    80608160:	7a8331f3          	csrrc	gp,0x7a8,t1
    80608164:	21d2                	fld	ft3,272(sp)
    80608166:	e95c                	sd	a5,144(a0)
    80608168:	e3cd                	bnez	a5,8060820a <data6+0x20a>
    8060816a:	3465                	addiw	s0,s0,-7
    8060816c:	ef31                	bnez	a4,806081c8 <data6+0x1c8>
    8060816e:	604a80db          	0x604a80db
    80608172:	c8f0                	sw	a2,84(s1)
    80608174:	aed8                	fsd	fa4,152(a3)
    80608176:	678c                	ld	a1,8(a5)
    80608178:	f882                	sd	zero,112(sp)
    8060817a:	7551                	lui	a0,0xffff4
    8060817c:	10da21b7          	lui	gp,0x10da2
    80608180:	2909                	addiw	s2,s2,2
    80608182:	925e                	add	tp,tp,s7
    80608184:	38bc                	fld	fa5,112(s1)
    80608186:	f78d                	bnez	a5,806080b0 <data6+0xb0>
    80608188:	bcf573d3          	0xbcf573d3
    8060818c:	08cc0357          	0x8cc0357
    80608190:	7cf2                	ld	s9,312(sp)
    80608192:	9a2c                	0x9a2c
    80608194:	17d1                	addi	a5,a5,-12
    80608196:	4455                	li	s0,21
    80608198:	46d8                	lw	a4,12(a3)
    8060819a:	dcff                	0xdcff
    8060819c:	76a6                	ld	a3,104(sp)
    8060819e:	43da                	lw	t2,148(sp)
    806081a0:	5914                	lw	a3,48(a0)
    806081a2:	1c65                	addi	s8,s8,-7
    806081a4:	4d51                	li	s10,20
    806081a6:	dd2a                	sw	a0,184(sp)
    806081a8:	5635a893          	slti	a7,a1,1379
    806081ac:	bbf6                	fsd	ft9,496(sp)
    806081ae:	1bb660f7          	0x1bb660f7
    806081b2:	563a                	lw	a2,172(sp)
    806081b4:	4152                	lw	sp,20(sp)
    806081b6:	0fc4                	addi	s1,sp,980
    806081b8:	4a30                	lw	a2,80(a2)
    806081ba:	4bc85247          	fmsub.d	ft4,fa6,ft8,fs1,unknown
    806081be:	44f1                	li	s1,28
    806081c0:	5b10                	lw	a2,48(a4)
    806081c2:	901180a7          	0x901180a7
    806081c6:	3611                	addiw	a2,a2,-28
    806081c8:	8c5f 3c8d 5a4a      	0x5a4a3c8d8c5f
    806081ce:	b95e                	fsd	fs7,176(sp)
    806081d0:	969f1677          	0x969f1677
    806081d4:	b704                	fsd	fs1,40(a4)
    806081d6:	c351                	beqz	a4,8060825a <data6+0x25a>
    806081d8:	b055                	j	80607a7c <data5+0xa7c>
    806081da:	9d40                	0x9d40
    806081dc:	b21a                	fsd	ft6,288(sp)
    806081de:	b4f2                	fsd	ft8,104(sp)
    806081e0:	2679                	addiw	a2,a2,30
    806081e2:	5ff0                	lw	a2,124(a5)
    806081e4:	e9b0                	sd	a2,80(a1)
    806081e6:	a0fe                	fsd	ft11,64(sp)
    806081e8:	8c79                	and	s0,s0,a4
    806081ea:	ddbb0313          	addi	t1,s6,-549
    806081ee:	c531                	beqz	a0,8060823a <data6+0x23a>
    806081f0:	9e99                	subw	a3,a3,a4
    806081f2:	7009                	c.lui	zero,0xfffe2
    806081f4:	4875                	li	a6,29
    806081f6:	320eab8f          	0x320eab8f
    806081fa:	0bde                	slli	s7,s7,0x17
    806081fc:	2719924b          	fnmsub.q	ft4,fs3,fa7,ft4,rtz
    80608200:	9798                	0x9798
    80608202:	a6b04767          	0xa6b04767
    80608206:	bf68                	fsd	fa0,248(a4)
    80608208:	51e1                	li	gp,-8
    8060820a:	c450                	sw	a2,12(s0)
    8060820c:	d8c0de57          	0xd8c0de57
    80608210:	dacd                	beqz	a3,806081c2 <data6+0x1c2>
    80608212:	268a                	fld	fa3,128(sp)
    80608214:	c52e                	sw	a1,136(sp)
    80608216:	5c04                	lw	s1,56(s0)
    80608218:	8ac9                	andi	a3,a3,18
    8060821a:	a2c5                	j	806083fa <data6+0x3fa>
    8060821c:	091c                	addi	a5,sp,144
    8060821e:	ad19                	j	80608834 <data6+0x834>
    80608220:	ca7e9d57          	0xca7e9d57
    80608224:	64c9e0f3          	csrrsi	ra,0x64c,19
    80608228:	1ce8                	addi	a0,sp,636
    8060822a:	04dec507          	flq	fa0,77(t4) # ffffffffa066f04d <secret+0xffffffff1fa6f04d>
    8060822e:	b784                	fsd	fs1,40(a5)
    80608230:	069e                	slli	a3,a3,0x7
    80608232:	764e                	ld	a2,240(sp)
    80608234:	2edd                	addiw	t4,t4,23
    80608236:	71f8                	ld	a4,224(a1)
    80608238:	3d25                	addiw	s10,s10,-23
    8060823a:	8366                	mv	t1,s9
    8060823c:	29ee                	fld	fs3,216(sp)
    8060823e:	c831                	beqz	s0,80608292 <data6+0x292>
    80608240:	18fd                	addi	a7,a7,-1
    80608242:	a23a                	fsd	fa4,256(sp)
    80608244:	e5fe                	sd	t6,200(sp)
    80608246:	75e8                	ld	a0,232(a1)
    80608248:	84fe                	mv	s1,t6
    8060824a:	e9bd                	bnez	a1,806082c0 <data6+0x2c0>
    8060824c:	11b9                	addi	gp,gp,-18
    8060824e:	9eb2                	add	t4,t4,a2
    80608250:	8d60                	0x8d60
    80608252:	0810                	addi	a2,sp,16
    80608254:	d789                	beqz	a5,8060815e <data6+0x15e>
    80608256:	2b85                	addiw	s7,s7,1
    80608258:	28dd                	addiw	a7,a7,23
    8060825a:	a880                	fsd	fs0,16(s1)
    8060825c:	33c0                	fld	fs0,160(a5)
    8060825e:	a895                	j	806082d2 <data6+0x2d2>
    80608260:	6129                	addi	sp,sp,192
    80608262:	b6d374ef          	jal	s1,8053fdce <pre_attack1_end+0x13fce6>
    80608266:	ee64                	sd	s1,216(a2)
    80608268:	5a0c                	lw	a1,48(a2)
    8060826a:	42ff                	0x42ff
    8060826c:	83b7a70b          	0x83b7a70b
    80608270:	5f96                	lw	t6,100(sp)
    80608272:	c48c                	sw	a1,8(s1)
    80608274:	de25                	beqz	a2,806081ec <data6+0x1ec>
    80608276:	7c5a                	ld	s8,432(sp)
    80608278:	bd1f 7c68 8ba6      	0x8ba67c68bd1f
    8060827e:	ade5245b          	0xade5245b
    80608282:	356d                	addiw	a0,a0,-5
    80608284:	de8b2127          	fsw	fs0,-542(s6)
    80608288:	19ec                	addi	a1,sp,252
    8060828a:	6389                	lui	t2,0x2
    8060828c:	c1c2                	sw	a6,192(sp)
    8060828e:	74ca                	ld	s1,176(sp)
    80608290:	5c3c6ef7          	0x5c3c6ef7
    80608294:	9ade                	add	s5,s5,s7
    80608296:	78b92d37          	lui	s10,0x78b92
    8060829a:	1fd5                	addi	t6,t6,-11
    8060829c:	fb40                	sd	s0,176(a4)
    8060829e:	ececdd67          	0xececdd67
    806082a2:	e818                	sd	a4,16(s0)
    806082a4:	9ea9                	addw	a3,a3,a0
    806082a6:	731c                	ld	a5,32(a4)
    806082a8:	3582                	fld	fa1,32(sp)
    806082aa:	f03a                	sd	a4,32(sp)
    806082ac:	351f 840f faf5      	0xfaf5840f351f
    806082b2:	d0ddcd77          	0xd0ddcd77
    806082b6:	7dbc                	ld	a5,120(a1)
    806082b8:	7cc0                	ld	s0,184(s1)
    806082ba:	51c2                	lw	gp,48(sp)
    806082bc:	c9d6                	sw	s5,208(sp)
    806082be:	7299                	lui	t0,0xfffe6
    806082c0:	ede8                	sd	a0,216(a1)
    806082c2:	1c5c                	addi	a5,sp,564
    806082c4:	154a                	slli	a0,a0,0x32
    806082c6:	7d2c                	ld	a1,120(a0)
    806082c8:	6a953353          	0x6a953353
    806082cc:	df0a                	sw	sp,188(sp)
    806082ce:	71b8                	ld	a4,96(a1)
    806082d0:	4f75                	li	t5,29
    806082d2:	114e                	slli	sp,sp,0x33
    806082d4:	b64a                	fsd	fs2,296(sp)
    806082d6:	6d1a                	ld	s10,384(sp)
    806082d8:	8762                	mv	a4,s8
    806082da:	c4d97167          	0xc4d97167
    806082de:	1974                	addi	a3,sp,188
    806082e0:	32d1                	addiw	t0,t0,-12
    806082e2:	cf60                	sw	s0,92(a4)
    806082e4:	a118                	fsd	fa4,0(a0)
    806082e6:	21a1                	addiw	gp,gp,8
    806082e8:	3d0871a3          	0x3d0871a3
    806082ec:	85fa                	mv	a1,t5
    806082ee:	7e21                	lui	t3,0xfffe8
    806082f0:	fe5fc9d7          	0xfe5fc9d7
    806082f4:	0e25                	addi	t3,t3,9
    806082f6:	70f4                	ld	a3,224(s1)
    806082f8:	9c82                	jalr	s9
    806082fa:	7e9e                	ld	t4,480(sp)
    806082fc:	3cb8                	fld	fa4,120(s1)
    806082fe:	8b4a                	mv	s6,s2
    80608300:	d5f0532b          	0xd5f0532b
    80608304:	2606                	fld	fa2,64(sp)
    80608306:	a78a                	fsd	ft2,456(sp)
    80608308:	cfe4                	sw	s1,92(a5)
    8060830a:	041a                	slli	s0,s0,0x6
    8060830c:	6966                	ld	s2,88(sp)
    8060830e:	0d4d                	addi	s10,s10,19
    80608310:	3f12                	fld	ft10,288(sp)
    80608312:	48df5c13          	0x48df5c13
    80608316:	3723f22f          	0x3723f22f
    8060831a:	ab08                	fsd	fa0,16(a4)
    8060831c:	73cd                	lui	t2,0xffff3
    8060831e:	f98c                	sd	a1,48(a1)
    80608320:	f1905973          	csrrwi	s2,0xf19,0
    80608324:	fdf38fab          	0xfdf38fab
    80608328:	3ea6                	fld	ft9,104(sp)
    8060832a:	5ca581e3          	beq	a1,a0,806090ec <data7+0xec>
    8060832e:	d041                	beqz	s0,806082ae <data6+0x2ae>
    80608330:	5951                	li	s2,-12
    80608332:	28c9                	addiw	a7,a7,18
    80608334:	ef32                	sd	a2,408(sp)
    80608336:	18981c8b          	0x18981c8b
    8060833a:	cf46                	sw	a7,156(sp)
    8060833c:	ad44                	fsd	fs1,152(a0)
    8060833e:	d3373d9b          	0xd3373d9b
    80608342:	73a9                	lui	t2,0xfffea
    80608344:	c0ae                	sw	a1,64(sp)
    80608346:	b9fc2eb3          	0xb9fc2eb3
    8060834a:	39885d5b          	0x39885d5b
    8060834e:	740cde53          	0x740cde53
    80608352:	d1b5                	beqz	a1,806082b6 <data6+0x2b6>
    80608354:	2619                	addiw	a2,a2,6
    80608356:	f03a                	sd	a4,32(sp)
    80608358:	7184                	ld	s1,32(a1)
    8060835a:	460c                	lw	a1,8(a2)
    8060835c:	bea6                	fsd	fs1,376(sp)
    8060835e:	8305                	srli	a4,a4,0x1
    80608360:	af86                	fsd	ft1,472(sp)
    80608362:	c1de                	sw	s7,192(sp)
    80608364:	a195                	j	806087c8 <data6+0x7c8>
    80608366:	ba9f8327          	0xba9f8327
    8060836a:	3e49                	addiw	t3,t3,-14
    8060836c:	c5fd7f73          	csrrci	t5,0xc5f,26
    80608370:	c396                	sw	t0,196(sp)
    80608372:	1219                	addi	tp,tp,-26
    80608374:	4102                	lw	sp,0(sp)
    80608376:	7f19                	lui	t5,0xfffe6
    80608378:	85ca                	mv	a1,s2
    8060837a:	11b1                	addi	gp,gp,-20
    8060837c:	f5d192eb          	0xf5d192eb
    80608380:	9abc                	0x9abc
    80608382:	c2ff                	0xc2ff
    80608384:	52401e57          	0x52401e57
    80608388:	1070a353          	fmul.s	ft6,ft1,ft7,rdn
    8060838c:	06ce1a13          	0x6ce1a13
    80608390:	0b12                	slli	s6,s6,0x4
    80608392:	0c1fc167          	0xc1fc167
    80608396:	9fd4                	0x9fd4
    80608398:	8ad2                	mv	s5,s4
    8060839a:	5710                	lw	a2,40(a4)
    8060839c:	e732c613          	xori	a2,t0,-397
    806083a0:	54718883          	lb	a7,1351(gp) # 10da2547 <_start-0x6f25dab9>
    806083a4:	c4a6                	sw	s1,72(sp)
    806083a6:	8865                	andi	s0,s0,25
    806083a8:	79c2                	ld	s3,48(sp)
    806083aa:	6f1e                	ld	t5,448(sp)
    806083ac:	7e15                	lui	t3,0xfffe5
    806083ae:	9cbfd3a3          	0x9cbfd3a3
    806083b2:	7b34                	ld	a3,112(a4)
    806083b4:	1a88                	addi	a0,sp,368
    806083b6:	7eee                	ld	t4,248(sp)
    806083b8:	09e83bbb          	0x9e83bbb
    806083bc:	d831                	beqz	s0,80608310 <data6+0x310>
    806083be:	3fbfbd9b          	0x3fbfbd9b
    806083c2:	cd24                	sw	s1,88(a0)
    806083c4:	589e                	lw	a7,228(sp)
    806083c6:	e61e                	sd	t2,264(sp)
    806083c8:	3274                	fld	fa3,224(a2)
    806083ca:	6b90                	ld	a2,16(a5)
    806083cc:	5f2d                	li	t5,-21
    806083ce:	bb20                	fsd	fs0,112(a4)
    806083d0:	fb737baf          	0xfb737baf
    806083d4:	610c                	ld	a1,0(a0)
    806083d6:	d981                	beqz	a1,806082e6 <data6+0x2e6>
    806083d8:	fc58                	sd	a4,184(s0)
    806083da:	65407ce3          	bgeu	zero,s4,80609232 <data7+0x232>
    806083de:	bf85                	j	8060834e <data6+0x34e>
    806083e0:	f7c0                	sd	s0,168(a5)
    806083e2:	012a                	slli	sp,sp,0xa
    806083e4:	6c541d4f          	0x6c541d4f
    806083e8:	c226                	sw	s1,4(sp)
    806083ea:	3272                	fld	ft4,312(sp)
    806083ec:	ef6a                	sd	s10,408(sp)
    806083ee:	28da                	fld	fa7,400(sp)
    806083f0:	b2f9                	j	80607dbe <data5+0xdbe>
    806083f2:	cf0bac9b          	0xcf0bac9b
    806083f6:	b8cf4363          	blt	t5,a2,8060777c <data5+0x77c>
    806083fa:	543a                	lw	s0,172(sp)
    806083fc:	6959                	lui	s2,0x16
    806083fe:	c208                	sw	a0,0(a2)
	...

0000000080609000 <data7>:
    80609000:	bd18                	fsd	fa4,56(a0)
    80609002:	3f8e                	fld	ft11,224(sp)
    80609004:	b4ff3b3f 11c477bd 	0x11c477bdb4ff3b3f
    8060900c:	0b74                	addi	a3,sp,412
    8060900e:	3edc                	fld	fa5,184(a3)
    80609010:	8fa68aab          	0x8fa68aab
    80609014:	7ac5                	lui	s5,0xffff1
    80609016:	afd4                	fsd	fa3,152(a5)
    80609018:	250d                	addiw	a0,a0,3
    8060901a:	33f9                	addiw	t2,t2,-2
    8060901c:	c6d4                	sw	a3,12(a3)
    8060901e:	291f f7a9 7291      	0x7291f7a9291f
    80609024:	b446                	fsd	fa7,40(sp)
    80609026:	5dd9                	li	s11,-10
    80609028:	03a4                	addi	s1,sp,456
    8060902a:	2f42                	fld	ft10,16(sp)
    8060902c:	beff52d7          	0xbeff52d7
    80609030:	57bd                	li	a5,-17
    80609032:	8ce4                	0x8ce4
    80609034:	8306                	mv	t1,ra
    80609036:	7562                	ld	a0,56(sp)
    80609038:	9968                	0x9968
    8060903a:	b574                	fsd	fa3,232(a0)
    8060903c:	330a                	fld	ft6,160(sp)
    8060903e:	0aed                	addi	s5,s5,27
    80609040:	732d                	lui	t1,0xfffeb
    80609042:	dd3a                	sw	a4,184(sp)
    80609044:	247a                	fld	fs0,408(sp)
    80609046:	0175                	addi	sp,sp,29
    80609048:	40e6                	lw	ra,88(sp)
    8060904a:	bd64                	fsd	fs1,248(a0)
    8060904c:	578e                	lw	a5,224(sp)
    8060904e:	edd6                	sd	s5,216(sp)
    80609050:	05e4                	addi	s1,sp,716
    80609052:	75c38fdb          	0x75c38fdb
    80609056:	24409c93          	0x24409c93
    8060905a:	f599                	bnez	a1,80608f68 <data6+0xf68>
    8060905c:	52e2                	lw	t0,56(sp)
    8060905e:	2df4                	fld	fa3,216(a1)
    80609060:	9811                	andi	s0,s0,-28
    80609062:	c2dc                	sw	a5,4(a3)
    80609064:	a188                	fsd	fa0,0(a1)
    80609066:	f660                	sd	s0,232(a2)
    80609068:	c660                	sw	s0,76(a2)
    8060906a:	18d1                	addi	a7,a7,-12
    8060906c:	dc84                	sw	s1,56(s1)
    8060906e:	3df2                	fld	fs11,312(sp)
    80609070:	39d9                	addiw	s3,s3,-10
    80609072:	8a2e                	mv	s4,a1
    80609074:	1405e9d7          	0x1405e9d7
    80609078:	1a3a68d3          	fdiv.d	fa7,fs4,ft3,unknown
    8060907c:	168cb57b          	0x168cb57b
    80609080:	646c                	ld	a1,200(s0)
    80609082:	8c44                	0x8c44
    80609084:	1bb8                	addi	a4,sp,504
    80609086:	15272b23          	sw	s2,342(a4) # e156 <_start-0x7fff1eaa>
    8060908a:	e5bfc8d3          	0xe5bfc8d3
    8060908e:	5c4759d3          	0x5c4759d3
    80609092:	1f9e                	slli	t6,t6,0x27
    80609094:	31b9                	addiw	gp,gp,-18
    80609096:	00e782c7          	fmsub.s	ft5,fa5,fa4,ft0,rne
    8060909a:	5429                	li	s0,-22
    8060909c:	dfbd                	beqz	a5,8060901a <data7+0x1a>
    8060909e:	cc76                	sw	t4,24(sp)
    806090a0:	3244                	fld	fs1,160(a2)
    806090a2:	a9560d6b          	0xa9560d6b
    806090a6:	09d1ce4b          	fnmsub.s	ft8,ft3,ft9,ft1,rmm
    806090aa:	444c                	lw	a1,12(s0)
    806090ac:	a848abef          	jal	s7,80593330 <pre_attack1_end+0x193248>
    806090b0:	6ac8                	ld	a0,144(a3)
    806090b2:	2602                	fld	fa2,0(sp)
    806090b4:	6374                	ld	a3,192(a4)
    806090b6:	83a6                	mv	t2,s1
    806090b8:	f6ba                	sd	a4,360(sp)
    806090ba:	0a71                	addi	s4,s4,28
    806090bc:	b0b9                	j	8060890a <data6+0x90a>
    806090be:	6899                	lui	a7,0x6
    806090c0:	16157967          	0x16157967
    806090c4:	b4c4                	fsd	fs1,168(s1)
    806090c6:	9c02                	jalr	s8
    806090c8:	e0f2                	sd	t3,64(sp)
    806090ca:	03e2cf53          	fadd.d	ft10,ft5,ft10,rmm
    806090ce:	4670                	lw	a2,76(a2)
    806090d0:	1dbe                	slli	s11,s11,0x2f
    806090d2:	ce05                	beqz	a2,8060910a <data7+0x10a>
    806090d4:	3f1e                	fld	ft10,480(sp)
    806090d6:	3b3e                	fld	fs6,488(sp)
    806090d8:	b3b5                	j	80608e44 <data6+0xe44>
    806090da:	69dd                	lui	s3,0x17
    806090dc:	29d2                	fld	fs3,272(sp)
    806090de:	182a                	slli	a6,a6,0x2a
    806090e0:	e885                	bnez	s1,80609110 <data7+0x110>
    806090e2:	c43a                	sw	a4,8(sp)
    806090e4:	a8d2                	fsd	fs4,80(sp)
    806090e6:	8e948c07          	0x8e948c07
    806090ea:	2d18                	fld	fa4,24(a0)
    806090ec:	00b2                	slli	ra,ra,0xc
    806090ee:	6250                	ld	a2,128(a2)
    806090f0:	5cb1                	li	s9,-20
    806090f2:	7c36                	ld	s8,360(sp)
    806090f4:	b3f3ec73          	csrrsi	s8,0xb3f,7
    806090f8:	4f49                	li	t5,18
    806090fa:	3d26                	fld	fs10,104(sp)
    806090fc:	2952                	fld	fs2,272(sp)
    806090fe:	fb4b9637          	lui	a2,0xfb4b9
    80609102:	6686                	ld	a3,64(sp)
    80609104:	4258                	lw	a4,4(a2)
    80609106:	6178                	ld	a4,192(a0)
    80609108:	8c60                	0x8c60
    8060910a:	6cb4                	ld	a3,88(s1)
    8060910c:	aae2                	fsd	fs8,336(sp)
    8060910e:	86de                	mv	a3,s7
    80609110:	d8a85cf7          	0xd8a85cf7
    80609114:	04d1                	addi	s1,s1,20
    80609116:	1104af8b          	0x1104af8b
    8060911a:	0bd2                	slli	s7,s7,0x14
    8060911c:	e142                	sd	a6,128(sp)
    8060911e:	60c8                	ld	a0,128(s1)
    80609120:	a788                	fsd	fa0,8(a5)
    80609122:	73b5                	lui	t2,0xfffed
    80609124:	fc4c                	sd	a1,184(s0)
    80609126:	befe                	fsd	ft11,376(sp)
    80609128:	b848                	fsd	fa0,176(s0)
    8060912a:	27e8                	fld	fa0,200(a5)
    8060912c:	1fa6                	slli	t6,t6,0x29
    8060912e:	2b59bb93          	sltiu	s7,s3,693
    80609132:	ce24                	sw	s1,88(a2)
    80609134:	758a                	ld	a1,160(sp)
    80609136:	d80c1c2f          	0xd80c1c2f
    8060913a:	d578                	sw	a4,108(a0)
    8060913c:	2209                	addiw	tp,tp,2
    8060913e:	8955                	andi	a0,a0,21
    80609140:	ae44                	fsd	fs1,152(a2)
    80609142:	2c46                	fld	fs8,80(sp)
    80609144:	40b5bdbf da33d7ad 	0xda33d7ad40b5bdbf
    8060914c:	0419                	addi	s0,s0,6
    8060914e:	eda61063          	bne	a2,s10,8060880e <data6+0x80e>
    80609152:	96be                	add	a3,a3,a5
    80609154:	0361                	addi	t1,t1,24
    80609156:	62cc                	ld	a1,128(a3)
    80609158:	45b6                	lw	a1,76(sp)
    8060915a:	7b1529e7          	0x7b1529e7
    8060915e:	bf26                	fsd	fs1,440(sp)
    80609160:	c07f                	0xc07f
    80609162:	87e5                	srai	a5,a5,0x19
    80609164:	fa38                	sd	a4,112(a2)
    80609166:	0f91                	addi	t6,t6,4
    80609168:	f718                	sd	a4,40(a4)
    8060916a:	fa48                	sd	a0,176(a2)
    8060916c:	a5fd524f          	0xa5fd524f
    80609170:	64ea                	ld	s1,152(sp)
    80609172:	f432                	sd	a2,40(sp)
    80609174:	49b1                	li	s3,12
    80609176:	5529                	li	a0,-22
    80609178:	10a2                	slli	ra,ra,0x28
    8060917a:	454e                	lw	a0,208(sp)
    8060917c:	08de                	slli	a7,a7,0x17
    8060917e:	326c                	fld	fa1,224(a2)
    80609180:	a4df 2c6f e43e      	0xe43e2c6fa4df
    80609186:	6632                	ld	a2,264(sp)
    80609188:	cf3a                	sw	a4,156(sp)
    8060918a:	03517213          	andi	tp,sp,53
    8060918e:	9c108d8b          	0x9c108d8b
    80609192:	4bb5                	li	s7,13
    80609194:	9f6c                	0x9f6c
    80609196:	c2632667          	0xc2632667
    8060919a:	8e0d                	sub	a2,a2,a1
    8060919c:	061632fb          	0x61632fb
    806091a0:	89e6                	mv	s3,s9
    806091a2:	458feeaf          	0x458feeaf
    806091a6:	8649                	srai	a2,a2,0x12
    806091a8:	205c1483          	lh	s1,517(s8)
    806091ac:	67a8                	ld	a0,72(a5)
    806091ae:	7dba                	ld	s11,424(sp)
    806091b0:	4c29                	li	s8,10
    806091b2:	1a1c                	addi	a5,sp,304
    806091b4:	20fc                	fld	fa5,192(s1)
    806091b6:	87c2                	mv	a5,a6
    806091b8:	adfd                	j	806098b6 <data7+0x8b6>
    806091ba:	66aa                	ld	a3,136(sp)
    806091bc:	dd2e                	sw	a1,184(sp)
    806091be:	9b7c                	0x9b7c
    806091c0:	b030                	fsd	fa2,96(s0)
    806091c2:	ce65                	beqz	a2,806092ba <data7+0x2ba>
    806091c4:	0f38                	addi	a4,sp,920
    806091c6:	325af13f 16ed3707 	0x16ed3707325af13f
    806091ce:	1caa                	slli	s9,s9,0x2a
    806091d0:	cac4                	sw	s1,20(a3)
    806091d2:	3992                	fld	fs3,288(sp)
    806091d4:	1ea6                	slli	t4,t4,0x29
    806091d6:	f489                	bnez	s1,806090e0 <data7+0xe0>
    806091d8:	5a46                	lw	s4,112(sp)
    806091da:	f392                	sd	tp,480(sp)
    806091dc:	9f2d                	addw	a4,a4,a1
    806091de:	73b2                	ld	t2,296(sp)
    806091e0:	1ba8                	addi	a0,sp,504
    806091e2:	5f8ffb53          	0x5f8ffb53
    806091e6:	ede9                	bnez	a1,806092c0 <data7+0x2c0>
    806091e8:	980a                	add	a6,a6,sp
    806091ea:	3bca                	fld	fs7,176(sp)
    806091ec:	4ef53737          	lui	a4,0x4ef53
    806091f0:	4ebfc3eb          	0x4ebfc3eb
    806091f4:	74334d87          	flq	fs11,1859(t1) # fffffffffffeb743 <secret+0xffffffff7f3eb743>
    806091f8:	cd58                	sw	a4,28(a0)
    806091fa:	072c                	addi	a1,sp,904
    806091fc:	31dd908b          	0x31dd908b
    80609200:	9d70                	0x9d70
    80609202:	86de                	mv	a3,s7
    80609204:	d22a8ca3          	sb	sp,-711(s5) # ffffffffffff0d39 <secret+0xffffffff7f3f0d39>
    80609208:	947d                	srai	s0,s0,0x3f
    8060920a:	ac160947          	0xac160947
    8060920e:	3d71028b          	0x3d71028b
    80609212:	a738                	fsd	fa4,72(a4)
    80609214:	4d01                	li	s10,0
    80609216:	5799                	li	a5,-26
    80609218:	b4ec                	fsd	fa1,232(s1)
    8060921a:	ad4e0873          	0xad4e0873
    8060921e:	be19                	j	80608d34 <data6+0xd34>
    80609220:	efce                	sd	s3,472(sp)
    80609222:	e034b3a7          	fsd	ft3,-505(s1) # ffffffffffffbe07 <secret+0xffffffff7f3fbe07>
    80609226:	654e                	ld	a0,208(sp)
    80609228:	6edd                	lui	t4,0x17
    8060922a:	ff2a                	sd	a0,440(sp)
    8060922c:	6fca8c1b          	addiw	s8,s5,1788
    80609230:	ca84                	sw	s1,16(a3)
    80609232:	74066a6b          	0x74066a6b
    80609236:	959c                	0x959c
    80609238:	d2b0                	sw	a2,96(a3)
    8060923a:	048d                	addi	s1,s1,3
    8060923c:	9c5f 9e29 10e3      	0x10e39e299c5f
    80609242:	997a4e8b          	0x997a4e8b
    80609246:	ae4e                	fsd	fs3,280(sp)
    80609248:	db15f1ef          	jal	gp,80568ff8 <pre_attack1_end+0x168f10>
    8060924c:	1a53e903          	lwu	s2,421(t2) # fffffffffffed1a5 <secret+0xffffffff7f3ed1a5>
    80609250:	76fd                	lui	a3,0xfffff
    80609252:	ce61                	beqz	a2,8060932a <data7+0x32a>
    80609254:	0774                	addi	a3,sp,908
    80609256:	740d                	lui	s0,0xfffe3
    80609258:	51b6                	lw	gp,108(sp)
    8060925a:	da40                	sw	s0,52(a2)
    8060925c:	e252                	sd	s4,256(sp)
    8060925e:	d8e5                	beqz	s1,8060924e <data7+0x24e>
    80609260:	58ba                	lw	a7,172(sp)
    80609262:	b3dc                	fsd	fa5,160(a5)
    80609264:	6c04                	ld	s1,24(s0)
    80609266:	97c5                	srai	a5,a5,0x31
    80609268:	e476                	sd	t4,8(sp)
    8060926a:	a25d                	j	80609410 <data7+0x410>
    8060926c:	4645                	li	a2,17
    8060926e:	23cce1eb          	0x23cce1eb
    80609272:	8436                	mv	s0,a3
    80609274:	fb80                	sd	s0,48(a5)
    80609276:	d8f406eb          	0xd8f406eb
    8060927a:	a02a                	fsd	fa0,0(sp)
    8060927c:	837f                	0x837f
    8060927e:	40ea                	lw	ra,152(sp)
    80609280:	2718                	fld	fa4,8(a4)
    80609282:	e751caab          	0xe751caab
    80609286:	9f496f13          	ori	t5,s2,-1548
    8060928a:	cc6d                	beqz	s0,80609384 <data7+0x384>
    8060928c:	361733b7          	lui	t2,0x36173
    80609290:	43fd                	li	t2,31
    80609292:	54f2                	lw	s1,60(sp)
    80609294:	1c98                	addi	a4,sp,624
    80609296:	33297d5b          	0x33297d5b
    8060929a:	6966a28b          	0x6966a28b
    8060929e:	1745                	addi	a4,a4,-15
    806092a0:	7d55                	lui	s10,0xffff5
    806092a2:	8c91                	sub	s1,s1,a2
    806092a4:	5f70                	lw	a2,124(a4)
    806092a6:	dcb0                	sw	a2,120(s1)
    806092a8:	fbd8                	sd	a4,176(a5)
    806092aa:	3cee                	fld	fs9,248(sp)
    806092ac:	639268c7          	fmsub.d	fa7,ft4,fs9,fa2,unknown
    806092b0:	485e                	lw	a6,212(sp)
    806092b2:	edd8                	sd	a4,152(a1)
    806092b4:	5ec2                	lw	t4,48(sp)
    806092b6:	bb3e                	fsd	fa5,432(sp)
    806092b8:	ea9b82eb          	0xea9b82eb
    806092bc:	a995                	j	80609730 <data7+0x730>
    806092be:	472d                	li	a4,11
    806092c0:	f92a                	sd	a0,176(sp)
    806092c2:	fef1                	bnez	a3,8060929e <data7+0x29e>
    806092c4:	ccce                	sw	s3,88(sp)
    806092c6:	31fa                	fld	ft3,440(sp)
    806092c8:	ae9c                	fsd	fa5,24(a3)
    806092ca:	7fb0                	ld	a2,120(a5)
    806092cc:	e2f2                	sd	t3,320(sp)
    806092ce:	d1076d57          	0xd1076d57
    806092d2:	8e1ba9c3          	fmadd.q	fs3,fs7,ft1,fa7,rdn
    806092d6:	9aff                	0x9aff
    806092d8:	0b75                	addi	s6,s6,29
    806092da:	2a4749fb          	0x2a4749fb
    806092de:	a60c                	fsd	fa1,8(a2)
    806092e0:	e568b027          	fsd	fs6,-448(a7) # 5e40 <_start-0x7fffa1c0>
    806092e4:	64c9                	lui	s1,0x12
    806092e6:	b705                	j	80609206 <data7+0x206>
    806092e8:	1e54                	addi	a3,sp,820
    806092ea:	2f14                	fld	fa3,24(a4)
    806092ec:	54ae                	lw	s1,232(sp)
    806092ee:	2e758087          	0x2e758087
    806092f2:	38a6788f          	0x38a6788f
    806092f6:	4f5c                	lw	a5,28(a4)
    806092f8:	db2a                	sw	a0,180(sp)
    806092fa:	5daa                	lw	s11,168(sp)
    806092fc:	fa6d                	bnez	a2,806092ee <data7+0x2ee>
    806092fe:	4ed96977          	0x4ed96977
    80609302:	1088827b          	0x1088827b
    80609306:	f63d                	bnez	a2,80609274 <data7+0x274>
    80609308:	f3c9                	bnez	a5,8060928a <data7+0x28a>
    8060930a:	1850                	addi	a2,sp,52
    8060930c:	203a                	fld	ft0,392(sp)
    8060930e:	00f2                	slli	ra,ra,0x1c
    80609310:	afee                	fsd	fs11,472(sp)
    80609312:	7630                	ld	a2,104(a2)
    80609314:	2954                	fld	fa3,144(a0)
    80609316:	38ee                	fld	fa7,248(sp)
    80609318:	6e25                	lui	t3,0x9
    8060931a:	9db4                	0x9db4
    8060931c:	5f7d                	li	t5,-1
    8060931e:	3ebc                	fld	fa5,120(a3)
    80609320:	7994                	ld	a3,48(a1)
    80609322:	9f37b8cb          	fnmsub.q	fa7,fa5,fs3,fs3,rup
    80609326:	279d                	addiw	a5,a5,7
    80609328:	7a44                	ld	s1,176(a2)
    8060932a:	c25e                	sw	s7,4(sp)
    8060932c:	1de0                	addi	s0,sp,764
    8060932e:	2dd2                	fld	fs11,272(sp)
    80609330:	352d                	addiw	a0,a0,-21
    80609332:	59588537          	lui	a0,0x59588
    80609336:	4c75                	li	s8,29
    80609338:	37b9                	addiw	a5,a5,-18
    8060933a:	664d1077          	0x664d1077
    8060933e:	9686                	add	a3,a3,ra
    80609340:	d473ba07          	fld	fs4,-697(t2) # 36172d47 <_start-0x49e8d2b9>
    80609344:	9ee67d33          	0x9ee67d33
    80609348:	faa1c213          	xori	tp,gp,-86
    8060934c:	3b6d                	addiw	s6,s6,-5
    8060934e:	ac6d                	j	80609608 <data7+0x608>
    80609350:	518a                	lw	gp,160(sp)
    80609352:	bfdd                	j	80609348 <data7+0x348>
    80609354:	41c5                	li	gp,17
    80609356:	d6ee                	sw	s11,108(sp)
    80609358:	5596                	lw	a1,100(sp)
    8060935a:	9811                	andi	s0,s0,-28
    8060935c:	4bca                	lw	s7,144(sp)
    8060935e:	45be                	lw	a1,204(sp)
    80609360:	716de117          	auipc	sp,0x716de
    80609364:	ef93618f          	0xef93618f
    80609368:	f936                	sd	a3,176(sp)
    8060936a:	98e34dfb          	0x98e34dfb
    8060936e:	2381                	sext.w	t2,t2
    80609370:	68d9c377          	0x68d9c377
    80609374:	0894                	addi	a3,sp,80
    80609376:	6271                	lui	tp,0x1c
    80609378:	eb38                	sd	a4,80(a4)
    8060937a:	da9c                	sw	a5,48(a3)
    8060937c:	e9db8a4f          	fnmadd.s	fs4,fs7,ft9,ft9,rne
    80609380:	1b4c                	addi	a1,sp,436
    80609382:	a214                	fsd	fa3,0(a2)
    80609384:	7e19                	lui	t3,0xfffe6
    80609386:	7994                	ld	a3,48(a1)
    80609388:	88c4                	0x88c4
    8060938a:	e8bc                	sd	a5,80(s1)
    8060938c:	b008                	fsd	fa0,32(s0)
    8060938e:	24e5                	addiw	s1,s1,25
    80609390:	ce60                	sw	s0,92(a2)
    80609392:	8b9f 14c8 3c33      	0x3c3314c88b9f
    80609398:	eb54                	sd	a3,144(a4)
    8060939a:	c4ba                	sw	a4,72(sp)
    8060939c:	c48c                	sw	a1,8(s1)
    8060939e:	cf56                	sw	s5,156(sp)
    806093a0:	5fa2                	lw	t6,40(sp)
    806093a2:	fc68                	sd	a0,248(s0)
    806093a4:	99c4                	0x99c4
    806093a6:	f0e5686b          	0xf0e5686b
    806093aa:	9d40                	0x9d40
    806093ac:	fa3fad97          	auipc	s11,0xfa3fa
    806093b0:	15fdd97b          	0x15fdd97b
    806093b4:	96ced8cf          	fnmadd.q	fa7,ft9,fa2,fs2,unknown
    806093b8:	ea61                	bnez	a2,80609488 <data7+0x488>
    806093ba:	3df6                	fld	fs11,376(sp)
    806093bc:	bf5a                	fsd	fs6,440(sp)
    806093be:	28dc                	fld	fa5,144(s1)
    806093c0:	f578                	sd	a4,232(a0)
    806093c2:	a568                	fsd	fa0,200(a0)
    806093c4:	f0da                	sd	s6,96(sp)
    806093c6:	c354                	sw	a3,4(a4)
    806093c8:	77e6                	ld	a5,120(sp)
    806093ca:	b2e1                	j	80608d92 <data6+0xd92>
    806093cc:	523c                	lw	a5,96(a2)
    806093ce:	848e                	mv	s1,gp
    806093d0:	1eff                	0x1eff
    806093d2:	f2ae                	sd	a1,352(sp)
    806093d4:	0d75                	addi	s10,s10,29
    806093d6:	f9a4                	sd	s1,112(a1)
    806093d8:	2b3e                	fld	fs6,456(sp)
    806093da:	06c8                	addi	a0,sp,836
    806093dc:	25a6                	fld	fa1,72(sp)
    806093de:	a6ed                	j	806097c8 <data7+0x7c8>
    806093e0:	5466                	lw	s0,120(sp)
    806093e2:	0d09c6e7          	0xd09c6e7
    806093e6:	18419717          	auipc	a4,0x18419
    806093ea:	64e8                	ld	a0,200(s1)
    806093ec:	b150                	fsd	fa2,160(a0)
    806093ee:	b620                	fsd	fs0,104(a2)
    806093f0:	aed9                	j	806097c6 <data7+0x7c6>
    806093f2:	b4b2                	fsd	fa2,104(sp)
    806093f4:	209a                	fld	ft1,384(sp)
    806093f6:	a648                	fsd	fa0,136(a2)
    806093f8:	d299                	beqz	a3,806092fe <data7+0x2fe>
    806093fa:	3f9d                	addiw	t6,t6,-25
    806093fc:	ad1f7cbf  	0xad1f7cbf

Disassembly of section .text.receive:

0000000080800000 <receive>:
    80800000:	00000073          	ecall

Disassembly of section .data.secret:

0000000080c00000 <secret>:
	...

Disassembly of section .riscv.attributes:

0000000000000000 <.riscv.attributes>:
   0:	2f41                	addiw	t5,t5,16
   2:	0000                	unimp
   4:	7200                	ld	s0,32(a2)
   6:	7369                	lui	t1,0xffffa
   8:	01007663          	bgeu	zero,a6,14 <_start-0x7fffffec>
   c:	0025                	c.nop	9
   e:	0000                	unimp
  10:	1004                	addi	s1,sp,32
  12:	7205                	lui	tp,0xfffe1
  14:	3676                	fld	fa2,376(sp)
  16:	6934                	ld	a3,80(a0)
  18:	7032                	0x7032
  1a:	5f30                	lw	a2,120(a4)
  1c:	326d                	addiw	tp,tp,-5
  1e:	3070                	fld	fa2,224(s0)
  20:	615f 7032 5f30      	0x5f307032615f
  26:	3266                	fld	ft4,120(sp)
  28:	3070                	fld	fa2,224(s0)
  2a:	645f 7032 0030      	0x307032645f

Disassembly of section .comment:

0000000000000000 <.comment>:
   0:	3a434347          	fmsub.d	ft6,ft6,ft4,ft7,rmm
   4:	2820                	fld	fs0,80(s0)
   6:	2029                	0x2029
   8:	2e39                	addiw	t3,t3,14
   a:	00302e33          	sgtz	t3,gp

Disassembly of section .debug_line:

0000000000000000 <.debug_line>:
   0:	0a68                	addi	a0,sp,284
   2:	0000                	unimp
   4:	00820003          	lb	zero,8(tp) # fffffffffffe1008 <secret+0xffffffff7f3e1008>
   8:	0000                	unimp
   a:	0101                	addi	sp,sp,0
   c:	000d0efb          	0xd0efb
  10:	0101                	addi	sp,sp,0
  12:	0101                	addi	sp,sp,0
  14:	0000                	unimp
  16:	0100                	addi	s0,sp,128
  18:	0000                	unimp
  1a:	2f01                	sext.w	t5,t5
  1c:	6f72                	ld	t5,280(sp)
  1e:	732f746f          	jal	s0,f7750 <_start-0x7ff088b0>
  22:	6570                	ld	a2,200(a0)
  24:	636f6463          	bltu	t5,s6,64c <_start-0x7ffff9b4>
  28:	6f74                	ld	a3,216(a4)
  2a:	2f72                	fld	ft10,280(sp)
  2c:	7546                	ld	a0,112(sp)
  2e:	7a7a                	ld	s4,440(sp)
  30:	7265                	lui	tp,0xffff9
  32:	6570732f          	0x6570732f
  36:	636f6463          	bltu	t5,s6,65e <_start-0x7ffff9a2>
  3a:	6f74                	ld	a3,216(a4)
  3c:	2f72                	fld	ft10,280(sp)
  3e:	7274                	ld	a3,224(a2)
  40:	6769                	lui	a4,0x1a
  42:	73726567          	0x73726567
  46:	0000                	unimp
  48:	3474                	fld	fa3,232(s0)
  4a:	555f 5332 415f      	0x415f5332555f
  50:	5454                	lw	a3,44(s0)
  52:	4341                	li	t1,16
  54:	5f52454b          	fnmsub.q	fa0,ft4,fs5,fa1,rmm
  58:	32343733          	0x32343733
  5c:	3138                	fld	fa4,96(a0)
  5e:	34353633          	0x34353633
  62:	4d5f 4d45 425f      	0x425f4d454d5f
  68:	5f52                	lw	t5,52(sp)
  6a:	7830                	ld	a2,112(s0)
  6c:	3038                	fld	fa4,96(s0)
  6e:	3036                	fld	ft0,360(sp)
  70:	3030                	fld	fa2,96(s0)
  72:	3834                	fld	fa3,112(s0)
  74:	305f 3878 3630      	0x36303878305f
  7a:	3030                	fld	fa2,96(s0)
  7c:	3430                	fld	fa2,104(s0)
  7e:	6c625f63          	bge	tp,t1,75c <_start-0x7ffff8a4>
  82:	5f74                	lw	a3,124(a4)
  84:	2e38                	fld	fa4,88(a2)
  86:	00010053          	fadd.s	ft0,ft2,ft0,rne
  8a:	0000                	unimp
  8c:	0900                	addi	s0,sp,144
  8e:	0002                	c.slli64	zero
  90:	0000                	unimp
  92:	0080                	addi	s0,sp,64
  94:	0000                	unimp
  96:	0300                	addi	s0,sp,384
  98:	05030137          	lui	sp,0x5030
  9c:	0409                	addi	s0,s0,2
  9e:	0100                	addi	s0,sp,128
  a0:	04090503          	lb	a0,64(s2) # 16040 <_start-0x7ffe9fc0>
  a4:	0100                	addi	s0,sp,128
  a6:	04090103          	lb	sp,64(s2)
  aa:	0100                	addi	s0,sp,128
  ac:	04090103          	lb	sp,64(s2)
  b0:	0100                	addi	s0,sp,128
  b2:	04090103          	lb	sp,64(s2)
  b6:	0100                	addi	s0,sp,128
  b8:	04090103          	lb	sp,64(s2)
  bc:	0100                	addi	s0,sp,128
  be:	04090103          	lb	sp,64(s2)
  c2:	0100                	addi	s0,sp,128
  c4:	04090903          	lb	s2,64(s2)
  c8:	0100                	addi	s0,sp,128
  ca:	04090203          	lb	tp,64(s2)
  ce:	0100                	addi	s0,sp,128
  d0:	14091503          	lh	a0,320(s2)
  d4:	0100                	addi	s0,sp,128
  d6:	04090103          	lb	sp,64(s2)
  da:	0100                	addi	s0,sp,128
  dc:	04090103          	lb	sp,64(s2)
  e0:	0100                	addi	s0,sp,128
  e2:	04090103          	lb	sp,64(s2)
  e6:	0100                	addi	s0,sp,128
  e8:	04090103          	lb	sp,64(s2)
  ec:	0100                	addi	s0,sp,128
  ee:	04090403          	lb	s0,64(s2)
  f2:	0100                	addi	s0,sp,128
  f4:	14090403          	lb	s0,320(s2)
  f8:	0100                	addi	s0,sp,128
  fa:	04090203          	lb	tp,64(s2)
  fe:	0100                	addi	s0,sp,128
 100:	04090303          	lb	t1,64(s2)
 104:	0100                	addi	s0,sp,128
 106:	04090103          	lb	sp,64(s2)
 10a:	0100                	addi	s0,sp,128
 10c:	04090103          	lb	sp,64(s2)
 110:	0100                	addi	s0,sp,128
 112:	04090103          	lb	sp,64(s2)
 116:	0100                	addi	s0,sp,128
 118:	04090103          	lb	sp,64(s2)
 11c:	0100                	addi	s0,sp,128
 11e:	04090103          	lb	sp,64(s2)
 122:	0100                	addi	s0,sp,128
 124:	04090103          	lb	sp,64(s2)
 128:	0100                	addi	s0,sp,128
 12a:	04090103          	lb	sp,64(s2)
 12e:	0100                	addi	s0,sp,128
 130:	04090103          	lb	sp,64(s2)
 134:	0100                	addi	s0,sp,128
 136:	04090103          	lb	sp,64(s2)
 13a:	0100                	addi	s0,sp,128
 13c:	04090103          	lb	sp,64(s2)
 140:	0100                	addi	s0,sp,128
 142:	04090103          	lb	sp,64(s2)
 146:	0100                	addi	s0,sp,128
 148:	04090103          	lb	sp,64(s2)
 14c:	0100                	addi	s0,sp,128
 14e:	04090103          	lb	sp,64(s2)
 152:	0100                	addi	s0,sp,128
 154:	04090103          	lb	sp,64(s2)
 158:	0100                	addi	s0,sp,128
 15a:	04090103          	lb	sp,64(s2)
 15e:	0100                	addi	s0,sp,128
 160:	04090103          	lb	sp,64(s2)
 164:	0100                	addi	s0,sp,128
 166:	04090103          	lb	sp,64(s2)
 16a:	0100                	addi	s0,sp,128
 16c:	04090103          	lb	sp,64(s2)
 170:	0100                	addi	s0,sp,128
 172:	04090103          	lb	sp,64(s2)
 176:	0100                	addi	s0,sp,128
 178:	04090103          	lb	sp,64(s2)
 17c:	0100                	addi	s0,sp,128
 17e:	04090103          	lb	sp,64(s2)
 182:	0100                	addi	s0,sp,128
 184:	04090103          	lb	sp,64(s2)
 188:	0100                	addi	s0,sp,128
 18a:	04090103          	lb	sp,64(s2)
 18e:	0100                	addi	s0,sp,128
 190:	04090103          	lb	sp,64(s2)
 194:	0100                	addi	s0,sp,128
 196:	04090103          	lb	sp,64(s2)
 19a:	0100                	addi	s0,sp,128
 19c:	04090103          	lb	sp,64(s2)
 1a0:	0100                	addi	s0,sp,128
 1a2:	04090103          	lb	sp,64(s2)
 1a6:	0100                	addi	s0,sp,128
 1a8:	04090103          	lb	sp,64(s2)
 1ac:	0100                	addi	s0,sp,128
 1ae:	04090103          	lb	sp,64(s2)
 1b2:	0100                	addi	s0,sp,128
 1b4:	04090103          	lb	sp,64(s2)
 1b8:	0100                	addi	s0,sp,128
 1ba:	04090403          	lb	s0,64(s2)
 1be:	0100                	addi	s0,sp,128
 1c0:	04090103          	lb	sp,64(s2)
 1c4:	0100                	addi	s0,sp,128
 1c6:	04090103          	lb	sp,64(s2)
 1ca:	0100                	addi	s0,sp,128
 1cc:	04090103          	lb	sp,64(s2)
 1d0:	0100                	addi	s0,sp,128
 1d2:	04090103          	lb	sp,64(s2)
 1d6:	0100                	addi	s0,sp,128
 1d8:	04090103          	lb	sp,64(s2)
 1dc:	0100                	addi	s0,sp,128
 1de:	04090103          	lb	sp,64(s2)
 1e2:	0100                	addi	s0,sp,128
 1e4:	04090103          	lb	sp,64(s2)
 1e8:	0100                	addi	s0,sp,128
 1ea:	04090103          	lb	sp,64(s2)
 1ee:	0100                	addi	s0,sp,128
 1f0:	04090103          	lb	sp,64(s2)
 1f4:	0100                	addi	s0,sp,128
 1f6:	04090103          	lb	sp,64(s2)
 1fa:	0100                	addi	s0,sp,128
 1fc:	04090103          	lb	sp,64(s2)
 200:	0100                	addi	s0,sp,128
 202:	04090103          	lb	sp,64(s2)
 206:	0100                	addi	s0,sp,128
 208:	04090103          	lb	sp,64(s2)
 20c:	0100                	addi	s0,sp,128
 20e:	04090103          	lb	sp,64(s2)
 212:	0100                	addi	s0,sp,128
 214:	04090103          	lb	sp,64(s2)
 218:	0100                	addi	s0,sp,128
 21a:	04090103          	lb	sp,64(s2)
 21e:	0100                	addi	s0,sp,128
 220:	04090103          	lb	sp,64(s2)
 224:	0100                	addi	s0,sp,128
 226:	04090103          	lb	sp,64(s2)
 22a:	0100                	addi	s0,sp,128
 22c:	04090103          	lb	sp,64(s2)
 230:	0100                	addi	s0,sp,128
 232:	04090103          	lb	sp,64(s2)
 236:	0100                	addi	s0,sp,128
 238:	04090103          	lb	sp,64(s2)
 23c:	0100                	addi	s0,sp,128
 23e:	04090103          	lb	sp,64(s2)
 242:	0100                	addi	s0,sp,128
 244:	04090103          	lb	sp,64(s2)
 248:	0100                	addi	s0,sp,128
 24a:	04090103          	lb	sp,64(s2)
 24e:	0100                	addi	s0,sp,128
 250:	04090103          	lb	sp,64(s2)
 254:	0100                	addi	s0,sp,128
 256:	04090103          	lb	sp,64(s2)
 25a:	0100                	addi	s0,sp,128
 25c:	04090103          	lb	sp,64(s2)
 260:	0100                	addi	s0,sp,128
 262:	04090103          	lb	sp,64(s2)
 266:	0100                	addi	s0,sp,128
 268:	04090103          	lb	sp,64(s2)
 26c:	0100                	addi	s0,sp,128
 26e:	04090103          	lb	sp,64(s2)
 272:	0100                	addi	s0,sp,128
 274:	04090103          	lb	sp,64(s2)
 278:	0100                	addi	s0,sp,128
 27a:	04090103          	lb	sp,64(s2)
 27e:	0100                	addi	s0,sp,128
 280:	04090103          	lb	sp,64(s2)
 284:	0100                	addi	s0,sp,128
 286:	04090103          	lb	sp,64(s2)
 28a:	0100                	addi	s0,sp,128
 28c:	04090303          	lb	t1,64(s2)
 290:	0100                	addi	s0,sp,128
 292:	08090103          	lb	sp,128(s2)
 296:	0100                	addi	s0,sp,128
 298:	04090103          	lb	sp,64(s2)
 29c:	0100                	addi	s0,sp,128
 29e:	08090103          	lb	sp,128(s2)
 2a2:	0100                	addi	s0,sp,128
 2a4:	04090203          	lb	tp,64(s2)
 2a8:	0100                	addi	s0,sp,128
 2aa:	08090403          	lb	s0,128(s2)
 2ae:	0100                	addi	s0,sp,128
 2b0:	04090203          	lb	tp,64(s2)
 2b4:	0100                	addi	s0,sp,128
 2b6:	04090303          	lb	t1,64(s2)
 2ba:	0100                	addi	s0,sp,128
 2bc:	04090203          	lb	tp,64(s2)
 2c0:	0100                	addi	s0,sp,128
 2c2:	04090403          	lb	s0,64(s2)
 2c6:	0100                	addi	s0,sp,128
 2c8:	04090103          	lb	sp,64(s2)
 2cc:	0100                	addi	s0,sp,128
 2ce:	04090103          	lb	sp,64(s2)
 2d2:	0100                	addi	s0,sp,128
 2d4:	08090103          	lb	sp,128(s2)
 2d8:	0100                	addi	s0,sp,128
 2da:	04090203          	lb	tp,64(s2)
 2de:	0100                	addi	s0,sp,128
 2e0:	04090103          	lb	sp,64(s2)
 2e4:	0100                	addi	s0,sp,128
 2e6:	04090103          	lb	sp,64(s2)
 2ea:	0100                	addi	s0,sp,128
 2ec:	04090103          	lb	sp,64(s2)
 2f0:	0100                	addi	s0,sp,128
 2f2:	04090103          	lb	sp,64(s2)
 2f6:	0100                	addi	s0,sp,128
 2f8:	04090103          	lb	sp,64(s2)
 2fc:	0100                	addi	s0,sp,128
 2fe:	04090103          	lb	sp,64(s2)
 302:	0100                	addi	s0,sp,128
 304:	04090103          	lb	sp,64(s2)
 308:	0100                	addi	s0,sp,128
 30a:	04090103          	lb	sp,64(s2)
 30e:	0100                	addi	s0,sp,128
 310:	04090903          	lb	s2,64(s2)
 314:	0100                	addi	s0,sp,128
 316:	04090103          	lb	sp,64(s2)
 31a:	0100                	addi	s0,sp,128
 31c:	08090103          	lb	sp,128(s2)
 320:	0100                	addi	s0,sp,128
 322:	04090103          	lb	sp,64(s2)
 326:	0100                	addi	s0,sp,128
 328:	04090103          	lb	sp,64(s2)
 32c:	0100                	addi	s0,sp,128
 32e:	04090103          	lb	sp,64(s2)
 332:	0100                	addi	s0,sp,128
 334:	08090103          	lb	sp,128(s2)
 338:	0100                	addi	s0,sp,128
 33a:	04090103          	lb	sp,64(s2)
 33e:	0100                	addi	s0,sp,128
 340:	04090103          	lb	sp,64(s2)
 344:	0100                	addi	s0,sp,128
 346:	04090103          	lb	sp,64(s2)
 34a:	0100                	addi	s0,sp,128
 34c:	08090103          	lb	sp,128(s2)
 350:	0100                	addi	s0,sp,128
 352:	04090103          	lb	sp,64(s2)
 356:	0100                	addi	s0,sp,128
 358:	04090103          	lb	sp,64(s2)
 35c:	0100                	addi	s0,sp,128
 35e:	04090103          	lb	sp,64(s2)
 362:	0100                	addi	s0,sp,128
 364:	08090103          	lb	sp,128(s2)
 368:	0100                	addi	s0,sp,128
 36a:	04090103          	lb	sp,64(s2)
 36e:	0100                	addi	s0,sp,128
 370:	04090103          	lb	sp,64(s2)
 374:	0100                	addi	s0,sp,128
 376:	04090103          	lb	sp,64(s2)
 37a:	0100                	addi	s0,sp,128
 37c:	08090103          	lb	sp,128(s2)
 380:	0100                	addi	s0,sp,128
 382:	04090103          	lb	sp,64(s2)
 386:	0100                	addi	s0,sp,128
 388:	04090103          	lb	sp,64(s2)
 38c:	0100                	addi	s0,sp,128
 38e:	04090103          	lb	sp,64(s2)
 392:	0100                	addi	s0,sp,128
 394:	08090103          	lb	sp,128(s2)
 398:	0100                	addi	s0,sp,128
 39a:	04090103          	lb	sp,64(s2)
 39e:	0100                	addi	s0,sp,128
 3a0:	04090103          	lb	sp,64(s2)
 3a4:	0100                	addi	s0,sp,128
 3a6:	04090103          	lb	sp,64(s2)
 3aa:	0100                	addi	s0,sp,128
 3ac:	08090103          	lb	sp,128(s2)
 3b0:	0100                	addi	s0,sp,128
 3b2:	04090103          	lb	sp,64(s2)
 3b6:	0100                	addi	s0,sp,128
 3b8:	04090103          	lb	sp,64(s2)
 3bc:	0100                	addi	s0,sp,128
 3be:	04090103          	lb	sp,64(s2)
 3c2:	0100                	addi	s0,sp,128
 3c4:	08090103          	lb	sp,128(s2)
 3c8:	0100                	addi	s0,sp,128
 3ca:	04090103          	lb	sp,64(s2)
 3ce:	0100                	addi	s0,sp,128
 3d0:	04090103          	lb	sp,64(s2)
 3d4:	0100                	addi	s0,sp,128
 3d6:	04090103          	lb	sp,64(s2)
 3da:	0100                	addi	s0,sp,128
 3dc:	08090103          	lb	sp,128(s2)
 3e0:	0100                	addi	s0,sp,128
 3e2:	04090103          	lb	sp,64(s2)
 3e6:	0100                	addi	s0,sp,128
 3e8:	04090103          	lb	sp,64(s2)
 3ec:	0100                	addi	s0,sp,128
 3ee:	04090103          	lb	sp,64(s2)
 3f2:	0100                	addi	s0,sp,128
 3f4:	08090103          	lb	sp,128(s2)
 3f8:	0100                	addi	s0,sp,128
 3fa:	04090103          	lb	sp,64(s2)
 3fe:	0100                	addi	s0,sp,128
 400:	04090103          	lb	sp,64(s2)
 404:	0100                	addi	s0,sp,128
 406:	04090103          	lb	sp,64(s2)
 40a:	0100                	addi	s0,sp,128
 40c:	04090103          	lb	sp,64(s2)
 410:	0100                	addi	s0,sp,128
 412:	04090103          	lb	sp,64(s2)
 416:	0100                	addi	s0,sp,128
 418:	04090103          	lb	sp,64(s2)
 41c:	0100                	addi	s0,sp,128
 41e:	04090103          	lb	sp,64(s2)
 422:	0100                	addi	s0,sp,128
 424:	04090103          	lb	sp,64(s2)
 428:	0100                	addi	s0,sp,128
 42a:	04090103          	lb	sp,64(s2)
 42e:	0100                	addi	s0,sp,128
 430:	04090103          	lb	sp,64(s2)
 434:	0100                	addi	s0,sp,128
 436:	04090103          	lb	sp,64(s2)
 43a:	0100                	addi	s0,sp,128
 43c:	04090703          	lb	a4,64(s2)
 440:	0100                	addi	s0,sp,128
 442:	04090303          	lb	t1,64(s2)
 446:	0100                	addi	s0,sp,128
 448:	08090103          	lb	sp,128(s2)
 44c:	0100                	addi	s0,sp,128
 44e:	04090f03          	lb	t5,64(s2)
 452:	0100                	addi	s0,sp,128
 454:	08090103          	lb	sp,128(s2)
 458:	0100                	addi	s0,sp,128
 45a:	04090103          	lb	sp,64(s2)
 45e:	0100                	addi	s0,sp,128
 460:	04090303          	lb	t1,64(s2)
 464:	0100                	addi	s0,sp,128
 466:	14090203          	lb	tp,320(s2)
 46a:	0100                	addi	s0,sp,128
 46c:	04090103          	lb	sp,64(s2)
 470:	0100                	addi	s0,sp,128
 472:	04090103          	lb	sp,64(s2)
 476:	0100                	addi	s0,sp,128
 478:	04090103          	lb	sp,64(s2)
 47c:	0100                	addi	s0,sp,128
 47e:	04090103          	lb	sp,64(s2)
 482:	0100                	addi	s0,sp,128
 484:	04090103          	lb	sp,64(s2)
 488:	0100                	addi	s0,sp,128
 48a:	14090303          	lb	t1,320(s2)
 48e:	0100                	addi	s0,sp,128
 490:	14090203          	lb	tp,320(s2)
 494:	0100                	addi	s0,sp,128
 496:	04090203          	lb	tp,64(s2)
 49a:	0100                	addi	s0,sp,128
 49c:	04090103          	lb	sp,64(s2)
 4a0:	0100                	addi	s0,sp,128
 4a2:	04090103          	lb	sp,64(s2)
 4a6:	0100                	addi	s0,sp,128
 4a8:	04090103          	lb	sp,64(s2)
 4ac:	0100                	addi	s0,sp,128
 4ae:	04090203          	lb	tp,64(s2)
 4b2:	0100                	addi	s0,sp,128
 4b4:	14090403          	lb	s0,320(s2)
 4b8:	0100                	addi	s0,sp,128
 4ba:	04090103          	lb	sp,64(s2)
 4be:	0100                	addi	s0,sp,128
 4c0:	04090103          	lb	sp,64(s2)
 4c4:	0100                	addi	s0,sp,128
 4c6:	08090103          	lb	sp,128(s2)
 4ca:	0100                	addi	s0,sp,128
 4cc:	04090203          	lb	tp,64(s2)
 4d0:	0100                	addi	s0,sp,128
 4d2:	08090103          	lb	sp,128(s2)
 4d6:	0100                	addi	s0,sp,128
 4d8:	04090103          	lb	sp,64(s2)
 4dc:	0100                	addi	s0,sp,128
 4de:	08090103          	lb	sp,128(s2)
 4e2:	0100                	addi	s0,sp,128
 4e4:	04090303          	lb	t1,64(s2)
 4e8:	0100                	addi	s0,sp,128
 4ea:	04090103          	lb	sp,64(s2)
 4ee:	0100                	addi	s0,sp,128
 4f0:	04090103          	lb	sp,64(s2)
 4f4:	0100                	addi	s0,sp,128
 4f6:	04090503          	lb	a0,64(s2)
 4fa:	0100                	addi	s0,sp,128
 4fc:	04090203          	lb	tp,64(s2)
 500:	0100                	addi	s0,sp,128
 502:	08090103          	lb	sp,128(s2)
 506:	0100                	addi	s0,sp,128
 508:	04090503          	lb	a0,64(s2)
 50c:	0100                	addi	s0,sp,128
 50e:	08090103          	lb	sp,128(s2)
 512:	0100                	addi	s0,sp,128
 514:	04090103          	lb	sp,64(s2)
 518:	0100                	addi	s0,sp,128
 51a:	0409                	addi	s0,s0,2
 51c:	0000                	unimp
 51e:	0101                	addi	sp,sp,0
 520:	0900                	addi	s0,sp,144
 522:	0002                	c.slli64	zero
 524:	2000                	fld	fs0,0(s0)
 526:	0080                	addi	s0,sp,64
 528:	0000                	unimp
 52a:	0300                	addi	s0,sp,384
 52c:	02ff                	0x2ff
 52e:	0301                	addi	t1,t1,0
 530:	0901                	addi	s2,s2,0
 532:	0004                	0x4
 534:	0301                	addi	t1,t1,0
 536:	0901                	addi	s2,s2,0
 538:	0004                	0x4
 53a:	0301                	addi	t1,t1,0
 53c:	0901                	addi	s2,s2,0
 53e:	0004                	0x4
 540:	0301                	addi	t1,t1,0
 542:	0901                	addi	s2,s2,0
 544:	0004                	0x4
 546:	0301                	addi	t1,t1,0
 548:	0901                	addi	s2,s2,0
 54a:	0004                	0x4
 54c:	0301                	addi	t1,t1,0
 54e:	0901                	addi	s2,s2,0
 550:	0004                	0x4
 552:	0301                	addi	t1,t1,0
 554:	0901                	addi	s2,s2,0
 556:	0004                	0x4
 558:	0301                	addi	t1,t1,0
 55a:	0901                	addi	s2,s2,0
 55c:	0004                	0x4
 55e:	0301                	addi	t1,t1,0
 560:	0901                	addi	s2,s2,0
 562:	0004                	0x4
 564:	0301                	addi	t1,t1,0
 566:	0901                	addi	s2,s2,0
 568:	0004                	0x4
 56a:	0301                	addi	t1,t1,0
 56c:	0902                	c.slli64	s2
 56e:	0004                	0x4
 570:	0301                	addi	t1,t1,0
 572:	0901                	addi	s2,s2,0
 574:	0004                	0x4
 576:	0301                	addi	t1,t1,0
 578:	0901                	addi	s2,s2,0
 57a:	0004                	0x4
 57c:	0301                	addi	t1,t1,0
 57e:	0901                	addi	s2,s2,0
 580:	0008                	0x8
 582:	0301                	addi	t1,t1,0
 584:	0901                	addi	s2,s2,0
 586:	0004                	0x4
 588:	0301                	addi	t1,t1,0
 58a:	0901                	addi	s2,s2,0
 58c:	0004                	0x4
 58e:	0301                	addi	t1,t1,0
 590:	0901                	addi	s2,s2,0
 592:	0004                	0x4
 594:	0301                	addi	t1,t1,0
 596:	0901                	addi	s2,s2,0
 598:	0004                	0x4
 59a:	0301                	addi	t1,t1,0
 59c:	0901                	addi	s2,s2,0
 59e:	0004                	0x4
 5a0:	0301                	addi	t1,t1,0
 5a2:	0901                	addi	s2,s2,0
 5a4:	0008                	0x8
 5a6:	0301                	addi	t1,t1,0
 5a8:	0901                	addi	s2,s2,0
 5aa:	0004                	0x4
 5ac:	0301                	addi	t1,t1,0
 5ae:	0902                	c.slli64	s2
 5b0:	0004                	0x4
 5b2:	0301                	addi	t1,t1,0
 5b4:	0901                	addi	s2,s2,0
 5b6:	0004                	0x4
 5b8:	0301                	addi	t1,t1,0
 5ba:	0901                	addi	s2,s2,0
 5bc:	0004                	0x4
 5be:	0301                	addi	t1,t1,0
 5c0:	0901                	addi	s2,s2,0
 5c2:	0008                	0x8
 5c4:	0301                	addi	t1,t1,0
 5c6:	0901                	addi	s2,s2,0
 5c8:	0004                	0x4
 5ca:	0301                	addi	t1,t1,0
 5cc:	0901                	addi	s2,s2,0
 5ce:	0004                	0x4
 5d0:	0301                	addi	t1,t1,0
 5d2:	0901                	addi	s2,s2,0
 5d4:	0004                	0x4
 5d6:	0301                	addi	t1,t1,0
 5d8:	0902                	c.slli64	s2
 5da:	0004                	0x4
 5dc:	0301                	addi	t1,t1,0
 5de:	0901                	addi	s2,s2,0
 5e0:	0004                	0x4
 5e2:	0301                	addi	t1,t1,0
 5e4:	0901                	addi	s2,s2,0
 5e6:	0008                	0x8
 5e8:	0301                	addi	t1,t1,0
 5ea:	0901                	addi	s2,s2,0
 5ec:	0004                	0x4
 5ee:	0301                	addi	t1,t1,0
 5f0:	0901                	addi	s2,s2,0
 5f2:	0004                	0x4
 5f4:	0301                	addi	t1,t1,0
 5f6:	0901                	addi	s2,s2,0
 5f8:	0004                	0x4
 5fa:	0301                	addi	t1,t1,0
 5fc:	0901                	addi	s2,s2,0
 5fe:	0004                	0x4
 600:	0301                	addi	t1,t1,0
 602:	0901                	addi	s2,s2,0
 604:	0004                	0x4
 606:	0301                	addi	t1,t1,0
 608:	0901                	addi	s2,s2,0
 60a:	0008                	0x8
 60c:	0301                	addi	t1,t1,0
 60e:	0902                	c.slli64	s2
 610:	0004                	0x4
 612:	0301                	addi	t1,t1,0
 614:	0901                	addi	s2,s2,0
 616:	0004                	0x4
 618:	0301                	addi	t1,t1,0
 61a:	0901                	addi	s2,s2,0
 61c:	0004                	0x4
 61e:	0301                	addi	t1,t1,0
 620:	0901                	addi	s2,s2,0
 622:	0004                	0x4
 624:	0301                	addi	t1,t1,0
 626:	0901                	addi	s2,s2,0
 628:	0004                	0x4
 62a:	0301                	addi	t1,t1,0
 62c:	0901                	addi	s2,s2,0
 62e:	0004                	0x4
 630:	0301                	addi	t1,t1,0
 632:	0901                	addi	s2,s2,0
 634:	0004                	0x4
 636:	0301                	addi	t1,t1,0
 638:	0901                	addi	s2,s2,0
 63a:	0008                	0x8
 63c:	0301                	addi	t1,t1,0
 63e:	0901                	addi	s2,s2,0
 640:	0004                	0x4
 642:	0301                	addi	t1,t1,0
 644:	0901                	addi	s2,s2,0
 646:	0004                	0x4
 648:	0301                	addi	t1,t1,0
 64a:	00040903          	lb	s2,0(s0) # fffffffffffe3000 <secret+0xffffffff7f3e3000>
 64e:	0901                	addi	s2,s2,0
 650:	0008                	0x8
 652:	0100                	addi	s0,sp,128
 654:	0001                	nop
 656:	0209                	addi	tp,tp,2
 658:	0000                	unimp
 65a:	8040                	0x8040
 65c:	0000                	unimp
 65e:	0000                	unimp
 660:	0103be03          	ld	t3,16(t2)
 664:	04090103          	lb	sp,64(s2)
 668:	0100                	addi	s0,sp,128
 66a:	04090103          	lb	sp,64(s2)
 66e:	0100                	addi	s0,sp,128
 670:	08090103          	lb	sp,128(s2)
 674:	0100                	addi	s0,sp,128
 676:	04090103          	lb	sp,64(s2)
 67a:	0100                	addi	s0,sp,128
 67c:	08090103          	lb	sp,128(s2)
 680:	0100                	addi	s0,sp,128
 682:	08090103          	lb	sp,128(s2)
 686:	0100                	addi	s0,sp,128
 688:	04090203          	lb	tp,64(s2)
 68c:	0100                	addi	s0,sp,128
 68e:	08090103          	lb	sp,128(s2)
 692:	0100                	addi	s0,sp,128
 694:	04090103          	lb	sp,64(s2)
 698:	0100                	addi	s0,sp,128
 69a:	04090103          	lb	sp,64(s2)
 69e:	0100                	addi	s0,sp,128
 6a0:	08090103          	lb	sp,128(s2)
 6a4:	0100                	addi	s0,sp,128
 6a6:	04090103          	lb	sp,64(s2)
 6aa:	0100                	addi	s0,sp,128
 6ac:	04090103          	lb	sp,64(s2)
 6b0:	0100                	addi	s0,sp,128
 6b2:	04090103          	lb	sp,64(s2)
 6b6:	0100                	addi	s0,sp,128
 6b8:	04090103          	lb	sp,64(s2)
 6bc:	0100                	addi	s0,sp,128
 6be:	08090103          	lb	sp,128(s2)
 6c2:	0100                	addi	s0,sp,128
 6c4:	08090103          	lb	sp,128(s2)
 6c8:	0100                	addi	s0,sp,128
 6ca:	04090203          	lb	tp,64(s2)
 6ce:	0100                	addi	s0,sp,128
 6d0:	04090103          	lb	sp,64(s2)
 6d4:	0100                	addi	s0,sp,128
 6d6:	04090103          	lb	sp,64(s2)
 6da:	0100                	addi	s0,sp,128
 6dc:	08090103          	lb	sp,128(s2)
 6e0:	0100                	addi	s0,sp,128
 6e2:	04090103          	lb	sp,64(s2)
 6e6:	0100                	addi	s0,sp,128
 6e8:	04090103          	lb	sp,64(s2)
 6ec:	0100                	addi	s0,sp,128
 6ee:	04090103          	lb	sp,64(s2)
 6f2:	0100                	addi	s0,sp,128
 6f4:	04090103          	lb	sp,64(s2)
 6f8:	0100                	addi	s0,sp,128
 6fa:	04090103          	lb	sp,64(s2)
 6fe:	0100                	addi	s0,sp,128
 700:	04090103          	lb	sp,64(s2)
 704:	0100                	addi	s0,sp,128
 706:	04090103          	lb	sp,64(s2)
 70a:	0100                	addi	s0,sp,128
 70c:	04090203          	lb	tp,64(s2)
 710:	0100                	addi	s0,sp,128
 712:	04090103          	lb	sp,64(s2)
 716:	0100                	addi	s0,sp,128
 718:	04090103          	lb	sp,64(s2)
 71c:	0100                	addi	s0,sp,128
 71e:	04090103          	lb	sp,64(s2)
 722:	0100                	addi	s0,sp,128
 724:	04090103          	lb	sp,64(s2)
 728:	0100                	addi	s0,sp,128
 72a:	04090103          	lb	sp,64(s2)
 72e:	0100                	addi	s0,sp,128
 730:	04090103          	lb	sp,64(s2)
 734:	0100                	addi	s0,sp,128
 736:	04090103          	lb	sp,64(s2)
 73a:	0100                	addi	s0,sp,128
 73c:	04090103          	lb	sp,64(s2)
 740:	0100                	addi	s0,sp,128
 742:	08090103          	lb	sp,128(s2)
 746:	0100                	addi	s0,sp,128
 748:	08090103          	lb	sp,128(s2)
 74c:	0100                	addi	s0,sp,128
 74e:	04090203          	lb	tp,64(s2)
 752:	0100                	addi	s0,sp,128
 754:	04090103          	lb	sp,64(s2)
 758:	0100                	addi	s0,sp,128
 75a:	04090103          	lb	sp,64(s2)
 75e:	0100                	addi	s0,sp,128
 760:	04090103          	lb	sp,64(s2)
 764:	0100                	addi	s0,sp,128
 766:	04090103          	lb	sp,64(s2)
 76a:	0100                	addi	s0,sp,128
 76c:	08090103          	lb	sp,128(s2)
 770:	0100                	addi	s0,sp,128
 772:	04090103          	lb	sp,64(s2)
 776:	0100                	addi	s0,sp,128
 778:	04090303          	lb	t1,64(s2)
 77c:	0100                	addi	s0,sp,128
 77e:	0809                	addi	a6,a6,2
 780:	0000                	unimp
 782:	0101                	addi	sp,sp,0
 784:	0900                	addi	s0,sp,144
 786:	0002                	c.slli64	zero
 788:	6000                	ld	s0,0(s0)
 78a:	0080                	addi	s0,sp,64
 78c:	0000                	unimp
 78e:	0300                	addi	s0,sp,384
 790:	03fc                	addi	a5,sp,460
 792:	0301                	addi	t1,t1,0
 794:	0901                	addi	s2,s2,0
 796:	0004                	0x4
 798:	0301                	addi	t1,t1,0
 79a:	0901                	addi	s2,s2,0
 79c:	0004                	0x4
 79e:	0301                	addi	t1,t1,0
 7a0:	0901                	addi	s2,s2,0
 7a2:	0008                	0x8
 7a4:	0301                	addi	t1,t1,0
 7a6:	0901                	addi	s2,s2,0
 7a8:	0004                	0x4
 7aa:	0301                	addi	t1,t1,0
 7ac:	0901                	addi	s2,s2,0
 7ae:	0004                	0x4
 7b0:	0301                	addi	t1,t1,0
 7b2:	0901                	addi	s2,s2,0
 7b4:	0004                	0x4
 7b6:	0301                	addi	t1,t1,0
 7b8:	0901                	addi	s2,s2,0
 7ba:	0008                	0x8
 7bc:	0301                	addi	t1,t1,0
 7be:	0901                	addi	s2,s2,0
 7c0:	0004                	0x4
 7c2:	0301                	addi	t1,t1,0
 7c4:	0901                	addi	s2,s2,0
 7c6:	0004                	0x4
 7c8:	0301                	addi	t1,t1,0
 7ca:	0902                	c.slli64	s2
 7cc:	0004                	0x4
 7ce:	0301                	addi	t1,t1,0
 7d0:	0901                	addi	s2,s2,0
 7d2:	0004                	0x4
 7d4:	0301                	addi	t1,t1,0
 7d6:	0901                	addi	s2,s2,0
 7d8:	0004                	0x4
 7da:	0301                	addi	t1,t1,0
 7dc:	0901                	addi	s2,s2,0
 7de:	0004                	0x4
 7e0:	0301                	addi	t1,t1,0
 7e2:	0901                	addi	s2,s2,0
 7e4:	0004                	0x4
 7e6:	0301                	addi	t1,t1,0
 7e8:	0901                	addi	s2,s2,0
 7ea:	0004                	0x4
 7ec:	0301                	addi	t1,t1,0
 7ee:	0901                	addi	s2,s2,0
 7f0:	0004                	0x4
 7f2:	0301                	addi	t1,t1,0
 7f4:	0902                	c.slli64	s2
 7f6:	0004                	0x4
 7f8:	0301                	addi	t1,t1,0
 7fa:	0901                	addi	s2,s2,0
 7fc:	0004                	0x4
 7fe:	0301                	addi	t1,t1,0
 800:	0901                	addi	s2,s2,0
 802:	0004                	0x4
 804:	0301                	addi	t1,t1,0
 806:	0901                	addi	s2,s2,0
 808:	0008                	0x8
 80a:	0301                	addi	t1,t1,0
 80c:	0901                	addi	s2,s2,0
 80e:	0004                	0x4
 810:	0301                	addi	t1,t1,0
 812:	0901                	addi	s2,s2,0
 814:	0004                	0x4
 816:	0301                	addi	t1,t1,0
 818:	0901                	addi	s2,s2,0
 81a:	0004                	0x4
 81c:	0301                	addi	t1,t1,0
 81e:	0901                	addi	s2,s2,0
 820:	0004                	0x4
 822:	0301                	addi	t1,t1,0
 824:	0901                	addi	s2,s2,0
 826:	0004                	0x4
 828:	0301                	addi	t1,t1,0
 82a:	0901                	addi	s2,s2,0
 82c:	0004                	0x4
 82e:	0301                	addi	t1,t1,0
 830:	0901                	addi	s2,s2,0
 832:	0004                	0x4
 834:	0301                	addi	t1,t1,0
 836:	0901                	addi	s2,s2,0
 838:	0004                	0x4
 83a:	0301                	addi	t1,t1,0
 83c:	0901                	addi	s2,s2,0
 83e:	0008                	0x8
 840:	0301                	addi	t1,t1,0
 842:	0902                	c.slli64	s2
 844:	0004                	0x4
 846:	0301                	addi	t1,t1,0
 848:	0901                	addi	s2,s2,0
 84a:	0004                	0x4
 84c:	0301                	addi	t1,t1,0
 84e:	0901                	addi	s2,s2,0
 850:	0004                	0x4
 852:	0301                	addi	t1,t1,0
 854:	0901                	addi	s2,s2,0
 856:	0004                	0x4
 858:	0301                	addi	t1,t1,0
 85a:	0901                	addi	s2,s2,0
 85c:	0008                	0x8
 85e:	0301                	addi	t1,t1,0
 860:	0901                	addi	s2,s2,0
 862:	0004                	0x4
 864:	0301                	addi	t1,t1,0
 866:	0901                	addi	s2,s2,0
 868:	0004                	0x4
 86a:	0301                	addi	t1,t1,0
 86c:	0901                	addi	s2,s2,0
 86e:	0004                	0x4
 870:	0301                	addi	t1,t1,0
 872:	0901                	addi	s2,s2,0
 874:	0004                	0x4
 876:	0301                	addi	t1,t1,0
 878:	0901                	addi	s2,s2,0
 87a:	0004                	0x4
 87c:	0301                	addi	t1,t1,0
 87e:	0901                	addi	s2,s2,0
 880:	0008                	0x8
 882:	0301                	addi	t1,t1,0
 884:	0901                	addi	s2,s2,0
 886:	0004                	0x4
 888:	0301                	addi	t1,t1,0
 88a:	0901                	addi	s2,s2,0
 88c:	0004                	0x4
 88e:	0301                	addi	t1,t1,0
 890:	0901                	addi	s2,s2,0
 892:	0004                	0x4
 894:	0301                	addi	t1,t1,0
 896:	0901                	addi	s2,s2,0
 898:	0008                	0x8
 89a:	0301                	addi	t1,t1,0
 89c:	0901                	addi	s2,s2,0
 89e:	0004                	0x4
 8a0:	0301                	addi	t1,t1,0
 8a2:	0901                	addi	s2,s2,0
 8a4:	0004                	0x4
 8a6:	0301                	addi	t1,t1,0
 8a8:	0901                	addi	s2,s2,0
 8aa:	0008                	0x8
 8ac:	0301                	addi	t1,t1,0
 8ae:	0902                	c.slli64	s2
 8b0:	0004                	0x4
 8b2:	0301                	addi	t1,t1,0
 8b4:	0901                	addi	s2,s2,0
 8b6:	0004                	0x4
 8b8:	0301                	addi	t1,t1,0
 8ba:	0901                	addi	s2,s2,0
 8bc:	0004                	0x4
 8be:	0301                	addi	t1,t1,0
 8c0:	0901                	addi	s2,s2,0
 8c2:	0008                	0x8
 8c4:	0301                	addi	t1,t1,0
 8c6:	0901                	addi	s2,s2,0
 8c8:	0004                	0x4
 8ca:	0301                	addi	t1,t1,0
 8cc:	0901                	addi	s2,s2,0
 8ce:	0004                	0x4
 8d0:	0301                	addi	t1,t1,0
 8d2:	0901                	addi	s2,s2,0
 8d4:	0004                	0x4
 8d6:	0301                	addi	t1,t1,0
 8d8:	0901                	addi	s2,s2,0
 8da:	0008                	0x8
 8dc:	0301                	addi	t1,t1,0
 8de:	0901                	addi	s2,s2,0
 8e0:	0004                	0x4
 8e2:	0301                	addi	t1,t1,0
 8e4:	0901                	addi	s2,s2,0
 8e6:	0004                	0x4
 8e8:	0301                	addi	t1,t1,0
 8ea:	0901                	addi	s2,s2,0
 8ec:	0004                	0x4
 8ee:	0301                	addi	t1,t1,0
 8f0:	0901                	addi	s2,s2,0
 8f2:	0004                	0x4
 8f4:	0301                	addi	t1,t1,0
 8f6:	0902                	c.slli64	s2
 8f8:	0004                	0x4
 8fa:	0301                	addi	t1,t1,0
 8fc:	0901                	addi	s2,s2,0
 8fe:	0004                	0x4
 900:	0301                	addi	t1,t1,0
 902:	0901                	addi	s2,s2,0
 904:	0004                	0x4
 906:	0301                	addi	t1,t1,0
 908:	0901                	addi	s2,s2,0
 90a:	0004                	0x4
 90c:	0301                	addi	t1,t1,0
 90e:	0901                	addi	s2,s2,0
 910:	0004                	0x4
 912:	0301                	addi	t1,t1,0
 914:	0901                	addi	s2,s2,0
 916:	0008                	0x8
 918:	0301                	addi	t1,t1,0
 91a:	0901                	addi	s2,s2,0
 91c:	0004                	0x4
 91e:	0301                	addi	t1,t1,0
 920:	0901                	addi	s2,s2,0
 922:	0004                	0x4
 924:	0301                	addi	t1,t1,0
 926:	0901                	addi	s2,s2,0
 928:	0004                	0x4
 92a:	0301                	addi	t1,t1,0
 92c:	0901                	addi	s2,s2,0
 92e:	0008                	0x8
 930:	0301                	addi	t1,t1,0
 932:	0901                	addi	s2,s2,0
 934:	0004                	0x4
 936:	0301                	addi	t1,t1,0
 938:	0901                	addi	s2,s2,0
 93a:	0004                	0x4
 93c:	0301                	addi	t1,t1,0
 93e:	0901                	addi	s2,s2,0
 940:	0004                	0x4
 942:	0301                	addi	t1,t1,0
 944:	0901                	addi	s2,s2,0
 946:	0004                	0x4
 948:	0301                	addi	t1,t1,0
 94a:	0901                	addi	s2,s2,0
 94c:	0004                	0x4
 94e:	0301                	addi	t1,t1,0
 950:	0901                	addi	s2,s2,0
 952:	0008                	0x8
 954:	0301                	addi	t1,t1,0
 956:	0901                	addi	s2,s2,0
 958:	0004                	0x4
 95a:	0301                	addi	t1,t1,0
 95c:	0901                	addi	s2,s2,0
 95e:	0004                	0x4
 960:	0301                	addi	t1,t1,0
 962:	0901                	addi	s2,s2,0
 964:	0004                	0x4
 966:	0301                	addi	t1,t1,0
 968:	0901                	addi	s2,s2,0
 96a:	0008                	0x8
 96c:	0301                	addi	t1,t1,0
 96e:	0916                	slli	s2,s2,0x5
 970:	0004                	0x4
 972:	0301                	addi	t1,t1,0
 974:	090e                	slli	s2,s2,0x3
 976:	0e88                	addi	a0,sp,848
 978:	0301                	addi	t1,t1,0
 97a:	0901                	addi	s2,s2,0
 97c:	0004                	0x4
 97e:	0301                	addi	t1,t1,0
 980:	0901                	addi	s2,s2,0
 982:	0004                	0x4
 984:	0301                	addi	t1,t1,0
 986:	0901                	addi	s2,s2,0
 988:	0004                	0x4
 98a:	0301                	addi	t1,t1,0
 98c:	0901                	addi	s2,s2,0
 98e:	0004                	0x4
 990:	0301                	addi	t1,t1,0
 992:	0901                	addi	s2,s2,0
 994:	0004                	0x4
 996:	0301                	addi	t1,t1,0
 998:	0901                	addi	s2,s2,0
 99a:	0004                	0x4
 99c:	0301                	addi	t1,t1,0
 99e:	0901                	addi	s2,s2,0
 9a0:	0004                	0x4
 9a2:	0301                	addi	t1,t1,0
 9a4:	0901                	addi	s2,s2,0
 9a6:	0004                	0x4
 9a8:	0301                	addi	t1,t1,0
 9aa:	0901                	addi	s2,s2,0
 9ac:	0004                	0x4
 9ae:	0301                	addi	t1,t1,0
 9b0:	0905                	addi	s2,s2,1
 9b2:	00dc                	addi	a5,sp,68
 9b4:	0301                	addi	t1,t1,0
 9b6:	0901                	addi	s2,s2,0
 9b8:	0004                	0x4
 9ba:	0301                	addi	t1,t1,0
 9bc:	0901                	addi	s2,s2,0
 9be:	0004                	0x4
 9c0:	0301                	addi	t1,t1,0
 9c2:	0901                	addi	s2,s2,0
 9c4:	0004                	0x4
 9c6:	0301                	addi	t1,t1,0
 9c8:	0901                	addi	s2,s2,0
 9ca:	0004                	0x4
 9cc:	0301                	addi	t1,t1,0
 9ce:	0901                	addi	s2,s2,0
 9d0:	0004                	0x4
 9d2:	0301                	addi	t1,t1,0
 9d4:	0904                	addi	s1,sp,144
 9d6:	0004                	0x4
 9d8:	0301                	addi	t1,t1,0
 9da:	0901                	addi	s2,s2,0
 9dc:	0004                	0x4
 9de:	0301                	addi	t1,t1,0
 9e0:	0901                	addi	s2,s2,0
 9e2:	0004                	0x4
 9e4:	0301                	addi	t1,t1,0
 9e6:	0901                	addi	s2,s2,0
 9e8:	0004                	0x4
 9ea:	0301                	addi	t1,t1,0
 9ec:	0901                	addi	s2,s2,0
 9ee:	0004                	0x4
 9f0:	0301                	addi	t1,t1,0
 9f2:	0901                	addi	s2,s2,0
 9f4:	0004                	0x4
 9f6:	0301                	addi	t1,t1,0
 9f8:	0901                	addi	s2,s2,0
 9fa:	0004                	0x4
 9fc:	0301                	addi	t1,t1,0
 9fe:	0904                	addi	s1,sp,144
 a00:	0004                	0x4
 a02:	0301                	addi	t1,t1,0
 a04:	0901                	addi	s2,s2,0
 a06:	0004                	0x4
 a08:	0301                	addi	t1,t1,0
 a0a:	0901                	addi	s2,s2,0
 a0c:	0004                	0x4
 a0e:	0301                	addi	t1,t1,0
 a10:	0901                	addi	s2,s2,0
 a12:	0004                	0x4
 a14:	0301                	addi	t1,t1,0
 a16:	0901                	addi	s2,s2,0
 a18:	0004                	0x4
 a1a:	0301                	addi	t1,t1,0
 a1c:	0901                	addi	s2,s2,0
 a1e:	0004                	0x4
 a20:	0301                	addi	t1,t1,0
 a22:	0901                	addi	s2,s2,0
 a24:	0004                	0x4
 a26:	0301                	addi	t1,t1,0
 a28:	0901                	addi	s2,s2,0
 a2a:	0004                	0x4
 a2c:	0301                	addi	t1,t1,0
 a2e:	0904                	addi	s1,sp,144
 a30:	0004                	0x4
 a32:	0301                	addi	t1,t1,0
 a34:	0901                	addi	s2,s2,0
 a36:	0004                	0x4
 a38:	0301                	addi	t1,t1,0
 a3a:	0901                	addi	s2,s2,0
 a3c:	0004                	0x4
 a3e:	0301                	addi	t1,t1,0
 a40:	0901                	addi	s2,s2,0
 a42:	0004                	0x4
 a44:	0301                	addi	t1,t1,0
 a46:	0901                	addi	s2,s2,0
 a48:	0004                	0x4
 a4a:	0301                	addi	t1,t1,0
 a4c:	0901                	addi	s2,s2,0
 a4e:	0004                	0x4
 a50:	0901                	addi	s2,s2,0
 a52:	0004                	0x4
 a54:	0100                	addi	s0,sp,128
 a56:	0001                	nop
 a58:	0209                	addi	tp,tp,2
 a5a:	0000                	unimp
 a5c:	8080                	0x8080
 a5e:	0000                	unimp
 a60:	0000                	unimp
 a62:	0105af03          	lw	t5,16(a1) # ffffffffb5b65010 <secret+0xffffffff34f65010>
 a66:	0409                	addi	s0,s0,2
 a68:	0000                	unimp
 a6a:	0101                	addi	sp,sp,0
 a6c:	009f 0000 0003      	0x30000009f
 a72:	005f 0000 0101      	0x1010000005f
 a78:	000d0efb          	0xd0efb
 a7c:	0101                	addi	sp,sp,0
 a7e:	0101                	addi	sp,sp,0
 a80:	0000                	unimp
 a82:	0100                	addi	s0,sp,128
 a84:	0000                	unimp
 a86:	7301                	lui	t1,0xfffe0
 a88:	6372                	ld	t1,280(sp)
 a8a:	2f00                	fld	fs0,24(a4)
 a8c:	7375                	lui	t1,0xffffd
 a8e:	2f72                	fld	ft10,280(sp)
 a90:	696c                	ld	a1,208(a0)
 a92:	2f62                	fld	ft10,24(sp)
 a94:	2f636367          	0x2f636367
 a98:	6972                	ld	s2,280(sp)
 a9a:	36766373          	csrrsi	t1,0x367,12
 a9e:	2d34                	fld	fa3,88(a0)
 aa0:	6e75                	lui	t3,0x1d
 aa2:	776f6e6b          	0x776f6e6b
 aa6:	2d6e                	fld	fs10,216(sp)
 aa8:	6c65                	lui	s8,0x19
 aaa:	2f66                	fld	ft10,88(sp)
 aac:	2e39                	addiw	t3,t3,14
 aae:	2f302e33          	0x2f302e33
 ab2:	6e69                	lui	t3,0x1a
 ab4:	64756c63          	bltu	a0,t2,110c <_start-0x7fffeef4>
 ab8:	0065                	c.nop	25
 aba:	7000                	ld	s0,32(s0)
 abc:	706d                	c.lui	zero,0xffffb
 abe:	632e                	ld	t1,200(sp)
 ac0:	0100                	addi	s0,sp,128
 ac2:	0000                	unimp
 ac4:	69647473          	csrrci	s0,0x696,8
 ac8:	746e                	ld	s0,248(sp)
 aca:	672d                	lui	a4,0xb
 acc:	682e6363          	bltu	t3,sp,1152 <_start-0x7fffeeae>
 ad0:	0200                	addi	s0,sp,256
 ad2:	0000                	unimp
 ad4:	0500                	addi	s0,sp,640
 ad6:	0011                	c.nop	4
 ad8:	0209                	addi	tp,tp,2
 ada:	03b8                	addi	a4,sp,456
 adc:	8000                	0x8000
 ade:	0000                	unimp
 ae0:	0000                	unimp
 ae2:	05010903          	lb	s2,80(sp) # 5030050 <_start-0x7afcffb0>
 ae6:	0902030f          	0x902030f
 aea:	000c                	0xc
 aec:	0301                	addi	t1,t1,0
 aee:	0901                	addi	s2,s2,0
 af0:	0008                	0x8
 af2:	0501                	addi	a0,a0,0
 af4:	0305                	addi	t1,t1,1
 af6:	0901                	addi	s2,s2,0
 af8:	000c                	0xc
 afa:	0301                	addi	t1,t1,0
 afc:	00280913          	addi	s2,a6,2
 b00:	0501                	addi	a0,a0,0
 b02:	0301                	addi	t1,t1,0
 b04:	0901                	addi	s2,s2,0
 b06:	0004                	0x4
 b08:	0901                	addi	s2,s2,0
 b0a:	000c                	0xc
 b0c:	0100                	addi	s0,sp,128
 b0e:	0a01                	addi	s4,s4,0
 b10:	03000003          	lb	zero,48(zero) # 30 <_start-0x7fffffd0>
 b14:	6a00                	ld	s0,16(a2)
 b16:	0000                	unimp
 b18:	0100                	addi	s0,sp,128
 b1a:	fb01                	bnez	a4,a2a <_start-0x7ffff5d6>
 b1c:	0d0e                	slli	s10,s10,0x3
 b1e:	0100                	addi	s0,sp,128
 b20:	0101                	addi	sp,sp,0
 b22:	0001                	nop
 b24:	0000                	unimp
 b26:	0001                	nop
 b28:	0100                	addi	s0,sp,128
 b2a:	00637273          	csrrci	tp,0x6,6
 b2e:	7273752f          	0x7273752f
 b32:	62696c2f          	0x62696c2f
 b36:	6363672f          	0x6363672f
 b3a:	7369722f          	0x7369722f
 b3e:	34367663          	bgeu	a2,gp,e8a <_start-0x7ffff176>
 b42:	752d                	lui	a0,0xfffeb
 b44:	6b6e                	ld	s6,216(sp)
 b46:	6f6e                	ld	t5,216(sp)
 b48:	652d6e77          	0x652d6e77
 b4c:	666c                	ld	a1,200(a2)
 b4e:	332e392f          	0x332e392f
 b52:	302e                	fld	ft0,232(sp)
 b54:	636e692f          	0x636e692f
 b58:	756c                	ld	a1,232(a0)
 b5a:	6564                	ld	s1,200(a0)
 b5c:	6900                	ld	s0,16(a0)
 b5e:	636e                	ld	t1,216(sp)
 b60:	0000                	unimp
 b62:	6d76                	ld	s10,344(sp)
 b64:	632e                	ld	t1,200(sp)
 b66:	0100                	addi	s0,sp,128
 b68:	0000                	unimp
 b6a:	69647473          	csrrci	s0,0x696,8
 b6e:	746e                	ld	s0,248(sp)
 b70:	672d                	lui	a4,0xb
 b72:	682e6363          	bltu	t3,sp,11f8 <_start-0x7fffee08>
 b76:	0200                	addi	s0,sp,256
 b78:	0000                	unimp
 b7a:	6d76                	ld	s10,344(sp)
 b7c:	682e                	ld	a6,200(sp)
 b7e:	0300                	addi	s0,sp,384
 b80:	0000                	unimp
 b82:	0500                	addi	s0,sp,640
 b84:	0024                	addi	s1,sp,8
 b86:	0209                	addi	tp,tp,2
 b88:	0410                	addi	a2,sp,512
 b8a:	8000                	0x8000
 b8c:	0000                	unimp
 b8e:	0000                	unimp
 b90:	05013f03          	ld	t5,80(sp)
 b94:	031c                	addi	a5,sp,384
 b96:	0901                	addi	s2,s2,0
 b98:	0010                	0x10
 b9a:	0501                	addi	a0,a0,0
 b9c:	09000317          	auipc	t1,0x9000
 ba0:	0008                	0x8
 ba2:	0501                	addi	a0,a0,0
 ba4:	030e                	slli	t1,t1,0x3
 ba6:	0900                	addi	s0,sp,144
 ba8:	0008                	0x8
 baa:	0501                	addi	a0,a0,0
 bac:	0901030f          	0x901030f
 bb0:	0008                	0x8
 bb2:	0501                	addi	a0,a0,0
 bb4:	031c                	addi	a5,sp,384
 bb6:	0900                	addi	s0,sp,144
 bb8:	0008                	0x8
 bba:	0501                	addi	a0,a0,0
 bbc:	0315                	addi	t1,t1,5
 bbe:	0900                	addi	s0,sp,144
 bc0:	0008                	0x8
 bc2:	0501                	addi	a0,a0,0
 bc4:	0301                	addi	t1,t1,0
 bc6:	0901                	addi	s2,s2,0
 bc8:	0004                	0x4
 bca:	0301                	addi	t1,t1,0
 bcc:	00100903          	lb	s2,1(zero) # 1 <_start-0x7fffffff>
 bd0:	0501                	addi	a0,a0,0
 bd2:	0322                	slli	t1,t1,0x8
 bd4:	00100903          	lb	s2,1(zero) # 1 <_start-0x7fffffff>
 bd8:	0501                	addi	a0,a0,0
 bda:	032c                	addi	a1,sp,392
 bdc:	0900                	addi	s0,sp,144
 bde:	0010                	0x10
 be0:	0501                	addi	a0,a0,0
 be2:	0320                	addi	s0,sp,392
 be4:	0900                	addi	s0,sp,144
 be6:	0004                	0x4
 be8:	0301                	addi	t1,t1,0
 bea:	000c0903          	lb	s2,0(s8) # 19000 <_start-0x7ffe7000>
 bee:	0501                	addi	a0,a0,0
 bf0:	0324                	addi	s1,sp,392
 bf2:	001c0903          	lb	s2,1(s8)
 bf6:	0501                	addi	a0,a0,0
 bf8:	030a                	slli	t1,t1,0x2
 bfa:	0900                	addi	s0,sp,144
 bfc:	0010                	0x10
 bfe:	0501                	addi	a0,a0,0
 c00:	0341                	addi	t1,t1,16
 c02:	0900                	addi	s0,sp,144
 c04:	0010                	0x10
 c06:	0501                	addi	a0,a0,0
 c08:	0322                	slli	t1,t1,0x8
 c0a:	0900                	addi	s0,sp,144
 c0c:	0004                	0x4
 c0e:	0501                	addi	a0,a0,0
 c10:	0324                	addi	s1,sp,392
 c12:	0902                	c.slli64	s2
 c14:	0018                	0x18
 c16:	0501                	addi	a0,a0,0
 c18:	030a                	slli	t1,t1,0x2
 c1a:	0900                	addi	s0,sp,144
 c1c:	0010                	0x10
 c1e:	0501                	addi	a0,a0,0
 c20:	0341                	addi	t1,t1,16
 c22:	0900                	addi	s0,sp,144
 c24:	0010                	0x10
 c26:	0501                	addi	a0,a0,0
 c28:	0322                	slli	t1,t1,0x8
 c2a:	0900                	addi	s0,sp,144
 c2c:	0004                	0x4
 c2e:	0501                	addi	a0,a0,0
 c30:	031f 0903 0018      	0x180903031f
 c36:	0501                	addi	a0,a0,0
 c38:	030a                	slli	t1,t1,0x2
 c3a:	0900                	addi	s0,sp,144
 c3c:	0010                	0x10
 c3e:	0501                	addi	a0,a0,0
 c40:	0330                	addi	a2,sp,392
 c42:	0900                	addi	s0,sp,144
 c44:	0010                	0x10
 c46:	0501                	addi	a0,a0,0
 c48:	031d                	addi	t1,t1,7
 c4a:	0900                	addi	s0,sp,144
 c4c:	0004                	0x4
 c4e:	0501                	addi	a0,a0,0
 c50:	0320                	addi	s0,sp,392
 c52:	0902                	c.slli64	s2
 c54:	0018                	0x18
 c56:	0501                	addi	a0,a0,0
 c58:	030a                	slli	t1,t1,0x2
 c5a:	0900                	addi	s0,sp,144
 c5c:	0010                	0x10
 c5e:	0501                	addi	a0,a0,0
 c60:	0339                	addi	t1,t1,14
 c62:	0900                	addi	s0,sp,144
 c64:	0010                	0x10
 c66:	0501                	addi	a0,a0,0
 c68:	031e                	slli	t1,t1,0x7
 c6a:	0900                	addi	s0,sp,144
 c6c:	0004                	0x4
 c6e:	0501                	addi	a0,a0,0
 c70:	032c                	addi	a1,sp,392
 c72:	00180903          	lb	s2,1(a6)
 c76:	0501                	addi	a0,a0,0
 c78:	030a                	slli	t1,t1,0x2
 c7a:	0900                	addi	s0,sp,144
 c7c:	0010                	0x10
 c7e:	0501                	addi	a0,a0,0
 c80:	0900033b          	0x900033b
 c84:	0018                	0x18
 c86:	0501                	addi	a0,a0,0
 c88:	032a                	slli	t1,t1,0xa
 c8a:	0900                	addi	s0,sp,144
 c8c:	0004                	0x4
 c8e:	0501                	addi	a0,a0,0
 c90:	031f 0903 0018      	0x180903031f
 c96:	0501                	addi	a0,a0,0
 c98:	030a                	slli	t1,t1,0x2
 c9a:	0900                	addi	s0,sp,144
 c9c:	0010                	0x10
 c9e:	0501                	addi	a0,a0,0
 ca0:	09000337          	lui	t1,0x9000
 ca4:	0010                	0x10
 ca6:	0501                	addi	a0,a0,0
 ca8:	031d                	addi	t1,t1,7
 caa:	0900                	addi	s0,sp,144
 cac:	0004                	0x4
 cae:	0501                	addi	a0,a0,0
 cb0:	030e                	slli	t1,t1,0x3
 cb2:	00180903          	lb	s2,1(a6)
 cb6:	0501                	addi	a0,a0,0
 cb8:	0305                	addi	t1,t1,1
 cba:	0901                	addi	s2,s2,0
 cbc:	0010                	0x10
 cbe:	0501                	addi	a0,a0,0
 cc0:	0902030f          	0x902030f
 cc4:	0008                	0x8
 cc6:	0501                	addi	a0,a0,0
 cc8:	0328                	addi	a0,sp,392
 cca:	0902                	c.slli64	s2
 ccc:	0008                	0x8
 cce:	0501                	addi	a0,a0,0
 cd0:	031d                	addi	t1,t1,7
 cd2:	097f                	0x97f
 cd4:	0008                	0x8
 cd6:	0501                	addi	a0,a0,0
 cd8:	032d                	addi	t1,t1,11
 cda:	0900                	addi	s0,sp,144
 cdc:	0008                	0x8
 cde:	0501                	addi	a0,a0,0
 ce0:	0900030f          	0x900030f
 ce4:	0004                	0x4
 ce6:	0501                	addi	a0,a0,0
 ce8:	0305                	addi	t1,t1,1
 cea:	00080903          	lb	s2,0(a6)
 cee:	0301                	addi	t1,t1,0
 cf0:	0901                	addi	s2,s2,0
 cf2:	0008                	0x8
 cf4:	0301                	addi	t1,t1,0
 cf6:	000c090b          	0xc090b
 cfa:	0301                	addi	t1,t1,0
 cfc:	0902                	c.slli64	s2
 cfe:	0004                	0x4
 d00:	0501                	addi	a0,a0,0
 d02:	0301                	addi	t1,t1,0
 d04:	0901                	addi	s2,s2,0
 d06:	0004                	0x4
 d08:	0501                	addi	a0,a0,0
 d0a:	0334                	addi	a3,sp,392
 d0c:	0902                	c.slli64	s2
 d0e:	0010                	0x10
 d10:	0501                	addi	a0,a0,0
 d12:	0314                	addi	a3,sp,384
 d14:	0901                	addi	s2,s2,0
 d16:	0014                	0x14
 d18:	0501                	addi	a0,a0,0
 d1a:	030e                	slli	t1,t1,0x3
 d1c:	0900                	addi	s0,sp,144
 d1e:	0008                	0x8
 d20:	0501                	addi	a0,a0,0
 d22:	0318                	addi	a4,sp,384
 d24:	0901                	addi	s2,s2,0
 d26:	0008                	0x8
 d28:	0501                	addi	a0,a0,0
 d2a:	0322                	slli	t1,t1,0x8
 d2c:	0900                	addi	s0,sp,144
 d2e:	000c                	0xc
 d30:	0501                	addi	a0,a0,0
 d32:	0316                	slli	t1,t1,0x5
 d34:	0900                	addi	s0,sp,144
 d36:	0008                	0x8
 d38:	0501                	addi	a0,a0,0
 d3a:	0305                	addi	t1,t1,1
 d3c:	0902                	c.slli64	s2
 d3e:	001c                	0x1c
 d40:	0501                	addi	a0,a0,0
 d42:	0301                	addi	t1,t1,0
 d44:	0901                	addi	s2,s2,0
 d46:	0004                	0x4
 d48:	0501                	addi	a0,a0,0
 d4a:	0332                	slli	t1,t1,0xc
 d4c:	0902                	c.slli64	s2
 d4e:	000c                	0xc
 d50:	0501                	addi	a0,a0,0
 d52:	0314                	addi	a3,sp,384
 d54:	0901                	addi	s2,s2,0
 d56:	0014                	0x14
 d58:	0501                	addi	a0,a0,0
 d5a:	030e                	slli	t1,t1,0x3
 d5c:	0900                	addi	s0,sp,144
 d5e:	0010                	0x10
 d60:	0501                	addi	a0,a0,0
 d62:	0316                	slli	t1,t1,0x5
 d64:	0901                	addi	s2,s2,0
 d66:	0008                	0x8
 d68:	0501                	addi	a0,a0,0
 d6a:	0320                	addi	s0,sp,392
 d6c:	0900                	addi	s0,sp,144
 d6e:	000c                	0xc
 d70:	0501                	addi	a0,a0,0
 d72:	0314                	addi	a3,sp,384
 d74:	0900                	addi	s0,sp,144
 d76:	0008                	0x8
 d78:	0501                	addi	a0,a0,0
 d7a:	0305                	addi	t1,t1,1
 d7c:	0902                	c.slli64	s2
 d7e:	001c                	0x1c
 d80:	0501                	addi	a0,a0,0
 d82:	0301                	addi	t1,t1,0
 d84:	0901                	addi	s2,s2,0
 d86:	0004                	0x4
 d88:	0501                	addi	a0,a0,0
 d8a:	031e                	slli	t1,t1,0x7
 d8c:	000c0903          	lb	s2,0(s8)
 d90:	0501                	addi	a0,a0,0
 d92:	0305                	addi	t1,t1,1
 d94:	0901                	addi	s2,s2,0
 d96:	0014                	0x14
 d98:	0301                	addi	t1,t1,0
 d9a:	0901                	addi	s2,s2,0
 d9c:	0014                	0x14
 d9e:	0301                	addi	t1,t1,0
 da0:	0902                	c.slli64	s2
 da2:	0014                	0x14
 da4:	0301                	addi	t1,t1,0
 da6:	0901                	addi	s2,s2,0
 da8:	0014                	0x14
 daa:	0501                	addi	a0,a0,0
 dac:	030e                	slli	t1,t1,0x3
 dae:	00140903          	lb	s2,1(s0)
 db2:	0501                	addi	a0,a0,0
 db4:	0305                	addi	t1,t1,1
 db6:	0900                	addi	s0,sp,144
 db8:	0004                	0x4
 dba:	0501                	addi	a0,a0,0
 dbc:	000e                	c.slli	zero,0x3
 dbe:	0402                	c.slli64	s0
 dc0:	09050303          	lb	t1,144(a0) # fffffffffffeb090 <secret+0xffffffff7f3eb090>
 dc4:	0004                	0x4
 dc6:	0501                	addi	a0,a0,0
 dc8:	0024                	addi	s1,sp,8
 dca:	0402                	c.slli64	s0
 dcc:	09020303          	lb	t1,144(tp) # ffffffffffff9090 <secret+0xffffffff7f3f9090>
 dd0:	0008                	0x8
 dd2:	0501                	addi	a0,a0,0
 dd4:	0009                	c.nop	2
 dd6:	0402                	c.slli64	s0
 dd8:	09000303          	lb	t1,144(zero) # 90 <_start-0x7fffff70>
 ddc:	0014                	0x14
 dde:	0501                	addi	a0,a0,0
 de0:	0022                	c.slli	zero,0x8
 de2:	0402                	c.slli64	s0
 de4:	09010303          	lb	t1,144(sp)
 de8:	000c                	0xc
 dea:	0501                	addi	a0,a0,0
 dec:	0009                	c.nop	2
 dee:	0402                	c.slli64	s0
 df0:	09000303          	lb	t1,144(zero) # 90 <_start-0x7fffff70>
 df4:	0014                	0x14
 df6:	0501                	addi	a0,a0,0
 df8:	0021                	c.nop	8
 dfa:	0402                	c.slli64	s0
 dfc:	09780303          	lb	t1,151(a6)
 e00:	000c                	0xc
 e02:	0501                	addi	a0,a0,0
 e04:	0005                	c.nop	1
 e06:	0402                	c.slli64	s0
 e08:	0301                	addi	t1,t1,0
 e0a:	0900                	addi	s0,sp,144
 e0c:	000c                	0xc
 e0e:	0501                	addi	a0,a0,0
 e10:	0301                	addi	t1,t1,0
 e12:	0010090b          	0x10090b
 e16:	0901                	addi	s2,s2,0
 e18:	0018                	0x18
 e1a:	0100                	addi	s0,sp,128
 e1c:	01              	Address 0x0000000000000e1c is out of bounds.


Disassembly of section .debug_info:

0000000000000000 <.debug_info>:
   0:	001e                	c.slli	zero,0x7
   2:	0000                	unimp
   4:	0002                	c.slli64	zero
   6:	0000                	unimp
   8:	0000                	unimp
   a:	0108                	addi	a0,sp,128
	...
  18:	006c                	addi	a1,sp,12
  1a:	0000                	unimp
  1c:	0098                	addi	a4,sp,64
  1e:	0000                	unimp
  20:	8001                	c.srli64	s0
  22:	00d0                	addi	a2,sp,68
  24:	0000                	unimp
  26:	0004                	0x4
  28:	0012                	c.slli	zero,0x4
  2a:	0000                	unimp
  2c:	0108                	addi	a0,sp,128
  2e:	00ad                	addi	ra,ra,11
  30:	0000                	unimp
  32:	6c0c                	ld	a1,24(s0)
  34:	0001                	nop
  36:	6c00                	ld	s0,24(s0)
  38:	0000                	unimp
  3a:	b800                	fsd	fs0,48(s0)
  3c:	00800003          	lb	zero,8(zero) # 8 <_start-0x7ffffff8>
  40:	0000                	unimp
  42:	5800                	lw	s0,48(s0)
  44:	0000                	unimp
  46:	0000                	unimp
  48:	0000                	unimp
  4a:	6c00                	ld	s0,24(s0)
  4c:	000a                	c.slli	zero,0x2
  4e:	0200                	addi	s0,sp,256
  50:	0601                	addi	a2,a2,0
  52:	0160                	addi	s0,sp,140
  54:	0000                	unimp
  56:	0202                	c.slli64	tp
  58:	9705                	srai	a4,a4,0x21
  5a:	0001                	nop
  5c:	0300                	addi	s0,sp,384
  5e:	0504                	addi	s1,sp,640
  60:	6e69                	lui	t3,0x1a
  62:	0074                	addi	a3,sp,12
  64:	0802                	c.slli64	a6
  66:	7605                	lui	a2,0xfffe1
  68:	0001                	nop
  6a:	0400                	addi	s0,sp,512
  6c:	0156                	slli	sp,sp,0x15
  6e:	0000                	unimp
  70:	2e02                	fld	ft8,0(sp)
  72:	5518                	lw	a4,40(a0)
  74:	0000                	unimp
  76:	0200                	addi	s0,sp,256
  78:	0801                	addi	a6,a6,0
  7a:	015e                	slli	sp,sp,0x17
  7c:	0000                	unimp
  7e:	0202                	c.slli64	tp
  80:	00018407          	0x18407
  84:	0200                	addi	s0,sp,256
  86:	0704                	addi	s1,sp,896
  88:	0149                	addi	sp,sp,18
  8a:	0000                	unimp
  8c:	0802                	c.slli64	a6
  8e:	00014407          	flq	fs0,0(sp)
  92:	0400                	addi	s0,sp,512
  94:	013a                	slli	sp,sp,0xe
  96:	0000                	unimp
  98:	5602                	lw	a2,32(sp)
  9a:	6a1a                	ld	s4,384(sp)
  9c:	0000                	unimp
  9e:	0500                	addi	s0,sp,640
  a0:	0049                	c.nop	18
  a2:	0000                	unimp
  a4:	008e                	slli	ra,ra,0x3
  a6:	0000                	unimp
  a8:	6a06                	ld	s4,64(sp)
  aa:	0000                	unimp
  ac:	ff00                	sd	s0,56(a4)
  ae:	a107000f          	0xa107000f
  b2:	0001                	nop
  b4:	0100                	addi	s0,sp,128
  b6:	1008                	addi	a0,sp,32
  b8:	007d                	c.nop	31
  ba:	0000                	unimp
  bc:	a408                	fsd	fa0,8(s0)
  be:	0000                	unimp
  c0:	0100                	addi	s0,sp,128
  c2:	060a                	slli	a2,a2,0x2
  c4:	03b8                	addi	a4,sp,456
  c6:	8000                	0x8000
  c8:	0000                	unimp
  ca:	0000                	unimp
  cc:	0058                	addi	a4,sp,4
  ce:	0000                	unimp
  d0:	0000                	unimp
  d2:	0000                	unimp
  d4:	9c01                	subw	s0,s0,s0
  d6:	3509                	addiw	a0,a0,-30
  d8:	0001                	nop
  da:	0100                	addi	s0,sp,128
  dc:	0f0c                	addi	a1,sp,912
  de:	0071                	c.nop	28
  e0:	0000                	unimp
  e2:	9102                	jalr	sp
  e4:	0968                	addi	a0,sp,156
  e6:	017f                	0x17f
  e8:	0000                	unimp
  ea:	0d01                	addi	s10,s10,0
  ec:	0000710f          	0x710f
  f0:	0200                	addi	s0,sp,256
  f2:	6091                	lui	ra,0x4
  f4:	0000                	unimp
  f6:	0292                	slli	t0,t0,0x4
  f8:	0000                	unimp
  fa:	0004                	0x4
  fc:	0099                	addi	ra,ra,6
  fe:	0000                	unimp
 100:	0108                	addi	a0,sp,128
 102:	00ad                	addi	ra,ra,11
 104:	0000                	unimp
 106:	f10c                	sd	a1,32(a0)
 108:	0001                	nop
 10a:	6c00                	ld	s0,24(s0)
 10c:	0000                	unimp
 10e:	1000                	addi	s0,sp,32
 110:	0004                	0x4
 112:	0080                	addi	s0,sp,64
 114:	0000                	unimp
 116:	2800                	fld	fs0,16(s0)
 118:	0004                	0x4
 11a:	0000                	unimp
 11c:	0000                	unimp
 11e:	0f00                	addi	s0,sp,912
 120:	0200000b          	0x200000b
 124:	0601                	addi	a2,a2,0
 126:	0160                	addi	s0,sp,140
 128:	0000                	unimp
 12a:	0202                	c.slli64	tp
 12c:	9705                	srai	a4,a4,0x21
 12e:	0001                	nop
 130:	0300                	addi	s0,sp,384
 132:	0504                	addi	s1,sp,640
 134:	6e69                	lui	t3,0x1a
 136:	0074                	addi	a3,sp,12
 138:	0802                	c.slli64	a6
 13a:	7605                	lui	a2,0xfffe1
 13c:	0001                	nop
 13e:	0400                	addi	s0,sp,512
 140:	0156                	slli	sp,sp,0x15
 142:	0000                	unimp
 144:	2e02                	fld	ft8,0(sp)
 146:	5518                	lw	a4,40(a0)
 148:	0000                	unimp
 14a:	0200                	addi	s0,sp,256
 14c:	0801                	addi	a6,a6,0
 14e:	015e                	slli	sp,sp,0x17
 150:	0000                	unimp
 152:	0202                	c.slli64	tp
 154:	00018407          	0x18407
 158:	0200                	addi	s0,sp,256
 15a:	0704                	addi	s1,sp,896
 15c:	0149                	addi	sp,sp,18
 15e:	0000                	unimp
 160:	b004                	fsd	fs1,32(s0)
 162:	0001                	nop
 164:	0200                	addi	s0,sp,256
 166:	00761937          	lui	s2,0x761
 16a:	0000                	unimp
 16c:	0802                	c.slli64	a6
 16e:	00014407          	flq	fs0,0(sp)
 172:	0400                	addi	s0,sp,512
 174:	013a                	slli	sp,sp,0xe
 176:	0000                	unimp
 178:	5602                	lw	a2,32(sp)
 17a:	761a                	ld	a2,416(sp)
 17c:	0000                	unimp
 17e:	0400                	addi	s0,sp,512
 180:	020c                	addi	a1,sp,256
 182:	0000                	unimp
 184:	76171803          	lh	a6,1889(a4) # b761 <_start-0x7fff489f>
 188:	0000                	unimp
 18a:	0500                	addi	s0,sp,640
 18c:	0089                	addi	ra,ra,2
 18e:	0000                	unimp
 190:	00ac                	addi	a1,sp,72
 192:	0000                	unimp
 194:	7606                	ld	a2,96(sp)
 196:	0000                	unimp
 198:	0300                	addi	s0,sp,384
 19a:	00007607          	0x7607
 19e:	ff00                	sd	s0,56(a4)
 1a0:	0001                	nop
 1a2:	7008                	ld	a0,32(s0)
 1a4:	0074                	addi	a3,sp,12
 1a6:	1401                	addi	s0,s0,-32
 1a8:	00009507          	0x9507
 1ac:	0000                	unimp
 1ae:	0910                	addi	a2,sp,144
 1b0:	00100003          	lb	zero,1(zero) # 1 <_start-0x7fffffff>
 1b4:	0080                	addi	s0,sp,64
 1b6:	0000                	unimp
 1b8:	0500                	addi	s0,sp,640
 1ba:	0049                	c.nop	18
 1bc:	0000                	unimp
 1be:	00ce                	slli	ra,ra,0x13
 1c0:	0000                	unimp
 1c2:	0009                	c.nop	2
 1c4:	e40a                	sd	sp,8(sp)
 1c6:	0001                	nop
 1c8:	0100                	addi	s0,sp,128
 1ca:	1031                	c.nop	-20
 1cc:	000000c3          	fmadd.s	ft1,ft0,ft0,ft0,rne
 1d0:	4905                	li	s2,1
 1d2:	0000                	unimp
 1d4:	f100                	sd	s0,32(a0)
 1d6:	0000                	unimp
 1d8:	0600                	addi	s0,sp,768
 1da:	0076                	c.slli	zero,0x1d
 1dc:	0000                	unimp
 1de:	00760707          	0x760707
 1e2:	0000                	unimp
 1e4:	0fff                	0xfff
 1e6:	0a00                	addi	s0,sp,272
 1e8:	01d0                	addi	a2,sp,196
 1ea:	0000                	unimp
 1ec:	3301                	addiw	t1,t1,-32
 1ee:	da10                	sw	a2,48(a2)
 1f0:	0000                	unimp
 1f2:	0500                	addi	s0,sp,640
 1f4:	0049                	c.nop	18
 1f6:	0000                	unimp
 1f8:	010e                	slli	sp,sp,0x3
 1fa:	0000                	unimp
 1fc:	00007607          	0x7607
 200:	ff00                	sd	s0,56(a4)
 202:	a10a000f          	0xa10a000f
 206:	0001                	nop
 208:	0100                	addi	s0,sp,128
 20a:	1034                	addi	a3,sp,40
 20c:	00fd                	addi	ra,ra,31
 20e:	0000                	unimp
 210:	0001ea0b          	0x1ea0b
 214:	0100                	addi	s0,sp,128
 216:	0686                	slli	a3,a3,0x1
 218:	0750                	addi	a2,sp,900
 21a:	8000                	0x8000
 21c:	0000                	unimp
 21e:	0000                	unimp
 220:	00e8                	addi	a0,sp,76
 222:	0000                	unimp
 224:	0000                	unimp
 226:	0000                	unimp
 228:	9c01                	subw	s0,s0,s0
 22a:	0176                	slli	sp,sp,0x1d
 22c:	0000                	unimp
 22e:	b90c                	fsd	fa1,48(a0)
 230:	0001                	nop
 232:	0100                	addi	s0,sp,128
 234:	1686                	slli	a3,a3,0x21
 236:	006a                	c.slli	zero,0x1a
 238:	0000                	unimp
 23a:	9102                	jalr	sp
 23c:	0d58                	addi	a4,sp,660
 23e:	01fa                	slli	gp,gp,0x1e
 240:	0000                	unimp
 242:	8d01                	sub	a0,a0,s0
 244:	6a0e                	ld	s4,192(sp)
 246:	0000                	unimp
 248:	0200                	addi	s0,sp,256
 24a:	6091                	lui	ra,0x4
 24c:	b40e                	fsd	ft3,40(sp)
 24e:	00800007          	0x800007
 252:	0000                	unimp
 254:	6c00                	ld	s0,24(s0)
 256:	0000                	unimp
 258:	0000                	unimp
 25a:	0000                	unimp
 25c:	0f00                	addi	s0,sp,912
 25e:	0069                	c.nop	26
 260:	8e01                	sub	a2,a2,s0
 262:	3b0e                	fld	fs6,224(sp)
 264:	0000                	unimp
 266:	0200                	addi	s0,sp,256
 268:	6c91                	lui	s9,0x4
 26a:	0000                	unimp
 26c:	ff10                	sd	a2,56(a4)
 26e:	0001                	nop
 270:	0100                	addi	s0,sp,128
 272:	067e                	slli	a2,a2,0x1f
 274:	06e4                	addi	s1,sp,844
 276:	8000                	0x8000
 278:	0000                	unimp
 27a:	0000                	unimp
 27c:	006c                	addi	a1,sp,12
 27e:	0000                	unimp
 280:	0000                	unimp
 282:	0000                	unimp
 284:	9c01                	subw	s0,s0,s0
 286:	01c2                	slli	gp,gp,0x10
 288:	0000                	unimp
 28a:	c00c                	sw	a1,0(s0)
 28c:	0001                	nop
 28e:	0100                	addi	s0,sp,128
 290:	1d7e                	slli	s10,s10,0x3f
 292:	007d                	c.nop	31
 294:	0000                	unimp
 296:	9102                	jalr	sp
 298:	0c58                	addi	a4,sp,532
 29a:	01fa                	slli	gp,gp,0x1e
 29c:	0000                	unimp
 29e:	7e01                	lui	t3,0xfffe0
 2a0:	6a2c                	ld	a1,80(a2)
 2a2:	0000                	unimp
 2a4:	0200                	addi	s0,sp,256
 2a6:	5091                	li	ra,-28
 2a8:	7864690f          	0x7864690f
 2ac:	0100                	addi	s0,sp,128
 2ae:	0e7f                	0xe7f
 2b0:	006a                	c.slli	zero,0x1a
 2b2:	0000                	unimp
 2b4:	9102                	jalr	sp
 2b6:	0068                	addi	a0,sp,12
 2b8:	d510                	sw	a2,40(a0)
 2ba:	0001                	nop
 2bc:	0100                	addi	s0,sp,128
 2be:	06800677          	0x6800677
 2c2:	8000                	0x8000
 2c4:	0000                	unimp
 2c6:	0000                	unimp
 2c8:	0064                	addi	s1,sp,12
 2ca:	0000                	unimp
 2cc:	0000                	unimp
 2ce:	0000                	unimp
 2d0:	9c01                	subw	s0,s0,s0
 2d2:	020e                	slli	tp,tp,0x3
 2d4:	0000                	unimp
 2d6:	c00c                	sw	a1,0(s0)
 2d8:	0001                	nop
 2da:	0100                	addi	s0,sp,128
 2dc:	007d1f77          	0x7d1f77
 2e0:	0000                	unimp
 2e2:	9102                	jalr	sp
 2e4:	0c58                	addi	a4,sp,532
 2e6:	01fa                	slli	gp,gp,0x1e
 2e8:	0000                	unimp
 2ea:	7701                	lui	a4,0xfffe0
 2ec:	6a2e                	ld	s4,200(sp)
 2ee:	0000                	unimp
 2f0:	0200                	addi	s0,sp,256
 2f2:	5091                	li	ra,-28
 2f4:	7864690f          	0x7864690f
 2f8:	0100                	addi	s0,sp,128
 2fa:	0e78                	addi	a4,sp,796
 2fc:	006a                	c.slli	zero,0x1a
 2fe:	0000                	unimp
 300:	9102                	jalr	sp
 302:	0068                	addi	a0,sp,12
 304:	a811                	j	318 <_start-0x7ffffce8>
 306:	0001                	nop
 308:	0100                	addi	s0,sp,128
 30a:	0645                	addi	a2,a2,17
 30c:	045c                	addi	a5,sp,516
 30e:	8000                	0x8000
 310:	0000                	unimp
 312:	0000                	unimp
 314:	0224                	addi	s1,sp,264
 316:	0000                	unimp
 318:	0000                	unimp
 31a:	0000                	unimp
 31c:	9c01                	subw	s0,s0,s0
 31e:	025a                	slli	tp,tp,0x16
 320:	0000                	unimp
 322:	b90d                	j	ffffffffffffff54 <secret+0xffffffff7f3fff54>
 324:	0001                	nop
 326:	0100                	addi	s0,sp,128
 328:	0e5f 006a 0000      	0x6a0e5f
 32e:	9102                	jalr	sp
 330:	0d68                	addi	a0,sp,668
 332:	0219                	addi	tp,tp,6
 334:	0000                	unimp
 336:	6201                	0x6201
 338:	00007d0f          	0x7d0f
 33c:	0200                	addi	s0,sp,256
 33e:	6091                	lui	ra,0x4
 340:	c50d                	beqz	a0,36a <_start-0x7ffffc96>
 342:	0001                	nop
 344:	0100                	addi	s0,sp,128
 346:	007d0f63          	beq	s10,t2,364 <_start-0x7ffffc9c>
 34a:	0000                	unimp
 34c:	9102                	jalr	sp
 34e:	0058                	addi	a4,sp,4
 350:	1212                	slli	tp,tp,0x24
 352:	0002                	c.slli64	zero
 354:	0100                	addi	s0,sp,128
 356:	1140                	addi	s0,sp,164
 358:	006a                	c.slli	zero,0x1a
 35a:	0000                	unimp
 35c:	0410                	addi	a2,sp,512
 35e:	8000                	0x8000
 360:	0000                	unimp
 362:	0000                	unimp
 364:	004c                	addi	a1,sp,4
 366:	0000                	unimp
 368:	0000                	unimp
 36a:	0000                	unimp
 36c:	9c01                	subw	s0,s0,s0
 36e:	01007813          	andi	a6,zero,16
 372:	2140                	fld	fs0,128(a0)
 374:	006a                	c.slli	zero,0x1a
 376:	0000                	unimp
 378:	9102                	jalr	sp
 37a:	0f58                	addi	a4,sp,916
 37c:	6962                	ld	s2,24(sp)
 37e:	0074                	addi	a3,sp,12
 380:	4101                	li	sp,0
 382:	6a0e                	ld	s4,192(sp)
 384:	0000                	unimp
 386:	0200                	addi	s0,sp,256
 388:	6891                	lui	a7,0x4
	...

Disassembly of section .debug_abbrev:

0000000000000000 <.debug_abbrev>:
   0:	1101                	addi	sp,sp,-32
   2:	1000                	addi	s0,sp,32
   4:	5506                	lw	a0,96(sp)
   6:	0306                	slli	t1,t1,0x1
   8:	1b0e                	slli	s6,s6,0x23
   a:	250e                	fld	fa0,192(sp)
   c:	130e                	slli	t1,t1,0x23
   e:	0005                	c.nop	1
  10:	0000                	unimp
  12:	1101                	addi	sp,sp,-32
  14:	2501                	sext.w	a0,a0
  16:	130e                	slli	t1,t1,0x23
  18:	1b0e030b          	0x1b0e030b
  1c:	110e                	slli	sp,sp,0x23
  1e:	1201                	addi	tp,tp,-32
  20:	00171007          	0x171007
  24:	0200                	addi	s0,sp,256
  26:	0024                	addi	s1,sp,8
  28:	0b3e0b0b          	0xb3e0b0b
  2c:	00000e03          	lb	t3,0(zero) # 0 <_start-0x80000000>
  30:	0b002403          	lw	s0,176(zero) # b0 <_start-0x7fffff50>
  34:	030b3e0b          	0x30b3e0b
  38:	0008                	0x8
  3a:	0400                	addi	s0,sp,512
  3c:	0016                	c.slli	zero,0x5
  3e:	0b3a0e03          	lb	t3,179(s4) # e0b3 <_start-0x7fff1f4d>
  42:	0b390b3b          	0xb390b3b
  46:	1349                	addi	t1,t1,-14
  48:	0000                	unimp
  4a:	0105                	addi	sp,sp,1
  4c:	4901                	li	s2,0
  4e:	00130113          	addi	sp,t1,1 # 9000001 <_start-0x76ffffff>
  52:	0600                	addi	s0,sp,768
  54:	0021                	c.nop	8
  56:	1349                	addi	t1,t1,-14
  58:	0000052f          	0x52f
  5c:	03003407          	fld	fs0,48(zero) # 30 <_start-0x7fffffd0>
  60:	3a0e                	fld	fs4,224(sp)
  62:	390b3b0b          	0x390b3b0b
  66:	3f13490b          	0x3f13490b
  6a:	3c19                	addiw	s8,s8,-26
  6c:	0019                	c.nop	6
  6e:	0800                	addi	s0,sp,16
  70:	012e                	slli	sp,sp,0xb
  72:	0e03193f 0b3b0b3a 	0xb3b0b3a0e03193f
  7a:	0b39                	addi	s6,s6,14
  7c:	0111                	addi	sp,sp,4
  7e:	0712                	slli	a4,a4,0x4
  80:	1840                	addi	s0,sp,52
  82:	00194297          	auipc	t0,0x194
  86:	0900                	addi	s0,sp,144
  88:	0034                	addi	a3,sp,8
  8a:	0b3a0e03          	lb	t3,179(s4)
  8e:	0b390b3b          	0xb390b3b
  92:	1349                	addi	t1,t1,-14
  94:	1802                	slli	a6,a6,0x20
  96:	0000                	unimp
  98:	0100                	addi	s0,sp,128
  9a:	0111                	addi	sp,sp,4
  9c:	0e25                	addi	t3,t3,9
  9e:	0e030b13          	addi	s6,t1,224
  a2:	01110e1b          	addiw	t3,sp,17
  a6:	0712                	slli	a4,a4,0x4
  a8:	1710                	addi	a2,sp,928
  aa:	0000                	unimp
  ac:	2402                	fld	fs0,0(sp)
  ae:	0b00                	addi	s0,sp,400
  b0:	030b3e0b          	0x30b3e0b
  b4:	000e                	c.slli	zero,0x3
  b6:	0300                	addi	s0,sp,384
  b8:	0024                	addi	s1,sp,8
  ba:	0b3e0b0b          	0xb3e0b0b
  be:	00000803          	lb	a6,0(zero) # 0 <_start-0x80000000>
  c2:	1604                	addi	s1,sp,800
  c4:	0300                	addi	s0,sp,384
  c6:	3a0e                	fld	fs4,224(sp)
  c8:	390b3b0b          	0x390b3b0b
  cc:	0013490b          	0x13490b
  d0:	0500                	addi	s0,sp,640
  d2:	0101                	addi	sp,sp,0
  d4:	1349                	addi	t1,t1,-14
  d6:	1301                	addi	t1,t1,-32
  d8:	0000                	unimp
  da:	2106                	fld	ft2,64(sp)
  dc:	4900                	lw	s0,16(a0)
  de:	000b2f13          	slti	t5,s6,0
  e2:	0700                	addi	s0,sp,896
  e4:	0021                	c.nop	8
  e6:	1349                	addi	t1,t1,-14
  e8:	0000052f          	0x52f
  ec:	3408                	fld	fa0,40(s0)
  ee:	0300                	addi	s0,sp,384
  f0:	3a08                	fld	fa0,48(a2)
  f2:	390b3b0b          	0x390b3b0b
  f6:	3f13490b          	0x3f13490b
  fa:	8819                	andi	s0,s0,6
  fc:	0501                	addi	a0,a0,0
  fe:	1802                	slli	a6,a6,0x20
 100:	0000                	unimp
 102:	2109                	addiw	sp,sp,2
 104:	0000                	unimp
 106:	0a00                	addi	s0,sp,272
 108:	0034                	addi	a3,sp,8
 10a:	0b3a0e03          	lb	t3,179(s4)
 10e:	0b390b3b          	0xb390b3b
 112:	1349                	addi	t1,t1,-14
 114:	193c193f 2e0b0000 	0x2e0b0000193c193f
 11c:	3f01                	addiw	t5,t5,-32
 11e:	0319                	addi	t1,t1,6
 120:	3a0e                	fld	fs4,224(sp)
 122:	390b3b0b          	0x390b3b0b
 126:	1119270b          	0x1119270b
 12a:	1201                	addi	tp,tp,-32
 12c:	96184007          	flq	ft0,-1695(a6)
 130:	1942                	slli	s2,s2,0x30
 132:	1301                	addi	t1,t1,-32
 134:	0000                	unimp
 136:	050c                	addi	a1,sp,640
 138:	0300                	addi	s0,sp,384
 13a:	3a0e                	fld	fs4,224(sp)
 13c:	390b3b0b          	0x390b3b0b
 140:	0213490b          	0x213490b
 144:	0018                	0x18
 146:	0d00                	addi	s0,sp,656
 148:	0034                	addi	a3,sp,8
 14a:	0b3a0e03          	lb	t3,179(s4)
 14e:	0b390b3b          	0xb390b3b
 152:	1349                	addi	t1,t1,-14
 154:	1802                	slli	a6,a6,0x20
 156:	0000                	unimp
 158:	0b0e                	slli	s6,s6,0x3
 15a:	1101                	addi	sp,sp,-32
 15c:	1201                	addi	tp,tp,-32
 15e:	0f000007          	0xf000007
 162:	0034                	addi	a3,sp,8
 164:	0b3a0803          	lb	a6,179(s4)
 168:	0b390b3b          	0xb390b3b
 16c:	1349                	addi	t1,t1,-14
 16e:	1802                	slli	a6,a6,0x20
 170:	0000                	unimp
 172:	2e10                	fld	fa2,24(a2)
 174:	3f01                	addiw	t5,t5,-32
 176:	0319                	addi	t1,t1,6
 178:	3a0e                	fld	fs4,224(sp)
 17a:	390b3b0b          	0x390b3b0b
 17e:	1119270b          	0x1119270b
 182:	1201                	addi	tp,tp,-32
 184:	97184007          	flq	ft0,-1679(a6)
 188:	1942                	slli	s2,s2,0x30
 18a:	1301                	addi	t1,t1,-32
 18c:	0000                	unimp
 18e:	2e11                	addiw	t3,t3,4
 190:	3f01                	addiw	t5,t5,-32
 192:	0319                	addi	t1,t1,6
 194:	3a0e                	fld	fs4,224(sp)
 196:	390b3b0b          	0x390b3b0b
 19a:	1201110b          	0x1201110b
 19e:	96184007          	flq	ft0,-1695(a6)
 1a2:	1942                	slli	s2,s2,0x30
 1a4:	1301                	addi	t1,t1,-32
 1a6:	0000                	unimp
 1a8:	2e12                	fld	ft8,256(sp)
 1aa:	0301                	addi	t1,t1,0
 1ac:	3a0e                	fld	fs4,224(sp)
 1ae:	390b3b0b          	0x390b3b0b
 1b2:	4919270b          	0x4919270b
 1b6:	12011113          	0x12011113
 1ba:	97184007          	flq	ft0,-1679(a6)
 1be:	1942                	slli	s2,s2,0x30
 1c0:	0000                	unimp
 1c2:	03000513          	li	a0,48
 1c6:	3a08                	fld	fa0,48(a2)
 1c8:	390b3b0b          	0x390b3b0b
 1cc:	0213490b          	0x213490b
 1d0:	0018                	0x18
	...

Disassembly of section .debug_aranges:

0000000000000000 <.debug_aranges>:
   0:	006c                	addi	a1,sp,12
   2:	0000                	unimp
   4:	0002                	c.slli64	zero
   6:	0000                	unimp
   8:	0000                	unimp
   a:	0008                	0x8
   c:	0000                	unimp
   e:	0000                	unimp
  10:	0000                	unimp
  12:	8000                	0x8000
  14:	0000                	unimp
  16:	0000                	unimp
  18:	03b8                	addi	a4,sp,456
	...
  22:	8020                	0x8020
  24:	0000                	unimp
  26:	0000                	unimp
  28:	00e0                	addi	s0,sp,76
	...
  32:	8040                	0x8040
  34:	0000                	unimp
  36:	0000                	unimp
  38:	00f0                	addi	a2,sp,76
	...
  42:	8060                	0x8060
  44:	0000                	unimp
  46:	0000                	unimp
  48:	116c                	addi	a1,sp,172
	...
  52:	8080                	0x8080
  54:	0000                	unimp
  56:	0000                	unimp
  58:	0004                	0x4
	...
  6e:	0000                	unimp
  70:	002c                	addi	a1,sp,8
  72:	0000                	unimp
  74:	0002                	c.slli64	zero
  76:	0022                	c.slli	zero,0x8
  78:	0000                	unimp
  7a:	0008                	0x8
  7c:	0000                	unimp
  7e:	0000                	unimp
  80:	03b8                	addi	a4,sp,456
  82:	8000                	0x8000
  84:	0000                	unimp
  86:	0000                	unimp
  88:	0058                	addi	a4,sp,4
	...
  9e:	0000                	unimp
  a0:	002c                	addi	a1,sp,8
  a2:	0000                	unimp
  a4:	0002                	c.slli64	zero
  a6:	00f6                	slli	ra,ra,0x1d
  a8:	0000                	unimp
  aa:	0008                	0x8
  ac:	0000                	unimp
  ae:	0000                	unimp
  b0:	0410                	addi	a2,sp,512
  b2:	8000                	0x8000
  b4:	0000                	unimp
  b6:	0000                	unimp
  b8:	0428                	addi	a0,sp,520
	...

Disassembly of section .debug_str:

0000000000000000 <.debug_str>:
   0:	6f6f722f          	0x6f6f722f
   4:	2f74                	fld	fa3,216(a4)
   6:	63657073          	csrci	0x636,10
   a:	6f64                	ld	s1,216(a4)
   c:	726f7463          	bgeu	t5,t1,734 <_start-0x7ffff8cc>
  10:	7a75462f          	0x7a75462f
  14:	657a                	ld	a0,408(sp)
  16:	2f72                	fld	ft10,280(sp)
  18:	63657073          	csrci	0x636,10
  1c:	6f64                	ld	s1,216(a4)
  1e:	726f7463          	bgeu	t5,t1,746 <_start-0x7ffff8ba>
  22:	6972742f          	0x6972742f
  26:	72656767          	0x72656767
  2a:	34742f73          	csrrs	t5,0x347,s0
  2e:	555f 5332 415f      	0x415f5332555f
  34:	5454                	lw	a3,44(s0)
  36:	4341                	li	t1,16
  38:	5f52454b          	fnmsub.q	fa0,ft4,fs5,fa1,rmm
  3c:	32343733          	0x32343733
  40:	3138                	fld	fa4,96(a0)
  42:	34353633          	0x34353633
  46:	4d5f 4d45 425f      	0x425f4d454d5f
  4c:	5f52                	lw	t5,52(sp)
  4e:	7830                	ld	a2,112(s0)
  50:	3038                	fld	fa4,96(s0)
  52:	3036                	fld	ft0,360(sp)
  54:	3030                	fld	fa2,96(s0)
  56:	3834                	fld	fa3,112(s0)
  58:	305f 3878 3630      	0x36303878305f
  5e:	3030                	fld	fa2,96(s0)
  60:	3430                	fld	fa2,104(s0)
  62:	6c625f63          	bge	tp,t1,740 <_start-0x7ffff8c0>
  66:	5f74                	lw	a3,124(a4)
  68:	2e38                	fld	fa4,88(a2)
  6a:	722f0053          	0x722f0053
  6e:	2f746f6f          	jal	t5,46b64 <_start-0x7ffb949c>
  72:	63657073          	csrci	0x636,10
  76:	6f64                	ld	s1,216(a4)
  78:	726f7463          	bgeu	t5,t1,7a0 <_start-0x7ffff860>
  7c:	7a75462f          	0x7a75462f
  80:	657a                	ld	a0,408(sp)
  82:	2f72                	fld	ft10,280(sp)
  84:	63657073          	csrci	0x636,10
  88:	6f64                	ld	s1,216(a4)
  8a:	726f7463          	bgeu	t5,t1,7b2 <_start-0x7ffff84e>
  8e:	6d65542f          	0x6d65542f
  92:	6c70                	ld	a2,216(s0)
  94:	7461                	lui	s0,0xffff8
  96:	0065                	c.nop	25
  98:	20554e47          	fmsub.s	ft8,fa0,ft5,ft4,rmm
  9c:	5341                	li	t1,-16
  9e:	3220                	fld	fs0,96(a2)
  a0:	332e                	fld	ft6,232(sp)
  a2:	0034                	addi	a3,sp,8
  a4:	6d70                	ld	a2,216(a0)
  a6:	5f70                	lw	a2,124(a4)
  a8:	6f62                	ld	t5,24(sp)
  aa:	4700746f          	jal	s0,751a <_start-0x7fff8ae6>
  ae:	554e                	lw	a0,240(sp)
  b0:	4320                	lw	s0,64(a4)
  b2:	3939                	addiw	s2,s2,-18
  b4:	3920                	fld	fs0,112(a0)
  b6:	332e                	fld	ft6,232(sp)
  b8:	302e                	fld	ft0,232(sp)
  ba:	2d20                	fld	fs0,88(a0)
  bc:	636d                	lui	t1,0x1b
  be:	6f6d                	lui	t5,0x1b
  c0:	6564                	ld	s1,200(a0)
  c2:	3d6c                	fld	fa1,248(a0)
  c4:	656d                	lui	a0,0x1b
  c6:	6164                	ld	s1,192(a0)
  c8:	796e                	ld	s2,248(sp)
  ca:	2d20                	fld	fs0,88(a0)
  cc:	616d                	addi	sp,sp,240
  ce:	6372                	ld	t1,280(sp)
  d0:	3d68                	fld	fa0,248(a0)
  d2:	7672                	ld	a2,312(sp)
  d4:	3436                	fld	fs0,360(sp)
  d6:	6d2d2067          	0x6d2d2067
  da:	6261                	lui	tp,0x18
  dc:	3d69                	addiw	s10,s10,-6
  de:	706c                	ld	a1,224(s0)
  e0:	3436                	fld	fs0,360(sp)
  e2:	2d20                	fld	fs0,88(a0)
  e4:	4f2d2067          	0x4f2d2067
  e8:	2030                	fld	fa2,64(s0)
  ea:	732d                	lui	t1,0xfffeb
  ec:	6474                	ld	a3,200(s0)
  ee:	673d                	lui	a4,0xf
  f0:	756e                	ld	a0,248(sp)
  f2:	3939                	addiw	s2,s2,-18
  f4:	2d20                	fld	fs0,88(a0)
  f6:	6666                	ld	a2,88(sp)
  f8:	6572                	ld	a0,280(sp)
  fa:	7365                	lui	t1,0xffff9
  fc:	6174                	ld	a3,192(a0)
  fe:	646e                	ld	s0,216(sp)
 100:	6e69                	lui	t3,0x1a
 102:	662d2067          	0x662d2067
 106:	6976                	ld	s2,344(sp)
 108:	69626973          	csrrsi	s2,0x696,4
 10c:	696c                	ld	a1,208(a0)
 10e:	7974                	ld	a3,240(a0)
 110:	683d                	lui	a6,0xf
 112:	6469                	lui	s0,0x1a
 114:	6564                	ld	s1,200(a0)
 116:	206e                	fld	ft0,216(sp)
 118:	662d                	lui	a2,0xb
 11a:	6f6e                	ld	t5,216(sp)
 11c:	7a2d                	lui	s4,0xfffeb
 11e:	7265                	lui	tp,0xffff9
 120:	6e692d6f          	jal	s10,92806 <_start-0x7ff6d7fa>
 124:	7469                	lui	s0,0xffffa
 126:	6169                	addi	sp,sp,208
 128:	696c                	ld	a1,208(a0)
 12a:	657a                	ld	a0,408(sp)
 12c:	2d64                	fld	fs1,216(a0)
 12e:	6e69                	lui	t3,0x1a
 130:	622d                	lui	tp,0xb
 132:	70007373          	csrrci	t1,0x700,0
 136:	706d                	c.lui	zero,0xffffb
 138:	69750063          	beq	a0,s7,7b8 <_start-0x7ffff848>
 13c:	746e                	ld	s0,248(sp)
 13e:	7470                	ld	a2,232(s0)
 140:	5f72                	lw	t5,60(sp)
 142:	0074                	addi	a3,sp,12
 144:	6f6c                	ld	a1,216(a4)
 146:	676e                	ld	a4,216(sp)
 148:	7520                	ld	s0,104(a0)
 14a:	736e                	ld	t1,248(sp)
 14c:	6769                	lui	a4,0x1a
 14e:	656e                	ld	a0,216(sp)
 150:	2064                	fld	fs1,192(s0)
 152:	6e69                	lui	t3,0x1a
 154:	0074                	addi	a3,sp,12
 156:	6975                	lui	s2,0x1d
 158:	746e                	ld	s0,248(sp)
 15a:	5f38                	lw	a4,120(a4)
 15c:	0074                	addi	a3,sp,12
 15e:	6e75                	lui	t3,0x1d
 160:	6e676973          	csrrsi	s2,0x6e6,14
 164:	6465                	lui	s0,0x19
 166:	6320                	ld	s0,64(a4)
 168:	6168                	ld	a0,192(a0)
 16a:	0072                	c.slli	zero,0x1c
 16c:	2f637273          	csrrci	tp,0x2f6,6
 170:	6d70                	ld	a2,216(a0)
 172:	2e70                	fld	fa2,216(a2)
 174:	6f6c0063          	beq	s8,s6,854 <_start-0x7ffff7ac>
 178:	676e                	ld	a4,216(sp)
 17a:	6920                	ld	s0,80(a0)
 17c:	746e                	ld	s0,248(sp)
 17e:	7000                	ld	s0,32(s0)
 180:	706d                	c.lui	zero,0xffffb
 182:	0061                	c.nop	24
 184:	726f6873          	csrrsi	a6,0x726,30
 188:	2074                	fld	fa3,192(s0)
 18a:	6e75                	lui	t3,0x1d
 18c:	6e676973          	csrrsi	s2,0x6e6,14
 190:	6465                	lui	s0,0x19
 192:	6920                	ld	s0,80(a0)
 194:	746e                	ld	s0,248(sp)
 196:	7300                	ld	s0,32(a4)
 198:	6f68                	ld	a0,216(a4)
 19a:	7472                	ld	s0,312(sp)
 19c:	6920                	ld	s0,80(a0)
 19e:	746e                	ld	s0,248(sp)
 1a0:	7300                	ld	s0,32(a4)
 1a2:	6365                	lui	t1,0x19
 1a4:	6572                	ld	a0,280(sp)
 1a6:	0074                	addi	a3,sp,12
 1a8:	6d76                	ld	s10,344(sp)
 1aa:	625f 6f6f 0074      	0x746f6f625f
 1b0:	6975                	lui	s2,0x1d
 1b2:	746e                	ld	s0,248(sp)
 1b4:	3436                	fld	fs0,360(sp)
 1b6:	745f 7200 6e61      	0x6e617200745f
 1bc:	6f64                	ld	s1,216(a4)
 1be:	006d                	c.nop	27
 1c0:	6461                	lui	s0,0x18
 1c2:	7264                	ld	s1,224(a2)
 1c4:	7300                	ld	s0,32(a4)
 1c6:	7461                	lui	s0,0xffff8
 1c8:	5f70                	lw	a2,124(a4)
 1ca:	6176                	ld	sp,344(sp)
 1cc:	756c                	ld	a1,232(a0)
 1ce:	0065                	c.nop	25
 1d0:	6164                	ld	s1,192(a0)
 1d2:	6174                	ld	a3,192(a0)
 1d4:	7300                	ld	s0,32(a4)
 1d6:	7465                	lui	s0,0xffff9
 1d8:	705f 6574 615f      	0x615f6574705f
 1de:	7474                	ld	a3,232(s0)
 1e0:	6361                	lui	t1,0x18
 1e2:	7073006b          	0x7073006b
 1e6:	6f64                	ld	s1,216(a4)
 1e8:	6f630063          	beq	t1,s6,8c8 <_start-0x7ffff738>
 1ec:	666e                	ld	a2,216(sp)
 1ee:	6769                	lui	a4,0x1a
 1f0:	7300                	ld	s0,32(a4)
 1f2:	6372                	ld	t1,280(sp)
 1f4:	2e6d762f          	0x2e6d762f
 1f8:	6c660063          	beq	a2,t1,8b8 <_start-0x7ffff748>
 1fc:	6761                	lui	a4,0x18
 1fe:	7300                	ld	s0,32(a4)
 200:	7465                	lui	s0,0xffff9
 202:	705f 6574 755f      	0x755f6574705f
 208:	00726573          	csrrsi	a0,0x7,4
 20c:	7470                	ld	a2,232(s0)
 20e:	5f65                	li	t5,-7
 210:	0074                	addi	a3,sp,12
 212:	666c                	ld	a1,200(a2)
 214:	33367273          	csrrci	tp,mhpmevent19,12
 218:	7600                	ld	s0,40(a2)
 21a:	5f6d                	li	t5,-5
 21c:	696f6863          	bltu	t5,s6,8ac <_start-0x7ffff754>
 220:	          	bltu	zero,zero,22a <_start-0x7ffffdd6>

Disassembly of section .debug_ranges:

0000000000000000 <.debug_ranges>:
   0:	ffff                	0xffff
   2:	ffff                	0xffff
   4:	ffff                	0xffff
   6:	ffff                	0xffff
	...
  10:	0000                	unimp
  12:	8000                	0x8000
  14:	0000                	unimp
  16:	0000                	unimp
  18:	03b8                	addi	a4,sp,456
  1a:	8000                	0x8000
  1c:	0000                	unimp
  1e:	0000                	unimp
  20:	0000                	unimp
  22:	8020                	0x8020
  24:	0000                	unimp
  26:	0000                	unimp
  28:	00e0                	addi	s0,sp,76
  2a:	8020                	0x8020
  2c:	0000                	unimp
  2e:	0000                	unimp
  30:	0000                	unimp
  32:	8040                	0x8040
  34:	0000                	unimp
  36:	0000                	unimp
  38:	00f0                	addi	a2,sp,76
  3a:	8040                	0x8040
  3c:	0000                	unimp
  3e:	0000                	unimp
  40:	0000                	unimp
  42:	8060                	0x8060
  44:	0000                	unimp
  46:	0000                	unimp
  48:	116c                	addi	a1,sp,172
  4a:	8060                	0x8060
  4c:	0000                	unimp
  4e:	0000                	unimp
  50:	0000                	unimp
  52:	8080                	0x8080
  54:	0000                	unimp
  56:	0000                	unimp
  58:	0004                	0x4
  5a:	8080                	0x8080
	...

Disassembly of section .debug_frame:

0000000000000000 <.debug_frame>:
   0:	000c                	0xc
   2:	0000                	unimp
   4:	ffff                	0xffff
   6:	ffff                	0xffff
   8:	7c010003          	lb	zero,1984(sp)
   c:	0d01                	addi	s10,s10,0
   e:	0002                	c.slli64	zero
  10:	002c                	addi	a1,sp,8
  12:	0000                	unimp
  14:	0000                	unimp
  16:	0000                	unimp
  18:	03b8                	addi	a4,sp,456
  1a:	8000                	0x8000
  1c:	0000                	unimp
  1e:	0000                	unimp
  20:	0058                	addi	a4,sp,4
  22:	0000                	unimp
  24:	0000                	unimp
  26:	0000                	unimp
  28:	0e44                	addi	s1,sp,788
  2a:	4420                	lw	s0,72(s0)
  2c:	0288                	addi	a0,sp,320
  2e:	0c44                	addi	s1,sp,532
  30:	0008                	0x8
  32:	4402                	lw	s0,0(sp)
  34:	0cc8                	addi	a0,sp,596
  36:	2002                	fld	ft0,0(sp)
  38:	0e44                	addi	s1,sp,788
  3a:	0000                	unimp
  3c:	0000                	unimp
  3e:	0000                	unimp
  40:	000c                	0xc
  42:	0000                	unimp
  44:	ffff                	0xffff
  46:	ffff                	0xffff
  48:	7c010003          	lb	zero,1984(sp)
  4c:	0d01                	addi	s10,s10,0
  4e:	0002                	c.slli64	zero
  50:	002c                	addi	a1,sp,8
  52:	0000                	unimp
  54:	0040                	addi	s0,sp,4
  56:	0000                	unimp
  58:	0410                	addi	a2,sp,512
  5a:	8000                	0x8000
  5c:	0000                	unimp
  5e:	0000                	unimp
  60:	004c                	addi	a1,sp,4
  62:	0000                	unimp
  64:	0000                	unimp
  66:	0000                	unimp
  68:	0e44                	addi	s1,sp,788
  6a:	4430                	lw	a2,72(s0)
  6c:	0288                	addi	a0,sp,320
  6e:	0c44                	addi	s1,sp,532
  70:	0008                	0x8
  72:	c878                	sw	a4,84(s0)
  74:	020c                	addi	a1,sp,256
  76:	4430                	lw	a2,72(s0)
  78:	000e                	c.slli	zero,0x3
  7a:	0000                	unimp
  7c:	0000                	unimp
  7e:	0000                	unimp
  80:	002c                	addi	a1,sp,8
  82:	0000                	unimp
  84:	0040                	addi	s0,sp,4
  86:	0000                	unimp
  88:	045c                	addi	a5,sp,516
  8a:	8000                	0x8000
  8c:	0000                	unimp
  8e:	0000                	unimp
  90:	0224                	addi	s1,sp,264
  92:	0000                	unimp
  94:	0000                	unimp
  96:	0000                	unimp
  98:	0e44                	addi	s1,sp,788
  9a:	4830                	lw	a2,80(s0)
  9c:	0281                	addi	t0,t0,0
  9e:	0488                	addi	a0,sp,576
  a0:	0c44                	addi	s1,sp,532
  a2:	0008                	0x8
  a4:	c1020803          	lb	a6,-1008(tp) # ac10 <_start-0x7fff53f0>
  a8:	c844                	sw	s1,20(s0)
  aa:	020c                	addi	a1,sp,256
  ac:	4430                	lw	a2,72(s0)
  ae:	000e                	c.slli	zero,0x3
  b0:	002c                	addi	a1,sp,8
  b2:	0000                	unimp
  b4:	0040                	addi	s0,sp,4
  b6:	0000                	unimp
  b8:	0680                	addi	s0,sp,832
  ba:	8000                	0x8000
  bc:	0000                	unimp
  be:	0000                	unimp
  c0:	0064                	addi	s1,sp,12
  c2:	0000                	unimp
  c4:	0000                	unimp
  c6:	0000                	unimp
  c8:	0e44                	addi	s1,sp,788
  ca:	4430                	lw	a2,72(s0)
  cc:	0288                	addi	a0,sp,320
  ce:	0c44                	addi	s1,sp,532
  d0:	0008                	0x8
  d2:	5002                	0x5002
  d4:	0cc8                	addi	a0,sp,596
  d6:	3002                	fld	ft0,32(sp)
  d8:	0e44                	addi	s1,sp,788
  da:	0000                	unimp
  dc:	0000                	unimp
  de:	0000                	unimp
  e0:	002c                	addi	a1,sp,8
  e2:	0000                	unimp
  e4:	0040                	addi	s0,sp,4
  e6:	0000                	unimp
  e8:	06e4                	addi	s1,sp,844
  ea:	8000                	0x8000
  ec:	0000                	unimp
  ee:	0000                	unimp
  f0:	006c                	addi	a1,sp,12
  f2:	0000                	unimp
  f4:	0000                	unimp
  f6:	0000                	unimp
  f8:	0e44                	addi	s1,sp,788
  fa:	4430                	lw	a2,72(s0)
  fc:	0288                	addi	a0,sp,320
  fe:	0c44                	addi	s1,sp,532
 100:	0008                	0x8
 102:	5802                	lw	a6,32(sp)
 104:	0cc8                	addi	a0,sp,596
 106:	3002                	fld	ft0,32(sp)
 108:	0e44                	addi	s1,sp,788
 10a:	0000                	unimp
 10c:	0000                	unimp
 10e:	0000                	unimp
 110:	002c                	addi	a1,sp,8
 112:	0000                	unimp
 114:	0040                	addi	s0,sp,4
 116:	0000                	unimp
 118:	0750                	addi	a2,sp,900
 11a:	8000                	0x8000
 11c:	0000                	unimp
 11e:	0000                	unimp
 120:	00e8                	addi	a0,sp,76
 122:	0000                	unimp
 124:	0000                	unimp
 126:	0000                	unimp
 128:	0e44                	addi	s1,sp,788
 12a:	4830                	lw	a2,80(s0)
 12c:	0281                	addi	t0,t0,0
 12e:	0488                	addi	a0,sp,576
 130:	0c44                	addi	s1,sp,532
 132:	0008                	0x8
 134:	cc02                	sw	zero,24(sp)
 136:	44c1                	li	s1,16
 138:	0cc8                	addi	a0,sp,596
 13a:	3002                	fld	ft0,32(sp)
 13c:	0e44                	addi	s1,sp,788
	...
