
/root/specdoctor/Fuzzer/specdoctor/triggers/t4_U2S_ATTACKER_3742813654_MEM_BR_0x80600048_0x8060004c_blt_8.riscv:     file format elf64-littleriscv


Disassembly of section .text:

0000000080000000 <_start>:
    80000000:	0600006f          	j	80000060 <handle_reset>

0000000080000004 <nmi_vector>:
    80000004:	0000006f          	j	80000004 <nmi_vector>

0000000080000008 <mtvec_handler>:
    80000008:	00100513          	li	a0,1
    8000000c:	03f51513          	slli	a0,a0,0x3f
    80000010:	00b50513          	addi	a0,a0,11
    80000014:	342022f3          	csrr	t0,mcause
    80000018:	00551463          	bne	a0,t0,80000020 <mtvec_handler+0x18>
    8000001c:	3440006f          	j	80000360 <xcpt>
    80000020:	00300193          	li	gp,3
    80000024:	00005517          	auipc	a0,0x5
    80000028:	fdc50513          	addi	a0,a0,-36 # 80005000 <tohost>
    8000002c:	00000013          	nop
    80000030:	00353023          	sd	gp,0(a0)
    80000034:	ffdff06f          	j	80000030 <mtvec_handler+0x28>

0000000080000038 <stvec_handler>:
    80000038:	00800513          	li	a0,8
    8000003c:	142022f3          	csrr	t0,scause
    80000040:	00100193          	li	gp,1
    80000044:	00550463          	beq	a0,t0,8000004c <stvec_handler+0x14>
    80000048:	00300193          	li	gp,3
    8000004c:	00005517          	auipc	a0,0x5
    80000050:	fb450513          	addi	a0,a0,-76 # 80005000 <tohost>
    80000054:	00000013          	nop
    80000058:	00353023          	sd	gp,0(a0)
    8000005c:	ffdff06f          	j	80000058 <stvec_handler+0x20>

0000000080000060 <handle_reset>:
    80000060:	3a005073          	csrwi	pmpcfg0,0
    80000064:	30005073          	csrwi	mstatus,0
    80000068:	00000093          	li	ra,0
    8000006c:	00000113          	li	sp,0
    80000070:	00000193          	li	gp,0
    80000074:	00000213          	li	tp,0
    80000078:	00000293          	li	t0,0
    8000007c:	00000313          	li	t1,0
    80000080:	00000393          	li	t2,0
    80000084:	00000413          	li	s0,0
    80000088:	00000493          	li	s1,0
    8000008c:	00000513          	li	a0,0
    80000090:	00000593          	li	a1,0
    80000094:	00000613          	li	a2,0
    80000098:	00000693          	li	a3,0
    8000009c:	00000713          	li	a4,0
    800000a0:	00000793          	li	a5,0
    800000a4:	00000813          	li	a6,0
    800000a8:	00000893          	li	a7,0
    800000ac:	00000913          	li	s2,0
    800000b0:	00000993          	li	s3,0
    800000b4:	00000a13          	li	s4,0
    800000b8:	00000a93          	li	s5,0
    800000bc:	00000b13          	li	s6,0
    800000c0:	00000b93          	li	s7,0
    800000c4:	00000c13          	li	s8,0
    800000c8:	00000c93          	li	s9,0
    800000cc:	00000d13          	li	s10,0
    800000d0:	00000d93          	li	s11,0
    800000d4:	00000e13          	li	t3,0
    800000d8:	00000e93          	li	t4,0
    800000dc:	00000f13          	li	t5,0
    800000e0:	00000f93          	li	t6,0
    800000e4:	00006537          	lui	a0,0x6
    800000e8:	30052073          	csrs	mstatus,a0
    800000ec:	00305073          	csrwi	fcsr,0
    800000f0:	d2207053          	fcvt.d.l	ft0,zero
    800000f4:	d22070d3          	fcvt.d.l	ft1,zero
    800000f8:	d2207153          	fcvt.d.l	ft2,zero
    800000fc:	d22071d3          	fcvt.d.l	ft3,zero
    80000100:	d2207253          	fcvt.d.l	ft4,zero
    80000104:	d22072d3          	fcvt.d.l	ft5,zero
    80000108:	d2207353          	fcvt.d.l	ft6,zero
    8000010c:	d22073d3          	fcvt.d.l	ft7,zero
    80000110:	d2207453          	fcvt.d.l	fs0,zero
    80000114:	d22074d3          	fcvt.d.l	fs1,zero
    80000118:	d2207553          	fcvt.d.l	fa0,zero
    8000011c:	d22075d3          	fcvt.d.l	fa1,zero
    80000120:	d2207653          	fcvt.d.l	fa2,zero
    80000124:	d22076d3          	fcvt.d.l	fa3,zero
    80000128:	d2207753          	fcvt.d.l	fa4,zero
    8000012c:	d22077d3          	fcvt.d.l	fa5,zero
    80000130:	d2207853          	fcvt.d.l	fa6,zero
    80000134:	d22078d3          	fcvt.d.l	fa7,zero
    80000138:	d2207953          	fcvt.d.l	fs2,zero
    8000013c:	d22079d3          	fcvt.d.l	fs3,zero
    80000140:	d2207a53          	fcvt.d.l	fs4,zero
    80000144:	d2207ad3          	fcvt.d.l	fs5,zero
    80000148:	d2207b53          	fcvt.d.l	fs6,zero
    8000014c:	d2207bd3          	fcvt.d.l	fs7,zero
    80000150:	d2207c53          	fcvt.d.l	fs8,zero
    80000154:	d2207cd3          	fcvt.d.l	fs9,zero
    80000158:	d2207d53          	fcvt.d.l	fs10,zero
    8000015c:	d2207dd3          	fcvt.d.l	fs11,zero
    80000160:	d2207e53          	fcvt.d.l	ft8,zero
    80000164:	d2207ed3          	fcvt.d.l	ft9,zero
    80000168:	d2207f53          	fcvt.d.l	ft10,zero
    8000016c:	d2207fd3          	fcvt.d.l	ft11,zero
    80000170:	00000297          	auipc	t0,0x0
    80000174:	e9828293          	addi	t0,t0,-360 # 80000008 <mtvec_handler>
    80000178:	30529073          	csrw	mtvec,t0
    8000017c:	00000297          	auipc	t0,0x0
    80000180:	ebc28293          	addi	t0,t0,-324 # 80000038 <stvec_handler>
    80000184:	10529073          	csrw	stvec,t0
    80000188:	00006117          	auipc	sp,0x6
    8000018c:	f0010113          	addi	sp,sp,-256 # 80006088 <_end+0x1000>
    80000190:	228000ef          	jal	ra,800003b8 <pmp_boot>
    80000194:	2c8000ef          	jal	ra,8000045c <vm_boot>
    80000198:	00100513          	li	a0,1
    8000019c:	30652073          	csrs	mcounteren,a0
    800001a0:	08000513          	li	a0,128
    800001a4:	30052073          	csrs	mstatus,a0
    800001a8:	00001537          	lui	a0,0x1
    800001ac:	8005051b          	addiw	a0,a0,-2048
    800001b0:	30452073          	csrs	mie,a0
    800001b4:	00000013          	nop
    800001b8:	00000013          	nop
    800001bc:	00000013          	nop
    800001c0:	00000013          	nop
    800001c4:	00000013          	nop
    800001c8:	00000013          	nop
    800001cc:	00000013          	nop
    800001d0:	00000013          	nop
    800001d4:	00000013          	nop

00000000800001d8 <pfx>:
    800001d8:	3f89f993          	andi	s3,s3,1016
    800001dc:	00605a97          	auipc	s5,0x605
    800001e0:	e24a8a93          	addi	s5,s5,-476 # 80605000 <data3>
    800001e4:	015989b3          	add	s3,s3,s5
    800001e8:	0009b007          	fld	ft0,0(s3)

00000000800001ec <pfx.bb0.l1>:
    800001ec:	3f8b7b13          	andi	s6,s6,1016
    800001f0:	00605a97          	auipc	s5,0x605
    800001f4:	e10a8a93          	addi	s5,s5,-496 # 80605000 <data3>
    800001f8:	015b0b33          	add	s6,s6,s5
    800001fc:	010b3087          	fld	ft1,16(s6)

0000000080000200 <pfx.bb0.l2>:
    80000200:	3f89f993          	andi	s3,s3,1016
    80000204:	00605a97          	auipc	s5,0x605
    80000208:	dfca8a93          	addi	s5,s5,-516 # 80605000 <data3>
    8000020c:	015989b3          	add	s3,s3,s5
    80000210:	0189b107          	fld	ft2,24(s3)

0000000080000214 <pfx.bb0.l3>:
    80000214:	3f8b7b13          	andi	s6,s6,1016
    80000218:	00608917          	auipc	s2,0x608
    8000021c:	de890913          	addi	s2,s2,-536 # 80608000 <data6>
    80000220:	012b0b33          	add	s6,s6,s2
    80000224:	010b3187          	fld	ft3,16(s6)

0000000080000228 <pfx.bb0.l4>:
    80000228:	3f8b7b13          	andi	s6,s6,1016
    8000022c:	00604a97          	auipc	s5,0x604
    80000230:	dd4a8a93          	addi	s5,s5,-556 # 80604000 <data2>
    80000234:	015b0b33          	add	s6,s6,s5
    80000238:	000b3207          	fld	ft4,0(s6)

000000008000023c <pfx.bb0.l5>:
    8000023c:	3f89f993          	andi	s3,s3,1016
    80000240:	00603b17          	auipc	s6,0x603
    80000244:	dc0b0b13          	addi	s6,s6,-576 # 80603000 <data1>
    80000248:	016989b3          	add	s3,s3,s6
    8000024c:	0089b287          	fld	ft5,8(s3)

0000000080000250 <pfx.bb0.l6>:
    80000250:	3f8a7a13          	andi	s4,s4,1016
    80000254:	00607917          	auipc	s2,0x607
    80000258:	dac90913          	addi	s2,s2,-596 # 80607000 <data5>
    8000025c:	012a0a33          	add	s4,s4,s2
    80000260:	008a3307          	fld	ft6,8(s4)

0000000080000264 <pfx.bb0.l7>:
    80000264:	3f8a7a13          	andi	s4,s4,1016
    80000268:	00604b17          	auipc	s6,0x604
    8000026c:	d98b0b13          	addi	s6,s6,-616 # 80604000 <data2>
    80000270:	016a0a33          	add	s4,s4,s6
    80000274:	000a3387          	fld	ft7,0(s4)

0000000080000278 <pfx.bb0.l8>:
    80000278:	3f8afa93          	andi	s5,s5,1016
    8000027c:	00607a17          	auipc	s4,0x607
    80000280:	d84a0a13          	addi	s4,s4,-636 # 80607000 <data5>
    80000284:	014a8ab3          	add	s5,s5,s4
    80000288:	000ab407          	fld	fs0,0(s5)

000000008000028c <pfx.bb0.l9>:
    8000028c:	3f8a7a13          	andi	s4,s4,1016
    80000290:	00602997          	auipc	s3,0x602
    80000294:	d7098993          	addi	s3,s3,-656 # 80602000 <data>
    80000298:	013a0a33          	add	s4,s4,s3
    8000029c:	000a3487          	fld	fs1,0(s4)

00000000800002a0 <pfx.bb0.l10>:
    800002a0:	50f00913          	li	s2,1295

00000000800002a4 <pfx.bb0.l11>:
    800002a4:	74b00993          	li	s3,1867

00000000800002a8 <pfx.bb0.l12>:
    800002a8:	0fa00a13          	li	s4,250

00000000800002ac <pfx.bb0.l13>:
    800002ac:	32400a93          	li	s5,804

00000000800002b0 <pfx.bb0.l14>:
    800002b0:	1e200b13          	li	s6,482

00000000800002b4 <pfx.bb0.l15>:
    800002b4:	4a200b93          	li	s7,1186

00000000800002b8 <pfx.bb0.l16>:
    800002b8:	3e800c13          	li	s8,1000

00000000800002bc <pfx.bb0.l17>:
    800002bc:	55d00c93          	li	s9,1373

00000000800002c0 <pfx.bb0.l18>:
    800002c0:	2f300d13          	li	s10,755

00000000800002c4 <pfx.bb0.l19>:
    800002c4:	04700d93          	li	s11,71

00000000800002c8 <pfx.exit>:
    800002c8:	00100f13          	li	t5,1
    800002cc:	00002537          	lui	a0,0x2
    800002d0:	8005051b          	addiw	a0,a0,-2048
    800002d4:	30053073          	csrc	mstatus,a0
    800002d8:	00200297          	auipc	t0,0x200
    800002dc:	d2828293          	addi	t0,t0,-728 # 80200000 <pre_attack0>
    800002e0:	34129073          	csrw	mepc,t0
    800002e4:	30200073          	mret

00000000800002e8 <recv_end_m>:
    800002e8:	c0002ef3          	rdcycle	t4
    800002ec:	41ce8e33          	sub	t3,t4,t3
    800002f0:	00005597          	auipc	a1,0x5
    800002f4:	d9058593          	addi	a1,a1,-624 # 80005080 <timing>
    800002f8:	01c5b023          	sd	t3,0(a1)
    800002fc:	00100193          	li	gp,1
    80000300:	00900593          	li	a1,9
    80000304:	342022f3          	csrr	t0,mcause
    80000308:	00558463          	beq	a1,t0,80000310 <recv_end_m+0x28>
    8000030c:	00300193          	li	gp,3
    80000310:	00005517          	auipc	a0,0x5
    80000314:	cf050513          	addi	a0,a0,-784 # 80005000 <tohost>
    80000318:	00000013          	nop
    8000031c:	00353023          	sd	gp,0(a0)
    80000320:	ffdff06f          	j	8000031c <recv_end_m+0x34>

0000000080000324 <recv_end_s>:
    80000324:	c0002ef3          	rdcycle	t4
    80000328:	41ce8e33          	sub	t3,t4,t3
    8000032c:	00005597          	auipc	a1,0x5
    80000330:	d5458593          	addi	a1,a1,-684 # 80005080 <timing>
    80000334:	01c5b023          	sd	t3,0(a1)
    80000338:	00100193          	li	gp,1
    8000033c:	00800593          	li	a1,8
    80000340:	142022f3          	csrr	t0,scause
    80000344:	00558463          	beq	a1,t0,8000034c <recv_end_s+0x28>
    80000348:	00300193          	li	gp,3
    8000034c:	00005517          	auipc	a0,0x5
    80000350:	cb450513          	addi	a0,a0,-844 # 80005000 <tohost>
    80000354:	00000013          	nop
    80000358:	00353023          	sd	gp,0(a0)
    8000035c:	ffdff06f          	j	80000358 <recv_end_s+0x34>

0000000080000360 <xcpt>:
    80000360:	08000513          	li	a0,128
    80000364:	30053073          	csrc	mstatus,a0
    80000368:	00001537          	lui	a0,0x1
    8000036c:	8005051b          	addiw	a0,a0,-2048
    80000370:	30453073          	csrc	mie,a0
    80000374:	00000517          	auipc	a0,0x0
    80000378:	f7450513          	addi	a0,a0,-140 # 800002e8 <recv_end_m>
    8000037c:	30551073          	csrw	mtvec,a0
    80000380:	00000517          	auipc	a0,0x0
    80000384:	fa450513          	addi	a0,a0,-92 # 80000324 <recv_end_s>
    80000388:	10551073          	csrw	stvec,a0
    8000038c:	00000013          	nop
    80000390:	00000013          	nop
    80000394:	00000013          	nop
    80000398:	c0002e73          	rdcycle	t3
    8000039c:	00002537          	lui	a0,0x2
    800003a0:	8005051b          	addiw	a0,a0,-2048
    800003a4:	30053073          	csrc	mstatus,a0
    800003a8:	00800297          	auipc	t0,0x800
    800003ac:	c5828293          	addi	t0,t0,-936 # 80800000 <receive>
    800003b0:	34129073          	csrw	mepc,t0
    800003b4:	30200073          	mret

00000000800003b8 <pmp_boot>:
    800003b8:	fe010113          	addi	sp,sp,-32
    800003bc:	00813c23          	sd	s0,24(sp)
    800003c0:	02010413          	addi	s0,sp,32
    800003c4:	01f00793          	li	a5,31
    800003c8:	fef43423          	sd	a5,-24(s0)
    800003cc:	fff00793          	li	a5,-1
    800003d0:	00b7d793          	srli	a5,a5,0xb
    800003d4:	fef43023          	sd	a5,-32(s0)
    800003d8:	fe843783          	ld	a5,-24(s0)
    800003dc:	fe043703          	ld	a4,-32(s0)
    800003e0:	00000297          	auipc	t0,0x0
    800003e4:	01c28293          	addi	t0,t0,28 # 800003fc <pmp_boot+0x44>
    800003e8:	305292f3          	csrrw	t0,mtvec,t0
    800003ec:	3b771073          	csrw	pmpaddr7,a4
    800003f0:	00078513          	mv	a0,a5
    800003f4:	03851513          	slli	a0,a0,0x38
    800003f8:	3a051073          	csrw	pmpcfg0,a0
    800003fc:	30529073          	csrw	mtvec,t0
    80000400:	00000013          	nop
    80000404:	01813403          	ld	s0,24(sp)
    80000408:	02010113          	addi	sp,sp,32
    8000040c:	00008067          	ret

0000000080000410 <lfsr63>:
    80000410:	fd010113          	addi	sp,sp,-48
    80000414:	02813423          	sd	s0,40(sp)
    80000418:	03010413          	addi	s0,sp,48
    8000041c:	fca43c23          	sd	a0,-40(s0)
    80000420:	fd843783          	ld	a5,-40(s0)
    80000424:	0017d713          	srli	a4,a5,0x1
    80000428:	fd843783          	ld	a5,-40(s0)
    8000042c:	00f747b3          	xor	a5,a4,a5
    80000430:	0017f793          	andi	a5,a5,1
    80000434:	fef43423          	sd	a5,-24(s0)
    80000438:	fd843783          	ld	a5,-40(s0)
    8000043c:	0017d713          	srli	a4,a5,0x1
    80000440:	fe843783          	ld	a5,-24(s0)
    80000444:	03e79793          	slli	a5,a5,0x3e
    80000448:	00f767b3          	or	a5,a4,a5
    8000044c:	00078513          	mv	a0,a5
    80000450:	02813403          	ld	s0,40(sp)
    80000454:	03010113          	addi	sp,sp,48
    80000458:	00008067          	ret

000000008000045c <vm_boot>:
    8000045c:	fd010113          	addi	sp,sp,-48
    80000460:	02113423          	sd	ra,40(sp)
    80000464:	02813023          	sd	s0,32(sp)
    80000468:	03010413          	addi	s0,sp,48
    8000046c:	00002797          	auipc	a5,0x2
    80000470:	b9478793          	addi	a5,a5,-1132 # 80002000 <pt+0x1000>
    80000474:	00c7d793          	srli	a5,a5,0xc
    80000478:	00a79793          	slli	a5,a5,0xa
    8000047c:	0017e713          	ori	a4,a5,1
    80000480:	00001797          	auipc	a5,0x1
    80000484:	b8078793          	addi	a5,a5,-1152 # 80001000 <pt>
    80000488:	00e7b823          	sd	a4,16(a5)
    8000048c:	00001717          	auipc	a4,0x1
    80000490:	b7470713          	addi	a4,a4,-1164 # 80001000 <pt>
    80000494:	000017b7          	lui	a5,0x1
    80000498:	00f707b3          	add	a5,a4,a5
    8000049c:	20000737          	lui	a4,0x20000
    800004a0:	0cf70713          	addi	a4,a4,207 # 200000cf <_start-0x5fffff31>
    800004a4:	00e7b023          	sd	a4,0(a5) # 1000 <_start-0x7ffff000>
    800004a8:	00200797          	auipc	a5,0x200
    800004ac:	b5878793          	addi	a5,a5,-1192 # 80200000 <pre_attack0>
    800004b0:	00c7d793          	srli	a5,a5,0xc
    800004b4:	00a79713          	slli	a4,a5,0xa
    800004b8:	00200797          	auipc	a5,0x200
    800004bc:	b4878793          	addi	a5,a5,-1208 # 80200000 <pre_attack0>
    800004c0:	0157d793          	srli	a5,a5,0x15
    800004c4:	1ff7f793          	andi	a5,a5,511
    800004c8:	0db76713          	ori	a4,a4,219
    800004cc:	00001697          	auipc	a3,0x1
    800004d0:	b3468693          	addi	a3,a3,-1228 # 80001000 <pt>
    800004d4:	20078793          	addi	a5,a5,512
    800004d8:	00379793          	slli	a5,a5,0x3
    800004dc:	00f687b3          	add	a5,a3,a5
    800004e0:	00e7b023          	sd	a4,0(a5)
    800004e4:	00400797          	auipc	a5,0x400
    800004e8:	b1c78793          	addi	a5,a5,-1252 # 80400000 <pre_attack1>
    800004ec:	00c7d793          	srli	a5,a5,0xc
    800004f0:	00a79713          	slli	a4,a5,0xa
    800004f4:	00400797          	auipc	a5,0x400
    800004f8:	b0c78793          	addi	a5,a5,-1268 # 80400000 <pre_attack1>
    800004fc:	0157d793          	srli	a5,a5,0x15
    80000500:	1ff7f793          	andi	a5,a5,511
    80000504:	0db76713          	ori	a4,a4,219
    80000508:	00001697          	auipc	a3,0x1
    8000050c:	af868693          	addi	a3,a3,-1288 # 80001000 <pt>
    80000510:	20078793          	addi	a5,a5,512
    80000514:	00379793          	slli	a5,a5,0x3
    80000518:	00f687b3          	add	a5,a3,a5
    8000051c:	00e7b023          	sd	a4,0(a5)
    80000520:	00003797          	auipc	a5,0x3
    80000524:	ae078793          	addi	a5,a5,-1312 # 80003000 <pt+0x2000>
    80000528:	00c7d793          	srli	a5,a5,0xc
    8000052c:	00a79713          	slli	a4,a5,0xa
    80000530:	00600797          	auipc	a5,0x600
    80000534:	ad078793          	addi	a5,a5,-1328 # 80600000 <attack>
    80000538:	0157d793          	srli	a5,a5,0x15
    8000053c:	1ff7f793          	andi	a5,a5,511
    80000540:	00176713          	ori	a4,a4,1
    80000544:	00001697          	auipc	a3,0x1
    80000548:	abc68693          	addi	a3,a3,-1348 # 80001000 <pt>
    8000054c:	20078793          	addi	a5,a5,512
    80000550:	00379793          	slli	a5,a5,0x3
    80000554:	00f687b3          	add	a5,a3,a5
    80000558:	00e7b023          	sd	a4,0(a5)
    8000055c:	00800797          	auipc	a5,0x800
    80000560:	aa478793          	addi	a5,a5,-1372 # 80800000 <receive>
    80000564:	00c7d793          	srli	a5,a5,0xc
    80000568:	00a79713          	slli	a4,a5,0xa
    8000056c:	00800797          	auipc	a5,0x800
    80000570:	a9478793          	addi	a5,a5,-1388 # 80800000 <receive>
    80000574:	0157d793          	srli	a5,a5,0x15
    80000578:	1ff7f793          	andi	a5,a5,511
    8000057c:	0db76713          	ori	a4,a4,219
    80000580:	00001697          	auipc	a3,0x1
    80000584:	a8068693          	addi	a3,a3,-1408 # 80001000 <pt>
    80000588:	20078793          	addi	a5,a5,512
    8000058c:	00379793          	slli	a5,a5,0x3
    80000590:	00f687b3          	add	a5,a3,a5
    80000594:	00e7b023          	sd	a4,0(a5)
    80000598:	00004797          	auipc	a5,0x4
    8000059c:	a6878793          	addi	a5,a5,-1432 # 80004000 <pt+0x3000>
    800005a0:	00c7d793          	srli	a5,a5,0xc
    800005a4:	00a79713          	slli	a4,a5,0xa
    800005a8:	00600697          	auipc	a3,0x600
    800005ac:	a5868693          	addi	a3,a3,-1448 # 80600000 <attack>
    800005b0:	004007b7          	lui	a5,0x400
    800005b4:	00f687b3          	add	a5,a3,a5
    800005b8:	0157d793          	srli	a5,a5,0x15
    800005bc:	1ff7f793          	andi	a5,a5,511
    800005c0:	00176713          	ori	a4,a4,1
    800005c4:	00001697          	auipc	a3,0x1
    800005c8:	a3c68693          	addi	a3,a3,-1476 # 80001000 <pt>
    800005cc:	20078793          	addi	a5,a5,512 # 400200 <_start-0x7fbffe00>
    800005d0:	00379793          	slli	a5,a5,0x3
    800005d4:	00f687b3          	add	a5,a3,a5
    800005d8:	00e7b023          	sd	a4,0(a5)
    800005dc:	00c00797          	auipc	a5,0xc00
    800005e0:	a2478793          	addi	a5,a5,-1500 # 80c00000 <secret>
    800005e4:	00c7d793          	srli	a5,a5,0xc
    800005e8:	00a79713          	slli	a4,a5,0xa
    800005ec:	00c00797          	auipc	a5,0xc00
    800005f0:	a1478793          	addi	a5,a5,-1516 # 80c00000 <secret>
    800005f4:	0157d793          	srli	a5,a5,0x15
    800005f8:	1ff7f793          	andi	a5,a5,511
    800005fc:	0c776713          	ori	a4,a4,199
    80000600:	00001697          	auipc	a3,0x1
    80000604:	a0068693          	addi	a3,a3,-1536 # 80001000 <pt>
    80000608:	20078793          	addi	a5,a5,512
    8000060c:	00379793          	slli	a5,a5,0x3
    80000610:	00f687b3          	add	a5,a3,a5
    80000614:	00e7b023          	sd	a4,0(a5)
    80000618:	6f8b67b7          	lui	a5,0x6f8b6
    8000061c:	6eb78793          	addi	a5,a5,1771 # 6f8b66eb <_start-0x10749915>
    80000620:	00179793          	slli	a5,a5,0x1
    80000624:	fef43423          	sd	a5,-24(s0)
    80000628:	fe843503          	ld	a0,-24(s0)
    8000062c:	124000ef          	jal	ra,80000750 <config>
    80000630:	00800793          	li	a5,8
    80000634:	fef43023          	sd	a5,-32(s0)
    80000638:	fe043783          	ld	a5,-32(s0)
    8000063c:	03c79713          	slli	a4,a5,0x3c
    80000640:	00001797          	auipc	a5,0x1
    80000644:	9c078793          	addi	a5,a5,-1600 # 80001000 <pt>
    80000648:	00c7d793          	srli	a5,a5,0xc
    8000064c:	00f767b3          	or	a5,a4,a5
    80000650:	fcf43c23          	sd	a5,-40(s0)
    80000654:	fd843783          	ld	a5,-40(s0)
    80000658:	18079073          	csrw	satp,a5
    8000065c:	0000b7b7          	lui	a5,0xb
    80000660:	1557879b          	addiw	a5,a5,341
    80000664:	30279073          	csrw	medeleg,a5
    80000668:	12000073          	sfence.vma
    8000066c:	00000013          	nop
    80000670:	02813083          	ld	ra,40(sp)
    80000674:	02013403          	ld	s0,32(sp)
    80000678:	03010113          	addi	sp,sp,48
    8000067c:	00008067          	ret

0000000080000680 <set_pte_attack>:
    80000680:	fd010113          	addi	sp,sp,-48
    80000684:	02813423          	sd	s0,40(sp)
    80000688:	03010413          	addi	s0,sp,48
    8000068c:	fca43c23          	sd	a0,-40(s0)
    80000690:	fcb43823          	sd	a1,-48(s0)
    80000694:	fd843783          	ld	a5,-40(s0)
    80000698:	00c7d793          	srli	a5,a5,0xc
    8000069c:	1ff7f793          	andi	a5,a5,511
    800006a0:	fef43423          	sd	a5,-24(s0)
    800006a4:	fd843783          	ld	a5,-40(s0)
    800006a8:	00c7d793          	srli	a5,a5,0xc
    800006ac:	00a79713          	slli	a4,a5,0xa
    800006b0:	fd043783          	ld	a5,-48(s0)
    800006b4:	00f76733          	or	a4,a4,a5
    800006b8:	00001697          	auipc	a3,0x1
    800006bc:	94868693          	addi	a3,a3,-1720 # 80001000 <pt>
    800006c0:	fe843783          	ld	a5,-24(s0)
    800006c4:	40078793          	addi	a5,a5,1024 # b400 <_start-0x7fff4c00>
    800006c8:	00379793          	slli	a5,a5,0x3
    800006cc:	00f687b3          	add	a5,a3,a5
    800006d0:	00e7b023          	sd	a4,0(a5)
    800006d4:	00000013          	nop
    800006d8:	02813403          	ld	s0,40(sp)
    800006dc:	03010113          	addi	sp,sp,48
    800006e0:	00008067          	ret

00000000800006e4 <set_pte_user>:
    800006e4:	fd010113          	addi	sp,sp,-48
    800006e8:	02813423          	sd	s0,40(sp)
    800006ec:	03010413          	addi	s0,sp,48
    800006f0:	fca43c23          	sd	a0,-40(s0)
    800006f4:	fcb43823          	sd	a1,-48(s0)
    800006f8:	fd843703          	ld	a4,-40(s0)
    800006fc:	004007b7          	lui	a5,0x400
    80000700:	00f707b3          	add	a5,a4,a5
    80000704:	00c7d793          	srli	a5,a5,0xc
    80000708:	1ff7f793          	andi	a5,a5,511
    8000070c:	fef43423          	sd	a5,-24(s0)
    80000710:	fd843783          	ld	a5,-40(s0)
    80000714:	00c7d793          	srli	a5,a5,0xc
    80000718:	00a79713          	slli	a4,a5,0xa
    8000071c:	fd043783          	ld	a5,-48(s0)
    80000720:	00f76733          	or	a4,a4,a5
    80000724:	00001697          	auipc	a3,0x1
    80000728:	8dc68693          	addi	a3,a3,-1828 # 80001000 <pt>
    8000072c:	fe843783          	ld	a5,-24(s0)
    80000730:	60078793          	addi	a5,a5,1536 # 400600 <_start-0x7fbffa00>
    80000734:	00379793          	slli	a5,a5,0x3
    80000738:	00f687b3          	add	a5,a3,a5
    8000073c:	00e7b023          	sd	a4,0(a5)
    80000740:	00000013          	nop
    80000744:	02813403          	ld	s0,40(sp)
    80000748:	03010113          	addi	sp,sp,48
    8000074c:	00008067          	ret

0000000080000750 <config>:
    80000750:	fd010113          	addi	sp,sp,-48
    80000754:	02113423          	sd	ra,40(sp)
    80000758:	02813023          	sd	s0,32(sp)
    8000075c:	03010413          	addi	s0,sp,48
    80000760:	fca43c23          	sd	a0,-40(s0)
    80000764:	00600797          	auipc	a5,0x600
    80000768:	89c78793          	addi	a5,a5,-1892 # 80600000 <attack>
    8000076c:	0df00593          	li	a1,223
    80000770:	00078513          	mv	a0,a5
    80000774:	f0dff0ef          	jal	ra,80000680 <set_pte_attack>
    80000778:	00601797          	auipc	a5,0x601
    8000077c:	88878793          	addi	a5,a5,-1912 # 80601000 <shared>
    80000780:	0db00593          	li	a1,219
    80000784:	00078513          	mv	a0,a5
    80000788:	ef9ff0ef          	jal	ra,80000680 <set_pte_attack>
    8000078c:	00600797          	auipc	a5,0x600
    80000790:	87478793          	addi	a5,a5,-1932 # 80600000 <attack>
    80000794:	0df00593          	li	a1,223
    80000798:	00078513          	mv	a0,a5
    8000079c:	f49ff0ef          	jal	ra,800006e4 <set_pte_user>
    800007a0:	00601797          	auipc	a5,0x601
    800007a4:	86078793          	addi	a5,a5,-1952 # 80601000 <shared>
    800007a8:	0db00593          	li	a1,219
    800007ac:	00078513          	mv	a0,a5
    800007b0:	f35ff0ef          	jal	ra,800006e4 <set_pte_user>
    800007b4:	fe042623          	sw	zero,-20(s0)
    800007b8:	0580006f          	j	80000810 <config+0xc0>
    800007bc:	0d700793          	li	a5,215
    800007c0:	fef43023          	sd	a5,-32(s0)
    800007c4:	fec42783          	lw	a5,-20(s0)
    800007c8:	00c79713          	slli	a4,a5,0xc
    800007cc:	00602797          	auipc	a5,0x602
    800007d0:	83478793          	addi	a5,a5,-1996 # 80602000 <data>
    800007d4:	00f707b3          	add	a5,a4,a5
    800007d8:	fe043583          	ld	a1,-32(s0)
    800007dc:	00078513          	mv	a0,a5
    800007e0:	ea1ff0ef          	jal	ra,80000680 <set_pte_attack>
    800007e4:	fec42783          	lw	a5,-20(s0)
    800007e8:	00c79713          	slli	a4,a5,0xc
    800007ec:	00602797          	auipc	a5,0x602
    800007f0:	81478793          	addi	a5,a5,-2028 # 80602000 <data>
    800007f4:	00f707b3          	add	a5,a4,a5
    800007f8:	0d700593          	li	a1,215
    800007fc:	00078513          	mv	a0,a5
    80000800:	ee5ff0ef          	jal	ra,800006e4 <set_pte_user>
    80000804:	fec42783          	lw	a5,-20(s0)
    80000808:	0017879b          	addiw	a5,a5,1
    8000080c:	fef42623          	sw	a5,-20(s0)
    80000810:	fec42783          	lw	a5,-20(s0)
    80000814:	0007871b          	sext.w	a4,a5
    80000818:	00700793          	li	a5,7
    8000081c:	fae7d0e3          	bge	a5,a4,800007bc <config+0x6c>
    80000820:	00000013          	nop
    80000824:	00000013          	nop
    80000828:	02813083          	ld	ra,40(sp)
    8000082c:	02013403          	ld	s0,32(sp)
    80000830:	03010113          	addi	sp,sp,48
    80000834:	00008067          	ret

Disassembly of section .tohost:

0000000080005000 <tohost>:
	...

0000000080005040 <fromhost>:
	...

0000000080005080 <timing>:
	...

Disassembly of section .text.preattack0:

0000000080200000 <pre_attack0>:
    80200000:	e2021ad3          	fclass.d	s5,ft4

0000000080200004 <prp0.entry.l1>:
    80200004:	222190d3          	fsgnjn.d	ft1,ft3,ft2

0000000080200008 <prp0.entry.l2>:
    80200008:	d23af253          	fcvt.d.lu	ft4,s5

000000008020000c <prp0.entry.l3>:
    8020000c:	e0021953          	fclass.s	s2,ft4

0000000080200010 <prp0.entry.l4>:
    80200010:	00e9da1b          	srliw	s4,s3,0xe

0000000080200014 <prp0.entry.l5>:
    80200014:	033a4abb          	divw	s5,s4,s3

0000000080200018 <prp0.entry.l6>:
    80200018:	2230214f          	fnmadd.d	ft2,ft0,ft3,ft4,rdn

000000008020001c <prp0.entry.l7>:
    8020001c:	d00af0d3          	fcvt.s.w	ft1,s5

0000000080200020 <prp0.entry.l8>:
    80200020:	01298ab3          	add	s5,s3,s2

0000000080200024 <prp0.entry.l9>:
    80200024:	d02a7153          	fcvt.s.l	ft2,s4

0000000080200028 <prp0.entry.l10>:
    80200028:	016a6263          	bltu	s4,s6,8020002c <prp0.bb0>

000000008020002c <prp0.bb0>:
    8020002c:	08000a6f          	jal	s4,802000ac <prp0.bb3>

0000000080200030 <prp0.bb0.l1>:
    80200030:	073a6e63          	bltu	s4,s3,802000ac <prp0.bb3>

0000000080200034 <prp0.bb0.l2>:
    80200034:	00401097          	auipc	ra,0x401
    80200038:	100080e7          	jalr	256(ra) # 80601134 <fn2.exit>

000000008020003c <prp0.bb0.l3>:
    8020003c:	d229f153          	fcvt.d.l	ft2,s3

0000000080200040 <prp0.bb0.l4>:
    80200040:	076a6663          	bltu	s4,s6,802000ac <prp0.bb3>

0000000080200044 <prp0.bb0.l5>:
    80200044:	00022153          	fadd.s	ft2,ft4,ft0,rdn

0000000080200048 <prp0.bb0.l6>:
    80200048:	07394263          	blt	s2,s3,802000ac <prp0.bb3>

000000008020004c <prp0.bb0.l7>:
    8020004c:	58003153          	fsqrt.s	ft2,ft0,rup

0000000080200050 <prp0.bb0.l8>:
    80200050:	00401097          	auipc	ra,0x401
    80200054:	0c8080e7          	jalr	200(ra) # 80601118 <fn1.exit>

0000000080200058 <prp0.bb0.l9>:
    80200058:	c0207ad3          	fcvt.l.s	s5,ft0

000000008020005c <prp0.bb0.l10>:
    8020005c:	00400aef          	jal	s5,80200060 <prp0.bb1>

0000000080200060 <prp0.bb1>:
    80200060:	f00900d3          	fmv.w.x	ft1,s2

0000000080200064 <prp0.bb1.l1>:
    80200064:	d00a7153          	fcvt.s.w	ft2,s4

0000000080200068 <prp0.bb1.l2>:
    80200068:	00401097          	auipc	ra,0x401
    8020006c:	f98080e7          	jalr	-104(ra) # 80601000 <shared>

0000000080200070 <prp0.bb1.l3>:
    80200070:	346b3993          	sltiu	s3,s6,838

0000000080200074 <prp0.bb1.l4>:
    80200074:	1030f253          	fmul.s	ft4,ft1,ft3

0000000080200078 <prp0.bb1.l5>:
    80200078:	100190cf          	fnmadd.s	ft1,ft3,ft0,ft2,rtz

000000008020007c <prp0.bb1.l6>:
    8020007c:	016a9263          	bne	s5,s6,80200080 <prp0.bb2>

0000000080200080 <prp0.bb2>:
    80200080:	05695c63          	bge	s2,s6,802000d8 <pre_attack0_end>

0000000080200084 <prp0.bb2.l1>:
    80200084:	00401097          	auipc	ra,0x401
    80200088:	fa4080e7          	jalr	-92(ra) # 80601028 <fn0.exit>

000000008020008c <prp0.bb2.l2>:
    8020008c:	01395ab3          	srl	s5,s2,s3

0000000080200090 <prp0.bb2.l3>:
    80200090:	e20089d3          	fmv.x.d	s3,ft1

0000000080200094 <prp0.bb2.l4>:
    80200094:	200101d3          	fsgnj.s	ft3,ft2,ft0

0000000080200098 <prp0.bb2.l5>:
    80200098:	0079199b          	slliw	s3,s2,0x7

000000008020009c <prp0.bb2.l6>:
    8020009c:	401ad91b          	sraiw	s2,s5,0x1

00000000802000a0 <prp0.bb2.l7>:
    802000a0:	00401097          	auipc	ra,0x401
    802000a4:	0b4080e7          	jalr	180(ra) # 80601154 <fn3.exit>

00000000802000a8 <prp0.bb2.l8>:
    802000a8:	012a6263          	bltu	s4,s2,802000ac <prp0.bb3>

00000000802000ac <prp0.bb3>:
    802000ac:	0ff0000f          	fence

00000000802000b0 <prp0.bb3.l1>:
    802000b0:	a22029d3          	feq.d	s3,ft0,ft2

00000000802000b4 <prp0.bb3.l2>:
    802000b4:	c2017ad3          	fcvt.w.d	s5,ft2

00000000802000b8 <prp0.bb3.l3>:
    802000b8:	c0117a53          	fcvt.wu.s	s4,ft2

00000000802000bc <prp0.bb3.l4>:
    802000bc:	03694abb          	divw	s5,s2,s6

00000000802000c0 <prp0.bb3.l5>:
    802000c0:	413ad933          	sra	s2,s5,s3

00000000802000c4 <prp0.bb3.l6>:
    802000c4:	00401097          	auipc	ra,0x401
    802000c8:	f64080e7          	jalr	-156(ra) # 80601028 <fn0.exit>

00000000802000cc <prp0.bb3.l7>:
    802000cc:	2a201253          	fmax.d	ft4,ft0,ft2

00000000802000d0 <prp0.bb3.l8>:
    802000d0:	d2190053          	fcvt.d.wu	ft0,s2

00000000802000d4 <prp0.bb3.l9>:
    802000d4:	013a1263          	bne	s4,s3,802000d8 <pre_attack0_end>

00000000802000d8 <pre_attack0_end>:
    802000d8:	00200097          	auipc	ra,0x200
    802000dc:	f28080e7          	jalr	-216(ra) # 80400000 <pre_attack1>

Disassembly of section .text.preattack1:

0000000080400000 <pre_attack1>:
    80400000:	d23970d3          	fcvt.d.lu	ft1,s2

0000000080400004 <prp1.entry.l1>:
    80400004:	c211fa53          	fcvt.wu.d	s4,ft3

0000000080400008 <prp1.entry.l2>:
    80400008:	00201097          	auipc	ra,0x201
    8040000c:	110080e7          	jalr	272(ra) # 80601118 <fn1.exit>

0000000080400010 <prp1.entry.l3>:
    80400010:	08220043          	fmadd.s	ft0,ft4,ft2,ft1,rne

0000000080400014 <prp1.entry.l4>:
    80400014:	00201097          	auipc	ra,0x201
    80400018:	104080e7          	jalr	260(ra) # 80601118 <fn1.exit>

000000008040001c <prp1.entry.l5>:
    8040001c:	00000b17          	auipc	s6,0x0
    80400020:	00cb0b13          	addi	s6,s6,12 # 80400028 <prp1.bb0>
    80400024:	000b0a67          	jalr	s4,s6

0000000080400028 <prp1.bb0>:
    80400028:	00201097          	auipc	ra,0x201
    8040002c:	12c080e7          	jalr	300(ra) # 80601154 <fn3.exit>

0000000080400030 <prp1.bb0.l1>:
    80400030:	42010153          	fcvt.d.s	ft2,ft2

0000000080400034 <prp1.bb0.l2>:
    80400034:	0359c863          	blt	s3,s5,80400064 <prp1.bb1>

0000000080400038 <prp1.bb0.l3>:
    80400038:	00201097          	auipc	ra,0x201
    8040003c:	0e0080e7          	jalr	224(ra) # 80601118 <fn1.exit>

0000000080400040 <prp1.bb0.l4>:
    80400040:	d23a7153          	fcvt.d.lu	ft2,s4

0000000080400044 <prp1.bb0.l5>:
    80400044:	c2117ad3          	fcvt.wu.d	s5,ft2

0000000080400048 <prp1.bb0.l6>:
    80400048:	094b1063          	bne	s6,s4,804000c8 <prp1.bb3>

000000008040004c <prp1.bb0.l7>:
    8040004c:	58019253          	fsqrt.s	ft4,ft3,rtz

0000000080400050 <prp1.bb0.l8>:
    80400050:	00201097          	auipc	ra,0x201
    80400054:	fd8080e7          	jalr	-40(ra) # 80601028 <fn0.exit>

0000000080400058 <prp1.bb0.l9>:
    80400058:	00000a17          	auipc	s4,0x0
    8040005c:	070a0a13          	addi	s4,s4,112 # 804000c8 <prp1.bb3>
    80400060:	000a0967          	jalr	s2,s4

0000000080400064 <prp1.bb1>:
    80400064:	c210f9d3          	fcvt.wu.d	s3,ft1

0000000080400068 <prp1.bb1.l1>:
    80400068:	c2027953          	fcvt.w.d	s2,ft4

000000008040006c <prp1.bb1.l2>:
    8040006c:	00201097          	auipc	ra,0x201
    80400070:	0e8080e7          	jalr	232(ra) # 80601154 <fn3.exit>

0000000080400074 <prp1.bb1.l3>:
    80400074:	c2327ad3          	fcvt.lu.d	s5,ft4

0000000080400078 <prp1.bb1.l4>:
    80400078:	0841f04f          	fnmadd.s	ft0,ft3,ft4,ft1

000000008040007c <prp1.bb1.l5>:
    8040007c:	0a3010d3          	fsub.d	ft1,ft0,ft3,rtz

0000000080400080 <prp1.bb1.l6>:
    80400080:	0811a053          	fsub.s	ft0,ft3,ft1,rdn

0000000080400084 <prp1.bb1.l7>:
    80400084:	40aa5a9b          	sraiw	s5,s4,0xa

0000000080400088 <prp1.bb1.l8>:
    80400088:	04c93a13          	sltiu	s4,s2,76

000000008040008c <prp1.bb1.l9>:
    8040008c:	c210f9d3          	fcvt.wu.d	s3,ft1

0000000080400090 <prp1.bb1.l10>:
    80400090:	013a0263          	beq	s4,s3,80400094 <prp1.bb2>

0000000080400094 <prp1.bb2>:
    80400094:	20308253          	fsgnj.s	ft4,ft1,ft3

0000000080400098 <prp1.bb2.l1>:
    80400098:	d22af053          	fcvt.d.l	ft0,s5

000000008040009c <prp1.bb2.l2>:
    8040009c:	03598b3b          	mulw	s6,s3,s5

00000000804000a0 <prp1.bb2.l3>:
    804000a0:	c2027b53          	fcvt.w.d	s6,ft4

00000000804000a4 <prp1.bb2.l4>:
    804000a4:	2a1101d3          	fmin.d	ft3,ft2,ft1

00000000804000a8 <prp1.bb2.l5>:
    804000a8:	5a0020d3          	fsqrt.d	ft1,ft0,rdn

00000000804000ac <prp1.bb2.l6>:
    804000ac:	c2207ad3          	fcvt.l.d	s5,ft0

00000000804000b0 <prp1.bb2.l7>:
    804000b0:	00400153          	fadd.s	ft2,ft0,ft4,rne

00000000804000b4 <prp1.bb2.l8>:
    804000b4:	00201097          	auipc	ra,0x201
    804000b8:	f4c080e7          	jalr	-180(ra) # 80601000 <shared>

00000000804000bc <prp1.bb2.l9>:
    804000bc:	00201097          	auipc	ra,0x201
    804000c0:	098080e7          	jalr	152(ra) # 80601154 <fn3.exit>

00000000804000c4 <prp1.bb2.l10>:
    804000c4:	0040096f          	jal	s2,804000c8 <prp1.bb3>

00000000804000c8 <prp1.bb3>:
    804000c8:	036af063          	bgeu	s5,s6,804000e8 <pre_attack1_end>

00000000804000cc <prp1.bb3.l1>:
    804000cc:	0a310247          	fmsub.d	ft4,ft2,ft3,ft1,rne

00000000804000d0 <prp1.bb3.l2>:
    804000d0:	034adb33          	divu	s6,s5,s4

00000000804000d4 <prp1.bb3.l3>:
    804000d4:	4010f0d3          	fcvt.s.d	ft1,ft1

00000000804000d8 <prp1.bb3.l4>:
    804000d8:	00201097          	auipc	ra,0x201
    804000dc:	05c080e7          	jalr	92(ra) # 80601134 <fn2.exit>

00000000804000e0 <prp1.bb3.l5>:
    804000e0:	c0107a53          	fcvt.wu.s	s4,ft0

00000000804000e4 <prp1.bb3.l6>:
    804000e4:	0129f263          	bgeu	s3,s2,804000e8 <pre_attack1_end>

00000000804000e8 <pre_attack1_end>:
    804000e8:	00200097          	auipc	ra,0x200
    804000ec:	f18080e7          	jalr	-232(ra) # 80600000 <attack>

Disassembly of section .text.attack:

0000000080600000 <attack>:
    80600000:	10013253          	fmul.s	ft4,ft2,ft0,rup

0000000080600004 <tc.entry.l1>:
    80600004:	3f897913          	andi	s2,s2,1016
    80600008:	00004a97          	auipc	s5,0x4
    8060000c:	ff8a8a93          	addi	s5,s5,-8 # 80604000 <data2>
    80600010:	01590933          	add	s2,s2,s5
    80600014:	21392a2f          	amoxor.w	s4,s3,(s2)

0000000080600018 <tc.entry.l2>:
    80600018:	001241c7          	fmsub.s	ft3,ft4,ft1,ft0,rmm

000000008060001c <tc.entry.l3>:
    8060001c:	00000a97          	auipc	s5,0x0
    80600020:	014a8a93          	addi	s5,s5,20 # 80600030 <tc.bb0>
    80600024:	000a89e7          	jalr	s3,s5

0000000080600028 <tc.entry.l4>:
    80600028:	0169f933          	and	s2,s3,s6

000000008060002c <tc.entry.l5>:
    8060002c:	01494263          	blt	s2,s4,80600030 <tc.bb0>

0000000080600030 <tc.bb0>:
    80600030:	032ae9b3          	rem	s3,s5,s2

0000000080600034 <tc.bb0.l1>:
    80600034:	02408153          	fadd.d	ft2,ft1,ft4,rne

0000000080600038 <tc.bb0.l2>:
    80600038:	f20a80d3          	fmv.d.x	ft1,s5

000000008060003c <tc.bb0.l3>:
    8060003c:	03598b33          	mul	s6,s3,s5

0000000080600040 <tc.bb0.l4>:
    80600040:	004071d3          	fadd.s	ft3,ft0,ft4

0000000080600044 <tc.bb0.l5>:
    80600044:	00c4ca97          	auipc	s5,0xc4c

0000000080600048 <tc.bb0.l6>:
    80600048:	015b4263          	blt	s6,s5,8060004c <tc.bb1>

000000008060004c <tc.bb1>:
    8060004c:	7dd000ef          	jal	ra,80601028 <fn0.exit>

0000000080600050 <tc.bb1.l1>:
    80600050:	3f8a7a13          	andi	s4,s4,1016
    80600054:	00005b17          	auipc	s6,0x5
    80600058:	facb0b13          	addi	s6,s6,-84 # 80605000 <data3>
    8060005c:	016a0a33          	add	s4,s4,s6
    80600060:	012a1a23          	sh	s2,20(s4)

0000000080600064 <tc.bb1.l2>:
    80600064:	79d000ef          	jal	ra,80601000 <shared>

0000000080600068 <tc.bb1.l3>:
    80600068:	0000100f          	fence.i

000000008060006c <tc.bb1.l4>:
    8060006c:	2201f14b          	fnmsub.d	ft2,ft3,ft0,ft4

0000000080600070 <tc.bb1.l5>:
    80600070:	013adb33          	srl	s6,s5,s3

0000000080600074 <tc.bb1.l6>:
    80600074:	20202253          	fsgnjx.s	ft4,ft0,ft2

0000000080600078 <tc.bb1.l7>:
    80600078:	e2011ad3          	fclass.d	s5,ft2

000000008060007c <tc.bb1.l8>:
    8060007c:	00000917          	auipc	s2,0x0
    80600080:	00c90913          	addi	s2,s2,12 # 80600088 <tc.bb2>
    80600084:	00090a67          	jalr	s4,s2

0000000080600088 <tc.bb2>:
    80600088:	c01079d3          	fcvt.wu.s	s3,ft0

000000008060008c <tc.bb2.l1>:
    8060008c:	79caba13          	sltiu	s4,s5,1948

0000000080600090 <tc.bb2.l2>:
    80600090:	3f897913          	andi	s2,s2,1016
    80600094:	00003a17          	auipc	s4,0x3
    80600098:	f6ca0a13          	addi	s4,s4,-148 # 80603000 <data1>
    8060009c:	01490933          	add	s2,s2,s4
    806000a0:	816929af          	amomin.w	s3,s6,(s2)

00000000806000a4 <tc.bb2.l3>:
    806000a4:	03597e63          	bgeu	s2,s5,806000e0 <tc.bb3>

00000000806000a8 <tc.bb2.l4>:
    806000a8:	c011f9d3          	fcvt.wu.s	s3,ft3

00000000806000ac <tc.bb2.l5>:
    806000ac:	3f89f993          	andi	s3,s3,1016
    806000b0:	00007917          	auipc	s2,0x7
    806000b4:	f5090913          	addi	s2,s2,-176 # 80607000 <data5>
    806000b8:	012989b3          	add	s3,s3,s2
    806000bc:	0039b427          	fsd	ft3,8(s3)

00000000806000c0 <tc.bb2.l6>:
    806000c0:	3f8afa93          	andi	s5,s5,1016
    806000c4:	00006a17          	auipc	s4,0x6
    806000c8:	f3ca0a13          	addi	s4,s4,-196 # 80606000 <data4>
    806000cc:	014a8ab3          	add	s5,s5,s4
    806000d0:	100aab2f          	lr.w	s6,(s5)

00000000806000d4 <tc.bb2.l7>:
    806000d4:	00000917          	auipc	s2,0x0
    806000d8:	00c90913          	addi	s2,s2,12 # 806000e0 <tc.bb3>
    806000dc:	00090ae7          	jalr	s5,s2

00000000806000e0 <tc.bb3>:
    806000e0:	033a4b3b          	divw	s6,s4,s3

00000000806000e4 <tc.bb3.l1>:
    806000e4:	3f8afa93          	andi	s5,s5,1016
    806000e8:	00003917          	auipc	s2,0x3
    806000ec:	f1890913          	addi	s2,s2,-232 # 80603000 <data1>
    806000f0:	012a8ab3          	add	s5,s5,s2
    806000f4:	100aba2f          	lr.d	s4,(s5)

00000000806000f8 <tc.bb3.l2>:
    806000f8:	3f897913          	andi	s2,s2,1016
    806000fc:	00004997          	auipc	s3,0x4
    80600100:	f0498993          	addi	s3,s3,-252 # 80604000 <data2>
    80600104:	01390933          	add	s2,s2,s3
    80600108:	e1593a2f          	amomaxu.d	s4,s5,(s2)

000000008060010c <tc.bb3.l3>:
    8060010c:	203170cb          	fnmsub.s	ft1,ft2,ft3,ft4

0000000080600110 <tc.bb3.l4>:
    80600110:	076ac463          	blt	s5,s6,80600178 <attack_end>

0000000080600114 <tc.bb3.l5>:
    80600114:	075b0263          	beq	s6,s5,80600178 <attack_end>

0000000080600118 <tc.bb4>:
    80600118:	41698ab3          	sub	s5,s3,s6

000000008060011c <tc.bb4.l1>:
    8060011c:	c20279d3          	fcvt.w.d	s3,ft4

0000000080600120 <tc.bb4.l2>:
    80600120:	034a8b3b          	mulw	s6,s5,s4

0000000080600124 <tc.bb4.l3>:
    80600124:	3f8a7a13          	andi	s4,s4,1016
    80600128:	00002917          	auipc	s2,0x2
    8060012c:	ed890913          	addi	s2,s2,-296 # 80602000 <data>
    80600130:	012a0a33          	add	s4,s4,s2
    80600134:	013a1e23          	sh	s3,28(s4)

0000000080600138 <tc.bb4.l4>:
    80600138:	3f8b7b13          	andi	s6,s6,1016
    8060013c:	00004a97          	auipc	s5,0x4
    80600140:	ec4a8a93          	addi	s5,s5,-316 # 80604000 <data2>
    80600144:	015b0b33          	add	s6,s6,s5
    80600148:	003b2227          	fsw	ft3,4(s6)

000000008060014c <tc.bb4.l5>:
    8060014c:	c210f9d3          	fcvt.wu.d	s3,ft1

0000000080600150 <tc.bb4.l6>:
    80600150:	02800aef          	jal	s5,80600178 <attack_end>

0000000080600154 <tc.bb4.l7>:
    80600154:	3f8a7a13          	andi	s4,s4,1016
    80600158:	00007917          	auipc	s2,0x7
    8060015c:	ea890913          	addi	s2,s2,-344 # 80607000 <data5>
    80600160:	012a0a33          	add	s4,s4,s2
    80600164:	004a0983          	lb	s3,4(s4)

0000000080600168 <tc.bb4.l8>:
    80600168:	00cb1a1b          	slliw	s4,s6,0xc

000000008060016c <tc.bb4.l9>:
    8060016c:	00000b17          	auipc	s6,0x0
    80600170:	00cb0b13          	addi	s6,s6,12 # 80600178 <attack_end>
    80600174:	000b0967          	jalr	s2,s6

0000000080600178 <attack_end>:
    80600178:	00000073          	ecall
    8060017c:	00000013          	nop

0000000080600180 <spdoc>:
	...
    80600188:	00000013          	nop
    8060018c:	00000013          	nop
    80600190:	00000013          	nop
    80600194:	00000013          	nop
    80600198:	00000013          	nop
    8060019c:	00000013          	nop
    806001a0:	00000013          	nop
    806001a4:	00000013          	nop
    806001a8:	00000013          	nop
    806001ac:	00000013          	nop
    806001b0:	00000013          	nop
    806001b4:	00000013          	nop
    806001b8:	00000013          	nop
    806001bc:	00000013          	nop
    806001c0:	00000013          	nop
    806001c4:	00000013          	nop
    806001c8:	00000013          	nop
    806001cc:	00000013          	nop
    806001d0:	00000013          	nop
    806001d4:	00000013          	nop
    806001d8:	00000013          	nop
    806001dc:	00000013          	nop
    806001e0:	00000013          	nop
    806001e4:	00000013          	nop
    806001e8:	00000013          	nop
    806001ec:	00000013          	nop
    806001f0:	00000013          	nop
    806001f4:	00000013          	nop
    806001f8:	00000013          	nop
    806001fc:	00000013          	nop
    80600200:	00000013          	nop
    80600204:	00000013          	nop
    80600208:	00000013          	nop
    8060020c:	00000013          	nop
    80600210:	00000013          	nop
    80600214:	00000013          	nop
    80600218:	00000013          	nop
    8060021c:	00000013          	nop
    80600220:	00000013          	nop
    80600224:	00000013          	nop
    80600228:	00000013          	nop
    8060022c:	00000013          	nop
    80600230:	00000013          	nop
    80600234:	00000013          	nop
    80600238:	00000013          	nop
    8060023c:	00000013          	nop
    80600240:	00000013          	nop
    80600244:	00000013          	nop
    80600248:	00000013          	nop
    8060024c:	00000013          	nop
    80600250:	00000013          	nop
    80600254:	00000013          	nop
    80600258:	00000013          	nop
    8060025c:	00000013          	nop
    80600260:	00000013          	nop
    80600264:	00000013          	nop
    80600268:	00000013          	nop
    8060026c:	00000013          	nop
    80600270:	00000013          	nop
    80600274:	00000013          	nop
    80600278:	00000013          	nop
    8060027c:	00000013          	nop
    80600280:	00000013          	nop
    80600284:	00000013          	nop
    80600288:	00000013          	nop
    8060028c:	00000013          	nop
    80600290:	00000013          	nop
    80600294:	00000013          	nop
    80600298:	00000013          	nop
    8060029c:	00000013          	nop
    806002a0:	00000013          	nop
    806002a4:	00000013          	nop
    806002a8:	00000013          	nop
    806002ac:	00000013          	nop
    806002b0:	00000013          	nop
    806002b4:	00000013          	nop
    806002b8:	00000013          	nop
    806002bc:	00000013          	nop
    806002c0:	00000013          	nop
    806002c4:	00000013          	nop
    806002c8:	00000013          	nop
    806002cc:	00000013          	nop
    806002d0:	00000013          	nop
    806002d4:	00000013          	nop
    806002d8:	00000013          	nop
    806002dc:	00000013          	nop
    806002e0:	00000013          	nop
    806002e4:	00000013          	nop
    806002e8:	00000013          	nop
    806002ec:	00000013          	nop
    806002f0:	00000013          	nop
    806002f4:	00000013          	nop
    806002f8:	00000013          	nop
    806002fc:	00000013          	nop
    80600300:	00000013          	nop
    80600304:	00000013          	nop
    80600308:	00000013          	nop
    8060030c:	00000013          	nop
    80600310:	00000013          	nop
    80600314:	00000013          	nop
    80600318:	00000013          	nop
    8060031c:	00000013          	nop
    80600320:	00000013          	nop
    80600324:	00000013          	nop
    80600328:	00000013          	nop
    8060032c:	00000013          	nop
    80600330:	00000013          	nop
    80600334:	00000013          	nop
    80600338:	00000013          	nop
    8060033c:	00000013          	nop
    80600340:	00000013          	nop
    80600344:	00000013          	nop
    80600348:	00000013          	nop
    8060034c:	00000013          	nop
    80600350:	00000013          	nop
    80600354:	00000013          	nop
    80600358:	00000013          	nop
    8060035c:	00000013          	nop
    80600360:	00000013          	nop
    80600364:	00000013          	nop
    80600368:	00000013          	nop
    8060036c:	00000013          	nop
    80600370:	00000013          	nop
    80600374:	00000013          	nop
    80600378:	00000013          	nop
    8060037c:	00000013          	nop
    80600380:	00000013          	nop
    80600384:	00000013          	nop
    80600388:	00000013          	nop
    8060038c:	00000013          	nop
    80600390:	00000013          	nop
    80600394:	00000013          	nop
    80600398:	00000013          	nop
    8060039c:	00000013          	nop
    806003a0:	00000013          	nop
    806003a4:	00000013          	nop
    806003a8:	00000013          	nop
    806003ac:	00000013          	nop
    806003b0:	00000013          	nop
    806003b4:	00000013          	nop
    806003b8:	00000013          	nop
    806003bc:	00000013          	nop
    806003c0:	00000013          	nop
    806003c4:	00000013          	nop
    806003c8:	00000013          	nop
    806003cc:	00000013          	nop
    806003d0:	00000013          	nop
    806003d4:	00000013          	nop
    806003d8:	00000013          	nop
    806003dc:	00000013          	nop
    806003e0:	00000013          	nop
    806003e4:	00000013          	nop
    806003e8:	00000013          	nop
    806003ec:	00000013          	nop
    806003f0:	00000013          	nop
    806003f4:	00000013          	nop
    806003f8:	00000013          	nop
    806003fc:	00000013          	nop
    80600400:	00000013          	nop
    80600404:	00000013          	nop
    80600408:	00000013          	nop
    8060040c:	00000013          	nop
    80600410:	00000013          	nop
    80600414:	00000013          	nop
    80600418:	00000013          	nop
    8060041c:	00000013          	nop
    80600420:	00000013          	nop
    80600424:	00000013          	nop
    80600428:	00000013          	nop
    8060042c:	00000013          	nop
    80600430:	00000013          	nop
    80600434:	00000013          	nop
    80600438:	00000013          	nop
    8060043c:	00000013          	nop
    80600440:	00000013          	nop
    80600444:	00000013          	nop
    80600448:	00000013          	nop
    8060044c:	00000013          	nop
    80600450:	00000013          	nop
    80600454:	00000013          	nop
    80600458:	00000013          	nop
    8060045c:	00000013          	nop
    80600460:	00000013          	nop
    80600464:	00000013          	nop
    80600468:	00000013          	nop
    8060046c:	00000013          	nop
    80600470:	00000013          	nop
    80600474:	00000013          	nop
    80600478:	00000013          	nop
    8060047c:	00000013          	nop
    80600480:	00000013          	nop
    80600484:	00000013          	nop
    80600488:	00000013          	nop
    8060048c:	00000013          	nop
    80600490:	00000013          	nop
    80600494:	00000013          	nop
    80600498:	00000013          	nop
    8060049c:	00000013          	nop
    806004a0:	00000013          	nop
    806004a4:	00000013          	nop
    806004a8:	00000013          	nop
    806004ac:	00000013          	nop
    806004b0:	00000013          	nop
    806004b4:	00000013          	nop
    806004b8:	00000013          	nop
    806004bc:	00000013          	nop
    806004c0:	00000013          	nop
    806004c4:	00000013          	nop
    806004c8:	00000013          	nop
    806004cc:	00000013          	nop
    806004d0:	00000013          	nop
    806004d4:	00000013          	nop
    806004d8:	00000013          	nop
    806004dc:	00000013          	nop
    806004e0:	00000013          	nop
    806004e4:	00000013          	nop
    806004e8:	00000013          	nop
    806004ec:	00000013          	nop
    806004f0:	00000013          	nop
    806004f4:	00000013          	nop
    806004f8:	00000013          	nop
    806004fc:	00000013          	nop
    80600500:	00000013          	nop
    80600504:	00000013          	nop
    80600508:	00000013          	nop
    8060050c:	00000013          	nop
    80600510:	00000013          	nop
    80600514:	00000013          	nop
    80600518:	00000013          	nop
    8060051c:	00000013          	nop
    80600520:	00000013          	nop
    80600524:	00000013          	nop
    80600528:	00000013          	nop
    8060052c:	00000013          	nop
    80600530:	00000013          	nop
    80600534:	00000013          	nop
    80600538:	00000013          	nop
    8060053c:	00000013          	nop
    80600540:	00000013          	nop
    80600544:	00000013          	nop
    80600548:	00000013          	nop
    8060054c:	00000013          	nop
    80600550:	00000013          	nop
    80600554:	00000013          	nop
    80600558:	00000013          	nop
    8060055c:	00000013          	nop
    80600560:	00000013          	nop
    80600564:	00000013          	nop
    80600568:	00000013          	nop
    8060056c:	00000013          	nop
    80600570:	00000013          	nop
    80600574:	00000013          	nop
    80600578:	00000013          	nop
    8060057c:	00000013          	nop
    80600580:	00000013          	nop
    80600584:	00000013          	nop
    80600588:	00000013          	nop
    8060058c:	00000013          	nop
    80600590:	00000013          	nop
    80600594:	00000013          	nop
    80600598:	00000013          	nop
    8060059c:	00000013          	nop
    806005a0:	00000013          	nop
    806005a4:	00000013          	nop
    806005a8:	00000013          	nop
    806005ac:	00000013          	nop
    806005b0:	00000013          	nop
    806005b4:	00000013          	nop
    806005b8:	00000013          	nop
    806005bc:	00000013          	nop
    806005c0:	00000013          	nop
    806005c4:	00000013          	nop
    806005c8:	00000013          	nop
    806005cc:	00000013          	nop
    806005d0:	00000013          	nop
    806005d4:	00000013          	nop
    806005d8:	00000013          	nop
    806005dc:	00000013          	nop
    806005e0:	00000013          	nop
    806005e4:	00000013          	nop
    806005e8:	00000013          	nop
    806005ec:	00000013          	nop
    806005f0:	00000013          	nop
    806005f4:	00000013          	nop
    806005f8:	00000013          	nop
    806005fc:	00000013          	nop
    80600600:	00000013          	nop
    80600604:	00000013          	nop
    80600608:	00000013          	nop
    8060060c:	00000013          	nop
    80600610:	00000013          	nop
    80600614:	00000013          	nop
    80600618:	00000013          	nop
    8060061c:	00000013          	nop
    80600620:	00000013          	nop
    80600624:	00000013          	nop
    80600628:	00000013          	nop
    8060062c:	00000013          	nop
    80600630:	00000013          	nop
    80600634:	00000013          	nop
    80600638:	00000013          	nop
    8060063c:	00000013          	nop
    80600640:	00000013          	nop
    80600644:	00000013          	nop
    80600648:	00000013          	nop
    8060064c:	00000013          	nop
    80600650:	00000013          	nop
    80600654:	00000013          	nop
    80600658:	00000013          	nop
    8060065c:	00000013          	nop
    80600660:	00000013          	nop
    80600664:	00000013          	nop
    80600668:	00000013          	nop
    8060066c:	00000013          	nop
    80600670:	00000013          	nop
    80600674:	00000013          	nop
    80600678:	00000013          	nop
    8060067c:	00000013          	nop
    80600680:	00000013          	nop
    80600684:	00000013          	nop
    80600688:	00000013          	nop
    8060068c:	00000013          	nop
    80600690:	00000013          	nop
    80600694:	00000013          	nop
    80600698:	00000013          	nop
    8060069c:	00000013          	nop
    806006a0:	00000013          	nop
    806006a4:	00000013          	nop
    806006a8:	00000013          	nop
    806006ac:	00000013          	nop
    806006b0:	00000013          	nop
    806006b4:	00000013          	nop
    806006b8:	00000013          	nop
    806006bc:	00000013          	nop
    806006c0:	00000013          	nop
    806006c4:	00000013          	nop
    806006c8:	00000013          	nop
    806006cc:	00000013          	nop
    806006d0:	00000013          	nop
    806006d4:	00000013          	nop
    806006d8:	00000013          	nop
    806006dc:	00000013          	nop
    806006e0:	00000013          	nop
    806006e4:	00000013          	nop
    806006e8:	00000013          	nop
    806006ec:	00000013          	nop
    806006f0:	00000013          	nop
    806006f4:	00000013          	nop
    806006f8:	00000013          	nop
    806006fc:	00000013          	nop
    80600700:	00000013          	nop
    80600704:	00000013          	nop
    80600708:	00000013          	nop
    8060070c:	00000013          	nop
    80600710:	00000013          	nop
    80600714:	00000013          	nop
    80600718:	00000013          	nop
    8060071c:	00000013          	nop
    80600720:	00000013          	nop
    80600724:	00000013          	nop
    80600728:	00000013          	nop
    8060072c:	00000013          	nop
    80600730:	00000013          	nop
    80600734:	00000013          	nop
    80600738:	00000013          	nop
    8060073c:	00000013          	nop
    80600740:	00000013          	nop
    80600744:	00000013          	nop
    80600748:	00000013          	nop
    8060074c:	00000013          	nop
    80600750:	00000013          	nop
    80600754:	00000013          	nop
    80600758:	00000013          	nop
    8060075c:	00000013          	nop
    80600760:	00000013          	nop
    80600764:	00000013          	nop
    80600768:	00000013          	nop
    8060076c:	00000013          	nop
    80600770:	00000013          	nop
    80600774:	00000013          	nop
    80600778:	00000013          	nop
    8060077c:	00000013          	nop
    80600780:	00000013          	nop
    80600784:	00000013          	nop
    80600788:	00000013          	nop
    8060078c:	00000013          	nop
    80600790:	00000013          	nop
    80600794:	00000013          	nop
    80600798:	00000013          	nop
    8060079c:	00000013          	nop
    806007a0:	00000013          	nop
    806007a4:	00000013          	nop
    806007a8:	00000013          	nop
    806007ac:	00000013          	nop
    806007b0:	00000013          	nop
    806007b4:	00000013          	nop
    806007b8:	00000013          	nop
    806007bc:	00000013          	nop
    806007c0:	00000013          	nop
    806007c4:	00000013          	nop
    806007c8:	00000013          	nop
    806007cc:	00000013          	nop
    806007d0:	00000013          	nop
    806007d4:	00000013          	nop
    806007d8:	00000013          	nop
    806007dc:	00000013          	nop
    806007e0:	00000013          	nop
    806007e4:	00000013          	nop
    806007e8:	00000013          	nop
    806007ec:	00000013          	nop
    806007f0:	00000013          	nop
    806007f4:	00000013          	nop
    806007f8:	00000013          	nop
    806007fc:	00000013          	nop
    80600800:	00000013          	nop
    80600804:	00000013          	nop
    80600808:	00000013          	nop
    8060080c:	00000013          	nop
    80600810:	00000013          	nop
    80600814:	00000013          	nop
    80600818:	00000013          	nop
    8060081c:	00000013          	nop
    80600820:	00000013          	nop
    80600824:	00000013          	nop
    80600828:	00000013          	nop
    8060082c:	00000013          	nop
    80600830:	00000013          	nop
    80600834:	00000013          	nop
    80600838:	00000013          	nop
    8060083c:	00000013          	nop
    80600840:	00000013          	nop
    80600844:	00000013          	nop
    80600848:	00000013          	nop
    8060084c:	00000013          	nop
    80600850:	00000013          	nop
    80600854:	00000013          	nop
    80600858:	00000013          	nop
    8060085c:	00000013          	nop
    80600860:	00000013          	nop
    80600864:	00000013          	nop
    80600868:	00000013          	nop
    8060086c:	00000013          	nop
    80600870:	00000013          	nop
    80600874:	00000013          	nop
    80600878:	00000013          	nop
    8060087c:	00000013          	nop
    80600880:	00000013          	nop
    80600884:	00000013          	nop
    80600888:	00000013          	nop
    8060088c:	00000013          	nop
    80600890:	00000013          	nop
    80600894:	00000013          	nop
    80600898:	00000013          	nop
    8060089c:	00000013          	nop
    806008a0:	00000013          	nop
    806008a4:	00000013          	nop
    806008a8:	00000013          	nop
    806008ac:	00000013          	nop
    806008b0:	00000013          	nop
    806008b4:	00000013          	nop
    806008b8:	00000013          	nop
    806008bc:	00000013          	nop
    806008c0:	00000013          	nop
    806008c4:	00000013          	nop
    806008c8:	00000013          	nop
    806008cc:	00000013          	nop
    806008d0:	00000013          	nop
    806008d4:	00000013          	nop
    806008d8:	00000013          	nop
    806008dc:	00000013          	nop
    806008e0:	00000013          	nop
    806008e4:	00000013          	nop
    806008e8:	00000013          	nop
    806008ec:	00000013          	nop
    806008f0:	00000013          	nop
    806008f4:	00000013          	nop
    806008f8:	00000013          	nop
    806008fc:	00000013          	nop
    80600900:	00000013          	nop
    80600904:	00000013          	nop
    80600908:	00000013          	nop
    8060090c:	00000013          	nop
    80600910:	00000013          	nop
    80600914:	00000013          	nop
    80600918:	00000013          	nop
    8060091c:	00000013          	nop
    80600920:	00000013          	nop
    80600924:	00000013          	nop
    80600928:	00000013          	nop
    8060092c:	00000013          	nop
    80600930:	00000013          	nop
    80600934:	00000013          	nop
    80600938:	00000013          	nop
    8060093c:	00000013          	nop
    80600940:	00000013          	nop
    80600944:	00000013          	nop
    80600948:	00000013          	nop
    8060094c:	00000013          	nop
    80600950:	00000013          	nop
    80600954:	00000013          	nop
    80600958:	00000013          	nop
    8060095c:	00000013          	nop
    80600960:	00000013          	nop
    80600964:	00000013          	nop
    80600968:	00000013          	nop
    8060096c:	00000013          	nop
    80600970:	00000013          	nop
    80600974:	00000013          	nop
    80600978:	00000013          	nop
    8060097c:	00000013          	nop
    80600980:	00000013          	nop
    80600984:	00000013          	nop
    80600988:	00000013          	nop
    8060098c:	00000013          	nop
    80600990:	00000013          	nop
    80600994:	00000013          	nop
    80600998:	00000013          	nop
    8060099c:	00000013          	nop
    806009a0:	00000013          	nop
    806009a4:	00000013          	nop
    806009a8:	00000013          	nop
    806009ac:	00000013          	nop
    806009b0:	00000013          	nop
    806009b4:	00000013          	nop
    806009b8:	00000013          	nop
    806009bc:	00000013          	nop
    806009c0:	00000013          	nop
    806009c4:	00000013          	nop
    806009c8:	00000013          	nop
    806009cc:	00000013          	nop
    806009d0:	00000013          	nop
    806009d4:	00000013          	nop
    806009d8:	00000013          	nop
    806009dc:	00000013          	nop
    806009e0:	00000013          	nop
    806009e4:	00000013          	nop
    806009e8:	00000013          	nop
    806009ec:	00000013          	nop
    806009f0:	00000013          	nop
    806009f4:	00000013          	nop
    806009f8:	00000013          	nop
    806009fc:	00000013          	nop
    80600a00:	00000013          	nop
    80600a04:	00000013          	nop
    80600a08:	00000013          	nop
    80600a0c:	00000013          	nop
    80600a10:	00000013          	nop
    80600a14:	00000013          	nop
    80600a18:	00000013          	nop
    80600a1c:	00000013          	nop
    80600a20:	00000013          	nop
    80600a24:	00000013          	nop
    80600a28:	00000013          	nop
    80600a2c:	00000013          	nop
    80600a30:	00000013          	nop
    80600a34:	00000013          	nop
    80600a38:	00000013          	nop
    80600a3c:	00000013          	nop
    80600a40:	00000013          	nop
    80600a44:	00000013          	nop
    80600a48:	00000013          	nop
    80600a4c:	00000013          	nop
    80600a50:	00000013          	nop
    80600a54:	00000013          	nop
    80600a58:	00000013          	nop
    80600a5c:	00000013          	nop
    80600a60:	00000013          	nop
    80600a64:	00000013          	nop
    80600a68:	00000013          	nop
    80600a6c:	00000013          	nop
    80600a70:	00000013          	nop
    80600a74:	00000013          	nop
    80600a78:	00000013          	nop
    80600a7c:	00000013          	nop
    80600a80:	00000013          	nop
    80600a84:	00000013          	nop
    80600a88:	00000013          	nop
    80600a8c:	00000013          	nop
    80600a90:	00000013          	nop
    80600a94:	00000013          	nop
    80600a98:	00000013          	nop
    80600a9c:	00000013          	nop
    80600aa0:	00000013          	nop
    80600aa4:	00000013          	nop
    80600aa8:	00000013          	nop
    80600aac:	00000013          	nop
    80600ab0:	00000013          	nop
    80600ab4:	00000013          	nop
    80600ab8:	00000013          	nop
    80600abc:	00000013          	nop
    80600ac0:	00000013          	nop
    80600ac4:	00000013          	nop
    80600ac8:	00000013          	nop
    80600acc:	00000013          	nop
    80600ad0:	00000013          	nop
    80600ad4:	00000013          	nop
    80600ad8:	00000013          	nop
    80600adc:	00000013          	nop
    80600ae0:	00000013          	nop
    80600ae4:	00000013          	nop
    80600ae8:	00000013          	nop
    80600aec:	00000013          	nop
    80600af0:	00000013          	nop
    80600af4:	00000013          	nop
    80600af8:	00000013          	nop
    80600afc:	00000013          	nop
    80600b00:	00000013          	nop
    80600b04:	00000013          	nop
    80600b08:	00000013          	nop
    80600b0c:	00000013          	nop
    80600b10:	00000013          	nop
    80600b14:	00000013          	nop
    80600b18:	00000013          	nop
    80600b1c:	00000013          	nop
    80600b20:	00000013          	nop
    80600b24:	00000013          	nop
    80600b28:	00000013          	nop
    80600b2c:	00000013          	nop
    80600b30:	00000013          	nop
    80600b34:	00000013          	nop
    80600b38:	00000013          	nop
    80600b3c:	00000013          	nop
    80600b40:	00000013          	nop
    80600b44:	00000013          	nop
    80600b48:	00000013          	nop
    80600b4c:	00000013          	nop
    80600b50:	00000013          	nop
    80600b54:	00000013          	nop
    80600b58:	00000013          	nop
    80600b5c:	00000013          	nop
    80600b60:	00000013          	nop
    80600b64:	00000013          	nop
    80600b68:	00000013          	nop
    80600b6c:	00000013          	nop
    80600b70:	00000013          	nop
    80600b74:	00000013          	nop
    80600b78:	00000013          	nop
    80600b7c:	00000013          	nop
    80600b80:	00000013          	nop
    80600b84:	00000013          	nop
    80600b88:	00000013          	nop
    80600b8c:	00000013          	nop
    80600b90:	00000013          	nop
    80600b94:	00000013          	nop
    80600b98:	00000013          	nop
    80600b9c:	00000013          	nop
    80600ba0:	00000013          	nop
    80600ba4:	00000013          	nop
    80600ba8:	00000013          	nop
    80600bac:	00000013          	nop
    80600bb0:	00000013          	nop
    80600bb4:	00000013          	nop
    80600bb8:	00000013          	nop
    80600bbc:	00000013          	nop
    80600bc0:	00000013          	nop
    80600bc4:	00000013          	nop
    80600bc8:	00000013          	nop
    80600bcc:	00000013          	nop
    80600bd0:	00000013          	nop
    80600bd4:	00000013          	nop
    80600bd8:	00000013          	nop
    80600bdc:	00000013          	nop
    80600be0:	00000013          	nop
    80600be4:	00000013          	nop
    80600be8:	00000013          	nop
    80600bec:	00000013          	nop
    80600bf0:	00000013          	nop
    80600bf4:	00000013          	nop
    80600bf8:	00000013          	nop
    80600bfc:	00000013          	nop
    80600c00:	00000013          	nop
    80600c04:	00000013          	nop
    80600c08:	00000013          	nop
    80600c0c:	00000013          	nop
    80600c10:	00000013          	nop
    80600c14:	00000013          	nop
    80600c18:	00000013          	nop
    80600c1c:	00000013          	nop
    80600c20:	00000013          	nop
    80600c24:	00000013          	nop
    80600c28:	00000013          	nop
    80600c2c:	00000013          	nop
    80600c30:	00000013          	nop
    80600c34:	00000013          	nop
    80600c38:	00000013          	nop
    80600c3c:	00000013          	nop
    80600c40:	00000013          	nop
    80600c44:	00000013          	nop
    80600c48:	00000013          	nop
    80600c4c:	00000013          	nop
    80600c50:	00000013          	nop
    80600c54:	00000013          	nop
    80600c58:	00000013          	nop
    80600c5c:	00000013          	nop
    80600c60:	00000013          	nop
    80600c64:	00000013          	nop
    80600c68:	00000013          	nop
    80600c6c:	00000013          	nop
    80600c70:	00000013          	nop
    80600c74:	00000013          	nop
    80600c78:	00000013          	nop
    80600c7c:	00000013          	nop
    80600c80:	00000013          	nop
    80600c84:	00000013          	nop
    80600c88:	00000013          	nop
    80600c8c:	00000013          	nop
    80600c90:	00000013          	nop
    80600c94:	00000013          	nop
    80600c98:	00000013          	nop
    80600c9c:	00000013          	nop
    80600ca0:	00000013          	nop
    80600ca4:	00000013          	nop
    80600ca8:	00000013          	nop
    80600cac:	00000013          	nop
    80600cb0:	00000013          	nop
    80600cb4:	00000013          	nop
    80600cb8:	00000013          	nop
    80600cbc:	00000013          	nop
    80600cc0:	00000013          	nop
    80600cc4:	00000013          	nop
    80600cc8:	00000013          	nop
    80600ccc:	00000013          	nop
    80600cd0:	00000013          	nop
    80600cd4:	00000013          	nop
    80600cd8:	00000013          	nop
    80600cdc:	00000013          	nop
    80600ce0:	00000013          	nop
    80600ce4:	00000013          	nop
    80600ce8:	00000013          	nop
    80600cec:	00000013          	nop
    80600cf0:	00000013          	nop
    80600cf4:	00000013          	nop
    80600cf8:	00000013          	nop
    80600cfc:	00000013          	nop
    80600d00:	00000013          	nop
    80600d04:	00000013          	nop
    80600d08:	00000013          	nop
    80600d0c:	00000013          	nop
    80600d10:	00000013          	nop
    80600d14:	00000013          	nop
    80600d18:	00000013          	nop
    80600d1c:	00000013          	nop
    80600d20:	00000013          	nop
    80600d24:	00000013          	nop
    80600d28:	00000013          	nop
    80600d2c:	00000013          	nop
    80600d30:	00000013          	nop
    80600d34:	00000013          	nop
    80600d38:	00000013          	nop
    80600d3c:	00000013          	nop
    80600d40:	00000013          	nop
    80600d44:	00000013          	nop
    80600d48:	00000013          	nop
    80600d4c:	00000013          	nop
    80600d50:	00000013          	nop
    80600d54:	00000013          	nop
    80600d58:	00000013          	nop
    80600d5c:	00000013          	nop
    80600d60:	00000013          	nop
    80600d64:	00000013          	nop
    80600d68:	00000013          	nop
    80600d6c:	00000013          	nop
    80600d70:	00000013          	nop
    80600d74:	00000013          	nop
    80600d78:	00000013          	nop
    80600d7c:	00000013          	nop
    80600d80:	00000013          	nop
    80600d84:	00000013          	nop
    80600d88:	00000013          	nop
    80600d8c:	00000013          	nop
    80600d90:	00000013          	nop
    80600d94:	00000013          	nop
    80600d98:	00000013          	nop
    80600d9c:	00000013          	nop
    80600da0:	00000013          	nop
    80600da4:	00000013          	nop
    80600da8:	00000013          	nop
    80600dac:	00000013          	nop
    80600db0:	00000013          	nop
    80600db4:	00000013          	nop
    80600db8:	00000013          	nop
    80600dbc:	00000013          	nop
    80600dc0:	00000013          	nop
    80600dc4:	00000013          	nop
    80600dc8:	00000013          	nop
    80600dcc:	00000013          	nop
    80600dd0:	00000013          	nop
    80600dd4:	00000013          	nop
    80600dd8:	00000013          	nop
    80600ddc:	00000013          	nop
    80600de0:	00000013          	nop
    80600de4:	00000013          	nop
    80600de8:	00000013          	nop
    80600dec:	00000013          	nop
    80600df0:	00000013          	nop
    80600df4:	00000013          	nop
    80600df8:	00000013          	nop
    80600dfc:	00000013          	nop
    80600e00:	00000013          	nop
    80600e04:	00000013          	nop
    80600e08:	00000013          	nop
    80600e0c:	00000013          	nop
    80600e10:	00000013          	nop
    80600e14:	00000013          	nop
    80600e18:	00000013          	nop
    80600e1c:	00000013          	nop
    80600e20:	00000013          	nop
    80600e24:	00000013          	nop
    80600e28:	00000013          	nop
    80600e2c:	00000013          	nop
    80600e30:	00000013          	nop
    80600e34:	00000013          	nop
    80600e38:	00000013          	nop
    80600e3c:	00000013          	nop
    80600e40:	00000013          	nop
    80600e44:	00000013          	nop
    80600e48:	00000013          	nop
    80600e4c:	00000013          	nop
    80600e50:	00000013          	nop
    80600e54:	00000013          	nop
    80600e58:	00000013          	nop
    80600e5c:	00000013          	nop
    80600e60:	00000013          	nop
    80600e64:	00000013          	nop
    80600e68:	00000013          	nop
    80600e6c:	00000013          	nop
    80600e70:	00000013          	nop
    80600e74:	00000013          	nop
    80600e78:	00000013          	nop
    80600e7c:	00000013          	nop
    80600e80:	00000013          	nop
    80600e84:	00000013          	nop
    80600e88:	00000013          	nop
    80600e8c:	00000013          	nop
    80600e90:	00000013          	nop
    80600e94:	00000013          	nop
    80600e98:	00000013          	nop
    80600e9c:	00000013          	nop
    80600ea0:	00000013          	nop
    80600ea4:	00000013          	nop
    80600ea8:	00000013          	nop
    80600eac:	00000013          	nop
    80600eb0:	00000013          	nop
    80600eb4:	00000013          	nop
    80600eb8:	00000013          	nop
    80600ebc:	00000013          	nop
    80600ec0:	00000013          	nop
    80600ec4:	00000013          	nop
    80600ec8:	00000013          	nop
    80600ecc:	00000013          	nop
    80600ed0:	00000013          	nop
    80600ed4:	00000013          	nop
    80600ed8:	00000013          	nop
    80600edc:	00000013          	nop
    80600ee0:	00000013          	nop
    80600ee4:	00000013          	nop
    80600ee8:	00000013          	nop
    80600eec:	00000013          	nop
    80600ef0:	00000013          	nop
    80600ef4:	00000013          	nop
    80600ef8:	00000013          	nop
    80600efc:	00000013          	nop
    80600f00:	00000013          	nop
    80600f04:	00000013          	nop
    80600f08:	00000013          	nop
    80600f0c:	00000013          	nop
    80600f10:	00000013          	nop
    80600f14:	00000013          	nop
    80600f18:	00000013          	nop
    80600f1c:	00000013          	nop
    80600f20:	00000013          	nop
    80600f24:	00000013          	nop
    80600f28:	00000013          	nop
    80600f2c:	00000013          	nop
    80600f30:	00000013          	nop
    80600f34:	00000013          	nop
    80600f38:	00000013          	nop
    80600f3c:	00000013          	nop
    80600f40:	00000013          	nop
    80600f44:	00000013          	nop
    80600f48:	00000013          	nop
    80600f4c:	00000013          	nop
    80600f50:	00000013          	nop
    80600f54:	00000013          	nop
    80600f58:	00000013          	nop
    80600f5c:	00000013          	nop
    80600f60:	00000013          	nop
    80600f64:	00000013          	nop
    80600f68:	00000013          	nop
    80600f6c:	00000013          	nop
    80600f70:	00000013          	nop
    80600f74:	00000013          	nop
    80600f78:	00000013          	nop
    80600f7c:	00000013          	nop
    80600f80:	00000013          	nop
    80600f84:	00000013          	nop
    80600f88:	00000013          	nop
    80600f8c:	00000013          	nop
    80600f90:	00000013          	nop
    80600f94:	00000013          	nop
    80600f98:	00000013          	nop
    80600f9c:	00000013          	nop
    80600fa0:	00000013          	nop
    80600fa4:	00000013          	nop
    80600fa8:	00000013          	nop
    80600fac:	00000013          	nop
    80600fb0:	00000013          	nop
    80600fb4:	00000013          	nop
    80600fb8:	00000013          	nop
    80600fbc:	00000013          	nop
    80600fc0:	00000013          	nop
    80600fc4:	00000013          	nop
    80600fc8:	00000013          	nop
    80600fcc:	00000013          	nop
    80600fd0:	00000013          	nop
    80600fd4:	00000013          	nop
    80600fd8:	00000013          	nop
    80600fdc:	00000013          	nop
    80600fe0:	00000013          	nop
    80600fe4:	00000013          	nop
    80600fe8:	00000013          	nop
    80600fec:	00000013          	nop
    80600ff0:	00000013          	nop
    80600ff4:	00000013          	nop
    80600ff8:	00000013          	nop
    80600ffc:	00000013          	nop

0000000080601000 <shared>:
    80601000:	0dccbb93          	sltiu	s7,s9,220

0000000080601004 <fn0.entry.l1>:
    80601004:	a0741cd3          	flt.s	s9,fs0,ft7

0000000080601008 <fn0.entry.l2>:
    80601008:	a0731d53          	flt.s	s10,ft6,ft7

000000008060100c <fn0.entry.l3>:
    8060100c:	20629453          	fsgnjn.s	fs0,ft5,ft6

0000000080601010 <fn0.entry.l4>:
    80601010:	c2137cd3          	fcvt.wu.d	s9,ft6

0000000080601014 <fn0.entry.l5>:
    80601014:	038bdcbb          	divuw	s9,s7,s8

0000000080601018 <fn0.entry.l6>:
    80601018:	e0038bd3          	fmv.x.w	s7,ft7

000000008060101c <fn0.entry.l7>:
    8060101c:	d20c82d3          	fcvt.d.w	ft5,s9

0000000080601020 <fn0.entry.l8>:
    80601020:	019dcbb3          	xor	s7,s11,s9

0000000080601024 <fn0.entry.l9>:
    80601024:	00008067          	ret

0000000080601028 <fn0.exit>:
    80601028:	00000013          	nop
    8060102c:	00000013          	nop
    80601030:	00000013          	nop
    80601034:	00000013          	nop
    80601038:	00000013          	nop
    8060103c:	00000013          	nop
    80601040:	00000013          	nop
    80601044:	00000013          	nop
    80601048:	00000013          	nop
    8060104c:	00000013          	nop
    80601050:	00000013          	nop
    80601054:	00000013          	nop
    80601058:	00000013          	nop
    8060105c:	00000013          	nop
    80601060:	00000013          	nop
    80601064:	00000013          	nop
    80601068:	00000013          	nop
    8060106c:	00000013          	nop
    80601070:	00000013          	nop
    80601074:	00000013          	nop
    80601078:	00000013          	nop
    8060107c:	00000013          	nop
    80601080:	00000013          	nop
    80601084:	00000013          	nop
    80601088:	00000013          	nop
    8060108c:	00000013          	nop
    80601090:	00000013          	nop
    80601094:	00000013          	nop
    80601098:	00000013          	nop
    8060109c:	00000013          	nop
    806010a0:	00000013          	nop
    806010a4:	00000013          	nop
    806010a8:	00000013          	nop
    806010ac:	00000013          	nop
    806010b0:	00000013          	nop
    806010b4:	00000013          	nop
    806010b8:	00000013          	nop
    806010bc:	00000013          	nop
    806010c0:	00000013          	nop
    806010c4:	00000013          	nop
    806010c8:	00000013          	nop
    806010cc:	00000013          	nop
    806010d0:	00000013          	nop
    806010d4:	00000013          	nop
    806010d8:	00000013          	nop
    806010dc:	00000013          	nop
    806010e0:	00000013          	nop
    806010e4:	00000013          	nop
    806010e8:	00000013          	nop
    806010ec:	00000013          	nop
    806010f0:	00000013          	nop
    806010f4:	00000013          	nop
    806010f8:	00000013          	nop
    806010fc:	00000013          	nop

0000000080601100 <fn1.entry>:
    80601100:	d21c8453          	fcvt.d.wu	fs0,s9

0000000080601104 <fn1.entry.l1>:
    80601104:	01bc1d9b          	slliw	s11,s8,0x1b

0000000080601108 <fn1.entry.l2>:
    80601108:	189303d3          	fdiv.s	ft7,ft6,fs1,rne

000000008060110c <fn1.entry.l3>:
    8060110c:	285483d3          	fmin.s	ft7,fs1,ft5

0000000080601110 <fn1.entry.l4>:
    80601110:	c2337cd3          	fcvt.lu.d	s9,ft6

0000000080601114 <fn1.entry.l5>:
    80601114:	00008067          	ret

0000000080601118 <fn1.exit>:
    80601118:	018d5cb3          	srl	s9,s10,s8

000000008060111c <fn2.entry.l1>:
    8060111c:	c212fdd3          	fcvt.wu.d	s11,ft5

0000000080601120 <fn2.entry.l2>:
    80601120:	1a7322d3          	fdiv.d	ft5,ft6,ft7,rdn

0000000080601124 <fn2.entry.l3>:
    80601124:	c004fcd3          	fcvt.w.s	s9,fs1

0000000080601128 <fn2.entry.l4>:
    80601128:	a0539cd3          	flt.s	s9,ft7,ft5

000000008060112c <fn2.entry.l5>:
    8060112c:	226493d3          	fsgnjn.d	ft7,fs1,ft6

0000000080601130 <fn2.entry.l6>:
    80601130:	00008067          	ret

0000000080601134 <fn2.exit>:
    80601134:	0000100f          	fence.i

0000000080601138 <fn3.entry.l1>:
    80601138:	0000100f          	fence.i

000000008060113c <fn3.entry.l2>:
    8060113c:	002d7b93          	andi	s7,s10,2

0000000080601140 <fn3.entry.l3>:
    80601140:	f20b8453          	fmv.d.x	fs0,s7

0000000080601144 <fn3.entry.l4>:
    80601144:	01ac7bb3          	and	s7,s8,s10

0000000080601148 <fn3.entry.l5>:
    80601148:	1a7434d3          	fdiv.d	fs1,fs0,ft7,rup

000000008060114c <fn3.entry.l6>:
    8060114c:	a0748cd3          	fle.s	s9,fs1,ft7

0000000080601150 <fn3.entry.l7>:
    80601150:	00008067          	ret

0000000080601154 <fn3.exit>:
    80601154:	03acebbb          	remw	s7,s9,s10

0000000080601158 <fn4.entry.l1>:
    80601158:	01ac4cb3          	xor	s9,s8,s10

000000008060115c <fn4.entry.l2>:
    8060115c:	c034fbd3          	fcvt.lu.s	s7,fs1

0000000080601160 <fn4.entry.l3>:
    80601160:	0ff0000f          	fence

0000000080601164 <fn4.entry.l4>:
    80601164:	038ccbbb          	divw	s7,s9,s8

0000000080601168 <fn4.entry.l5>:
    80601168:	00008067          	ret

000000008060116c <fn4.exit>:
	...

Disassembly of section .text.receive:

0000000080800000 <receive>:
    80800000:	00000073          	ecall
