
/root/specdoctor/Fuzzer/specdoctor/.t3_input_0.riscv:     file format elf64-littleriscv


Disassembly of section .text:

0000000080000000 <_start>:
    80000000:	0600006f          	j	80000060 <handle_reset>

0000000080000004 <nmi_vector>:
    80000004:	0000006f          	j	80000004 <nmi_vector>

0000000080000008 <mtvec_handler>:
    80000008:	00100513          	li	a0,1
    8000000c:	03f51513          	slli	a0,a0,0x3f
    80000010:	00b50513          	addi	a0,a0,11
    80000014:	342022f3          	csrr	t0,mcause
    80000018:	00551463          	bne	a0,t0,80000020 <mtvec_handler+0x18>
    8000001c:	3440006f          	j	80000360 <xcpt>
    80000020:	00300193          	li	gp,3
    80000024:	00005517          	auipc	a0,0x5
    80000028:	fdc50513          	addi	a0,a0,-36 # 80005000 <tohost>
    8000002c:	00000013          	nop
    80000030:	00353023          	sd	gp,0(a0)
    80000034:	ffdff06f          	j	80000030 <mtvec_handler+0x28>

0000000080000038 <stvec_handler>:
    80000038:	00800513          	li	a0,8
    8000003c:	142022f3          	csrr	t0,scause
    80000040:	00100193          	li	gp,1
    80000044:	00550463          	beq	a0,t0,8000004c <stvec_handler+0x14>
    80000048:	00300193          	li	gp,3
    8000004c:	00005517          	auipc	a0,0x5
    80000050:	fb450513          	addi	a0,a0,-76 # 80005000 <tohost>
    80000054:	00000013          	nop
    80000058:	00353023          	sd	gp,0(a0)
    8000005c:	ffdff06f          	j	80000058 <stvec_handler+0x20>

0000000080000060 <handle_reset>:
    80000060:	3a005073          	csrwi	pmpcfg0,0
    80000064:	30005073          	csrwi	mstatus,0
    80000068:	00000093          	li	ra,0
    8000006c:	00000113          	li	sp,0
    80000070:	00000193          	li	gp,0
    80000074:	00000213          	li	tp,0
    80000078:	00000293          	li	t0,0
    8000007c:	00000313          	li	t1,0
    80000080:	00000393          	li	t2,0
    80000084:	00000413          	li	s0,0
    80000088:	00000493          	li	s1,0
    8000008c:	00000513          	li	a0,0
    80000090:	00000593          	li	a1,0
    80000094:	00000613          	li	a2,0
    80000098:	00000693          	li	a3,0
    8000009c:	00000713          	li	a4,0
    800000a0:	00000793          	li	a5,0
    800000a4:	00000813          	li	a6,0
    800000a8:	00000893          	li	a7,0
    800000ac:	00000913          	li	s2,0
    800000b0:	00000993          	li	s3,0
    800000b4:	00000a13          	li	s4,0
    800000b8:	00000a93          	li	s5,0
    800000bc:	00000b13          	li	s6,0
    800000c0:	00000b93          	li	s7,0
    800000c4:	00000c13          	li	s8,0
    800000c8:	00000c93          	li	s9,0
    800000cc:	00000d13          	li	s10,0
    800000d0:	00000d93          	li	s11,0
    800000d4:	00000e13          	li	t3,0
    800000d8:	00000e93          	li	t4,0
    800000dc:	00000f13          	li	t5,0
    800000e0:	00000f93          	li	t6,0
    800000e4:	00006537          	lui	a0,0x6
    800000e8:	30052073          	csrs	mstatus,a0
    800000ec:	00305073          	csrwi	fcsr,0
    800000f0:	d2207053          	fcvt.d.l	ft0,zero
    800000f4:	d22070d3          	fcvt.d.l	ft1,zero
    800000f8:	d2207153          	fcvt.d.l	ft2,zero
    800000fc:	d22071d3          	fcvt.d.l	ft3,zero
    80000100:	d2207253          	fcvt.d.l	ft4,zero
    80000104:	d22072d3          	fcvt.d.l	ft5,zero
    80000108:	d2207353          	fcvt.d.l	ft6,zero
    8000010c:	d22073d3          	fcvt.d.l	ft7,zero
    80000110:	d2207453          	fcvt.d.l	fs0,zero
    80000114:	d22074d3          	fcvt.d.l	fs1,zero
    80000118:	d2207553          	fcvt.d.l	fa0,zero
    8000011c:	d22075d3          	fcvt.d.l	fa1,zero
    80000120:	d2207653          	fcvt.d.l	fa2,zero
    80000124:	d22076d3          	fcvt.d.l	fa3,zero
    80000128:	d2207753          	fcvt.d.l	fa4,zero
    8000012c:	d22077d3          	fcvt.d.l	fa5,zero
    80000130:	d2207853          	fcvt.d.l	fa6,zero
    80000134:	d22078d3          	fcvt.d.l	fa7,zero
    80000138:	d2207953          	fcvt.d.l	fs2,zero
    8000013c:	d22079d3          	fcvt.d.l	fs3,zero
    80000140:	d2207a53          	fcvt.d.l	fs4,zero
    80000144:	d2207ad3          	fcvt.d.l	fs5,zero
    80000148:	d2207b53          	fcvt.d.l	fs6,zero
    8000014c:	d2207bd3          	fcvt.d.l	fs7,zero
    80000150:	d2207c53          	fcvt.d.l	fs8,zero
    80000154:	d2207cd3          	fcvt.d.l	fs9,zero
    80000158:	d2207d53          	fcvt.d.l	fs10,zero
    8000015c:	d2207dd3          	fcvt.d.l	fs11,zero
    80000160:	d2207e53          	fcvt.d.l	ft8,zero
    80000164:	d2207ed3          	fcvt.d.l	ft9,zero
    80000168:	d2207f53          	fcvt.d.l	ft10,zero
    8000016c:	d2207fd3          	fcvt.d.l	ft11,zero
    80000170:	00000297          	auipc	t0,0x0
    80000174:	e9828293          	addi	t0,t0,-360 # 80000008 <mtvec_handler>
    80000178:	30529073          	csrw	mtvec,t0
    8000017c:	00000297          	auipc	t0,0x0
    80000180:	ebc28293          	addi	t0,t0,-324 # 80000038 <stvec_handler>
    80000184:	10529073          	csrw	stvec,t0
    80000188:	00006117          	auipc	sp,0x6
    8000018c:	f0010113          	addi	sp,sp,-256 # 80006088 <_end+0x1000>
    80000190:	228000ef          	jal	ra,800003b8 <pmp_boot>
    80000194:	2c8000ef          	jal	ra,8000045c <vm_boot>
    80000198:	00100513          	li	a0,1
    8000019c:	30652073          	csrs	mcounteren,a0
    800001a0:	08000513          	li	a0,128
    800001a4:	30052073          	csrs	mstatus,a0
    800001a8:	00001537          	lui	a0,0x1
    800001ac:	8005051b          	addiw	a0,a0,-2048
    800001b0:	30452073          	csrs	mie,a0
    800001b4:	0c000537          	lui	a0,0xc000
    800001b8:	00100293          	li	t0,1
    800001bc:	00552223          	sw	t0,4(a0) # c000004 <_start-0x73fffffc>
    800001c0:	0c002537          	lui	a0,0xc002
    800001c4:	00200293          	li	t0,2
    800001c8:	00552023          	sw	t0,0(a0) # c002000 <_start-0x73ffe000>
    800001cc:	0c200537          	lui	a0,0xc200
    800001d0:	00000293          	li	t0,0
    800001d4:	00552023          	sw	t0,0(a0) # c200000 <_start-0x73e00000>

00000000800001d8 <pfx>:
    800001d8:	3f8b7b13          	andi	s6,s6,1016
    800001dc:	00609997          	auipc	s3,0x609
    800001e0:	e2498993          	addi	s3,s3,-476 # 80609000 <data7>
    800001e4:	013b0b33          	add	s6,s6,s3
    800001e8:	010b3007          	fld	ft0,16(s6)

00000000800001ec <pfx.bb0.l1>:
    800001ec:	3f8a7a13          	andi	s4,s4,1016
    800001f0:	00609a97          	auipc	s5,0x609
    800001f4:	e10a8a93          	addi	s5,s5,-496 # 80609000 <data7>
    800001f8:	015a0a33          	add	s4,s4,s5
    800001fc:	010a3087          	fld	ft1,16(s4)

0000000080000200 <pfx.bb0.l2>:
    80000200:	3f89f993          	andi	s3,s3,1016
    80000204:	00602b17          	auipc	s6,0x602
    80000208:	dfcb0b13          	addi	s6,s6,-516 # 80602000 <data>
    8000020c:	016989b3          	add	s3,s3,s6
    80000210:	0009b107          	fld	ft2,0(s3)

0000000080000214 <pfx.bb0.l3>:
    80000214:	3f8afa93          	andi	s5,s5,1016
    80000218:	00606997          	auipc	s3,0x606
    8000021c:	de898993          	addi	s3,s3,-536 # 80606000 <data4>
    80000220:	013a8ab3          	add	s5,s5,s3
    80000224:	010ab187          	fld	ft3,16(s5)

0000000080000228 <pfx.bb0.l4>:
    80000228:	3f8b7b13          	andi	s6,s6,1016
    8000022c:	00609a17          	auipc	s4,0x609
    80000230:	dd4a0a13          	addi	s4,s4,-556 # 80609000 <data7>
    80000234:	014b0b33          	add	s6,s6,s4
    80000238:	008b3207          	fld	ft4,8(s6)

000000008000023c <pfx.bb0.l5>:
    8000023c:	3f8a7a13          	andi	s4,s4,1016
    80000240:	00609b17          	auipc	s6,0x609
    80000244:	dc0b0b13          	addi	s6,s6,-576 # 80609000 <data7>
    80000248:	016a0a33          	add	s4,s4,s6
    8000024c:	018a3287          	fld	ft5,24(s4)

0000000080000250 <pfx.bb0.l6>:
    80000250:	3f8b7b13          	andi	s6,s6,1016
    80000254:	00602a97          	auipc	s5,0x602
    80000258:	daca8a93          	addi	s5,s5,-596 # 80602000 <data>
    8000025c:	015b0b33          	add	s6,s6,s5
    80000260:	010b3307          	fld	ft6,16(s6)

0000000080000264 <pfx.bb0.l7>:
    80000264:	3f897913          	andi	s2,s2,1016
    80000268:	00605b17          	auipc	s6,0x605
    8000026c:	d98b0b13          	addi	s6,s6,-616 # 80605000 <data3>
    80000270:	01690933          	add	s2,s2,s6
    80000274:	00093387          	fld	ft7,0(s2)

0000000080000278 <pfx.bb0.l8>:
    80000278:	3f8b7b13          	andi	s6,s6,1016
    8000027c:	00608a17          	auipc	s4,0x608
    80000280:	d84a0a13          	addi	s4,s4,-636 # 80608000 <data6>
    80000284:	014b0b33          	add	s6,s6,s4
    80000288:	010b3407          	fld	fs0,16(s6)

000000008000028c <pfx.bb0.l9>:
    8000028c:	3f8b7b13          	andi	s6,s6,1016
    80000290:	00607917          	auipc	s2,0x607
    80000294:	d7090913          	addi	s2,s2,-656 # 80607000 <data5>
    80000298:	012b0b33          	add	s6,s6,s2
    8000029c:	008b3487          	fld	fs1,8(s6)

00000000800002a0 <pfx.bb0.l10>:
    800002a0:	0f100913          	li	s2,241

00000000800002a4 <pfx.bb0.l11>:
    800002a4:	2d100993          	li	s3,721

00000000800002a8 <pfx.bb0.l12>:
    800002a8:	7c200a13          	li	s4,1986

00000000800002ac <pfx.bb0.l13>:
    800002ac:	66a00a93          	li	s5,1642

00000000800002b0 <pfx.bb0.l14>:
    800002b0:	12800b13          	li	s6,296

00000000800002b4 <pfx.bb0.l15>:
    800002b4:	01b00b93          	li	s7,27

00000000800002b8 <pfx.bb0.l16>:
    800002b8:	4df00c13          	li	s8,1247

00000000800002bc <pfx.bb0.l17>:
    800002bc:	79d00c93          	li	s9,1949

00000000800002c0 <pfx.bb0.l18>:
    800002c0:	5cc00d13          	li	s10,1484

00000000800002c4 <pfx.bb0.l19>:
    800002c4:	7b300d93          	li	s11,1971

00000000800002c8 <pfx.exit>:
    800002c8:	00100f13          	li	t5,1
    800002cc:	00002537          	lui	a0,0x2
    800002d0:	8005051b          	addiw	a0,a0,-2048
    800002d4:	30053073          	csrc	mstatus,a0
    800002d8:	00200297          	auipc	t0,0x200
    800002dc:	d2828293          	addi	t0,t0,-728 # 80200000 <pre_attack0>
    800002e0:	34129073          	csrw	mepc,t0
    800002e4:	30200073          	mret

00000000800002e8 <recv_end_m>:
    800002e8:	c0002ef3          	rdcycle	t4
    800002ec:	41ce8e33          	sub	t3,t4,t3
    800002f0:	00005597          	auipc	a1,0x5
    800002f4:	d9058593          	addi	a1,a1,-624 # 80005080 <timing>
    800002f8:	01c5b023          	sd	t3,0(a1)
    800002fc:	00100193          	li	gp,1
    80000300:	00900593          	li	a1,9
    80000304:	342022f3          	csrr	t0,mcause
    80000308:	00558463          	beq	a1,t0,80000310 <recv_end_m+0x28>
    8000030c:	00300193          	li	gp,3
    80000310:	00005517          	auipc	a0,0x5
    80000314:	cf050513          	addi	a0,a0,-784 # 80005000 <tohost>
    80000318:	00000013          	nop
    8000031c:	00353023          	sd	gp,0(a0)
    80000320:	ffdff06f          	j	8000031c <recv_end_m+0x34>

0000000080000324 <recv_end_s>:
    80000324:	c0002ef3          	rdcycle	t4
    80000328:	41ce8e33          	sub	t3,t4,t3
    8000032c:	00005597          	auipc	a1,0x5
    80000330:	d5458593          	addi	a1,a1,-684 # 80005080 <timing>
    80000334:	01c5b023          	sd	t3,0(a1)
    80000338:	00100193          	li	gp,1
    8000033c:	00800593          	li	a1,8
    80000340:	142022f3          	csrr	t0,scause
    80000344:	00558463          	beq	a1,t0,8000034c <recv_end_s+0x28>
    80000348:	00300193          	li	gp,3
    8000034c:	00005517          	auipc	a0,0x5
    80000350:	cb450513          	addi	a0,a0,-844 # 80005000 <tohost>
    80000354:	00000013          	nop
    80000358:	00353023          	sd	gp,0(a0)
    8000035c:	ffdff06f          	j	80000358 <recv_end_s+0x34>

0000000080000360 <xcpt>:
    80000360:	08000513          	li	a0,128
    80000364:	30053073          	csrc	mstatus,a0
    80000368:	00001537          	lui	a0,0x1
    8000036c:	8005051b          	addiw	a0,a0,-2048
    80000370:	30453073          	csrc	mie,a0
    80000374:	00000517          	auipc	a0,0x0
    80000378:	f7450513          	addi	a0,a0,-140 # 800002e8 <recv_end_m>
    8000037c:	30551073          	csrw	mtvec,a0
    80000380:	00000517          	auipc	a0,0x0
    80000384:	fa450513          	addi	a0,a0,-92 # 80000324 <recv_end_s>
    80000388:	10551073          	csrw	stvec,a0
    8000038c:	0c002537          	lui	a0,0xc002
    80000390:	00000293          	li	t0,0
    80000394:	00552023          	sw	t0,0(a0) # c002000 <_start-0x73ffe000>
    80000398:	c0002e73          	rdcycle	t3
    8000039c:	00002537          	lui	a0,0x2
    800003a0:	8005051b          	addiw	a0,a0,-2048
    800003a4:	30053073          	csrc	mstatus,a0
    800003a8:	00800297          	auipc	t0,0x800
    800003ac:	c5828293          	addi	t0,t0,-936 # 80800000 <receive>
    800003b0:	34129073          	csrw	mepc,t0
    800003b4:	30200073          	mret

00000000800003b8 <pmp_boot>:
    800003b8:	fe010113          	addi	sp,sp,-32
    800003bc:	00813c23          	sd	s0,24(sp)
    800003c0:	02010413          	addi	s0,sp,32
    800003c4:	01f00793          	li	a5,31
    800003c8:	fef43423          	sd	a5,-24(s0)
    800003cc:	fff00793          	li	a5,-1
    800003d0:	00b7d793          	srli	a5,a5,0xb
    800003d4:	fef43023          	sd	a5,-32(s0)
    800003d8:	fe843783          	ld	a5,-24(s0)
    800003dc:	fe043703          	ld	a4,-32(s0)
    800003e0:	00000297          	auipc	t0,0x0
    800003e4:	01c28293          	addi	t0,t0,28 # 800003fc <pmp_boot+0x44>
    800003e8:	305292f3          	csrrw	t0,mtvec,t0
    800003ec:	3b771073          	csrw	pmpaddr7,a4
    800003f0:	00078513          	mv	a0,a5
    800003f4:	03851513          	slli	a0,a0,0x38
    800003f8:	3a051073          	csrw	pmpcfg0,a0
    800003fc:	30529073          	csrw	mtvec,t0
    80000400:	00000013          	nop
    80000404:	01813403          	ld	s0,24(sp)
    80000408:	02010113          	addi	sp,sp,32
    8000040c:	00008067          	ret

0000000080000410 <lfsr63>:
    80000410:	fd010113          	addi	sp,sp,-48
    80000414:	02813423          	sd	s0,40(sp)
    80000418:	03010413          	addi	s0,sp,48
    8000041c:	fca43c23          	sd	a0,-40(s0)
    80000420:	fd843783          	ld	a5,-40(s0)
    80000424:	0017d713          	srli	a4,a5,0x1
    80000428:	fd843783          	ld	a5,-40(s0)
    8000042c:	00f747b3          	xor	a5,a4,a5
    80000430:	0017f793          	andi	a5,a5,1
    80000434:	fef43423          	sd	a5,-24(s0)
    80000438:	fd843783          	ld	a5,-40(s0)
    8000043c:	0017d713          	srli	a4,a5,0x1
    80000440:	fe843783          	ld	a5,-24(s0)
    80000444:	03e79793          	slli	a5,a5,0x3e
    80000448:	00f767b3          	or	a5,a4,a5
    8000044c:	00078513          	mv	a0,a5
    80000450:	02813403          	ld	s0,40(sp)
    80000454:	03010113          	addi	sp,sp,48
    80000458:	00008067          	ret

000000008000045c <vm_boot>:
    8000045c:	fd010113          	addi	sp,sp,-48
    80000460:	02113423          	sd	ra,40(sp)
    80000464:	02813023          	sd	s0,32(sp)
    80000468:	03010413          	addi	s0,sp,48
    8000046c:	00002797          	auipc	a5,0x2
    80000470:	b9478793          	addi	a5,a5,-1132 # 80002000 <pt+0x1000>
    80000474:	00c7d793          	srli	a5,a5,0xc
    80000478:	00a79793          	slli	a5,a5,0xa
    8000047c:	0017e713          	ori	a4,a5,1
    80000480:	00001797          	auipc	a5,0x1
    80000484:	b8078793          	addi	a5,a5,-1152 # 80001000 <pt>
    80000488:	00e7b823          	sd	a4,16(a5)
    8000048c:	00001717          	auipc	a4,0x1
    80000490:	b7470713          	addi	a4,a4,-1164 # 80001000 <pt>
    80000494:	000017b7          	lui	a5,0x1
    80000498:	00f707b3          	add	a5,a4,a5
    8000049c:	20000737          	lui	a4,0x20000
    800004a0:	0cf70713          	addi	a4,a4,207 # 200000cf <_start-0x5fffff31>
    800004a4:	00e7b023          	sd	a4,0(a5) # 1000 <_start-0x7ffff000>
    800004a8:	00200797          	auipc	a5,0x200
    800004ac:	b5878793          	addi	a5,a5,-1192 # 80200000 <pre_attack0>
    800004b0:	00c7d793          	srli	a5,a5,0xc
    800004b4:	00a79713          	slli	a4,a5,0xa
    800004b8:	00200797          	auipc	a5,0x200
    800004bc:	b4878793          	addi	a5,a5,-1208 # 80200000 <pre_attack0>
    800004c0:	0157d793          	srli	a5,a5,0x15
    800004c4:	1ff7f793          	andi	a5,a5,511
    800004c8:	0db76713          	ori	a4,a4,219
    800004cc:	00001697          	auipc	a3,0x1
    800004d0:	b3468693          	addi	a3,a3,-1228 # 80001000 <pt>
    800004d4:	20078793          	addi	a5,a5,512
    800004d8:	00379793          	slli	a5,a5,0x3
    800004dc:	00f687b3          	add	a5,a3,a5
    800004e0:	00e7b023          	sd	a4,0(a5)
    800004e4:	00400797          	auipc	a5,0x400
    800004e8:	b1c78793          	addi	a5,a5,-1252 # 80400000 <pre_attack1>
    800004ec:	00c7d793          	srli	a5,a5,0xc
    800004f0:	00a79713          	slli	a4,a5,0xa
    800004f4:	00400797          	auipc	a5,0x400
    800004f8:	b0c78793          	addi	a5,a5,-1268 # 80400000 <pre_attack1>
    800004fc:	0157d793          	srli	a5,a5,0x15
    80000500:	1ff7f793          	andi	a5,a5,511
    80000504:	0db76713          	ori	a4,a4,219
    80000508:	00001697          	auipc	a3,0x1
    8000050c:	af868693          	addi	a3,a3,-1288 # 80001000 <pt>
    80000510:	20078793          	addi	a5,a5,512
    80000514:	00379793          	slli	a5,a5,0x3
    80000518:	00f687b3          	add	a5,a3,a5
    8000051c:	00e7b023          	sd	a4,0(a5)
    80000520:	00003797          	auipc	a5,0x3
    80000524:	ae078793          	addi	a5,a5,-1312 # 80003000 <pt+0x2000>
    80000528:	00c7d793          	srli	a5,a5,0xc
    8000052c:	00a79713          	slli	a4,a5,0xa
    80000530:	00600797          	auipc	a5,0x600
    80000534:	ad078793          	addi	a5,a5,-1328 # 80600000 <attack>
    80000538:	0157d793          	srli	a5,a5,0x15
    8000053c:	1ff7f793          	andi	a5,a5,511
    80000540:	00176713          	ori	a4,a4,1
    80000544:	00001697          	auipc	a3,0x1
    80000548:	abc68693          	addi	a3,a3,-1348 # 80001000 <pt>
    8000054c:	20078793          	addi	a5,a5,512
    80000550:	00379793          	slli	a5,a5,0x3
    80000554:	00f687b3          	add	a5,a3,a5
    80000558:	00e7b023          	sd	a4,0(a5)
    8000055c:	00800797          	auipc	a5,0x800
    80000560:	aa478793          	addi	a5,a5,-1372 # 80800000 <receive>
    80000564:	00c7d793          	srli	a5,a5,0xc
    80000568:	00a79713          	slli	a4,a5,0xa
    8000056c:	00800797          	auipc	a5,0x800
    80000570:	a9478793          	addi	a5,a5,-1388 # 80800000 <receive>
    80000574:	0157d793          	srli	a5,a5,0x15
    80000578:	1ff7f793          	andi	a5,a5,511
    8000057c:	0db76713          	ori	a4,a4,219
    80000580:	00001697          	auipc	a3,0x1
    80000584:	a8068693          	addi	a3,a3,-1408 # 80001000 <pt>
    80000588:	20078793          	addi	a5,a5,512
    8000058c:	00379793          	slli	a5,a5,0x3
    80000590:	00f687b3          	add	a5,a3,a5
    80000594:	00e7b023          	sd	a4,0(a5)
    80000598:	00004797          	auipc	a5,0x4
    8000059c:	a6878793          	addi	a5,a5,-1432 # 80004000 <pt+0x3000>
    800005a0:	00c7d793          	srli	a5,a5,0xc
    800005a4:	00a79713          	slli	a4,a5,0xa
    800005a8:	00600697          	auipc	a3,0x600
    800005ac:	a5868693          	addi	a3,a3,-1448 # 80600000 <attack>
    800005b0:	004007b7          	lui	a5,0x400
    800005b4:	00f687b3          	add	a5,a3,a5
    800005b8:	0157d793          	srli	a5,a5,0x15
    800005bc:	1ff7f793          	andi	a5,a5,511
    800005c0:	00176713          	ori	a4,a4,1
    800005c4:	00001697          	auipc	a3,0x1
    800005c8:	a3c68693          	addi	a3,a3,-1476 # 80001000 <pt>
    800005cc:	20078793          	addi	a5,a5,512 # 400200 <_start-0x7fbffe00>
    800005d0:	00379793          	slli	a5,a5,0x3
    800005d4:	00f687b3          	add	a5,a3,a5
    800005d8:	00e7b023          	sd	a4,0(a5)
    800005dc:	00c00797          	auipc	a5,0xc00
    800005e0:	a2478793          	addi	a5,a5,-1500 # 80c00000 <secret>
    800005e4:	00c7d793          	srli	a5,a5,0xc
    800005e8:	00a79713          	slli	a4,a5,0xa
    800005ec:	00c00797          	auipc	a5,0xc00
    800005f0:	a1478793          	addi	a5,a5,-1516 # 80c00000 <secret>
    800005f4:	0157d793          	srli	a5,a5,0x15
    800005f8:	1ff7f793          	andi	a5,a5,511
    800005fc:	0c776713          	ori	a4,a4,199
    80000600:	00001697          	auipc	a3,0x1
    80000604:	a0068693          	addi	a3,a3,-1536 # 80001000 <pt>
    80000608:	20078793          	addi	a5,a5,512
    8000060c:	00379793          	slli	a5,a5,0x3
    80000610:	00f687b3          	add	a5,a3,a5
    80000614:	00e7b023          	sd	a4,0(a5)
    80000618:	2a67f7b7          	lui	a5,0x2a67f
    8000061c:	db878793          	addi	a5,a5,-584 # 2a67edb8 <_start-0x55981248>
    80000620:	fef43423          	sd	a5,-24(s0)
    80000624:	fe843503          	ld	a0,-24(s0)
    80000628:	124000ef          	jal	ra,8000074c <config>
    8000062c:	00800793          	li	a5,8
    80000630:	fef43023          	sd	a5,-32(s0)
    80000634:	fe043783          	ld	a5,-32(s0)
    80000638:	03c79713          	slli	a4,a5,0x3c
    8000063c:	00001797          	auipc	a5,0x1
    80000640:	9c478793          	addi	a5,a5,-1596 # 80001000 <pt>
    80000644:	00c7d793          	srli	a5,a5,0xc
    80000648:	00f767b3          	or	a5,a4,a5
    8000064c:	fcf43c23          	sd	a5,-40(s0)
    80000650:	fd843783          	ld	a5,-40(s0)
    80000654:	18079073          	csrw	satp,a5
    80000658:	0000b7b7          	lui	a5,0xb
    8000065c:	1557879b          	addiw	a5,a5,341
    80000660:	30279073          	csrw	medeleg,a5
    80000664:	12000073          	sfence.vma
    80000668:	00000013          	nop
    8000066c:	02813083          	ld	ra,40(sp)
    80000670:	02013403          	ld	s0,32(sp)
    80000674:	03010113          	addi	sp,sp,48
    80000678:	00008067          	ret

000000008000067c <set_pte_attack>:
    8000067c:	fd010113          	addi	sp,sp,-48
    80000680:	02813423          	sd	s0,40(sp)
    80000684:	03010413          	addi	s0,sp,48
    80000688:	fca43c23          	sd	a0,-40(s0)
    8000068c:	fcb43823          	sd	a1,-48(s0)
    80000690:	fd843783          	ld	a5,-40(s0)
    80000694:	00c7d793          	srli	a5,a5,0xc
    80000698:	1ff7f793          	andi	a5,a5,511
    8000069c:	fef43423          	sd	a5,-24(s0)
    800006a0:	fd843783          	ld	a5,-40(s0)
    800006a4:	00c7d793          	srli	a5,a5,0xc
    800006a8:	00a79713          	slli	a4,a5,0xa
    800006ac:	fd043783          	ld	a5,-48(s0)
    800006b0:	00f76733          	or	a4,a4,a5
    800006b4:	00001697          	auipc	a3,0x1
    800006b8:	94c68693          	addi	a3,a3,-1716 # 80001000 <pt>
    800006bc:	fe843783          	ld	a5,-24(s0)
    800006c0:	40078793          	addi	a5,a5,1024 # b400 <_start-0x7fff4c00>
    800006c4:	00379793          	slli	a5,a5,0x3
    800006c8:	00f687b3          	add	a5,a3,a5
    800006cc:	00e7b023          	sd	a4,0(a5)
    800006d0:	00000013          	nop
    800006d4:	02813403          	ld	s0,40(sp)
    800006d8:	03010113          	addi	sp,sp,48
    800006dc:	00008067          	ret

00000000800006e0 <set_pte_user>:
    800006e0:	fd010113          	addi	sp,sp,-48
    800006e4:	02813423          	sd	s0,40(sp)
    800006e8:	03010413          	addi	s0,sp,48
    800006ec:	fca43c23          	sd	a0,-40(s0)
    800006f0:	fcb43823          	sd	a1,-48(s0)
    800006f4:	fd843703          	ld	a4,-40(s0)
    800006f8:	004007b7          	lui	a5,0x400
    800006fc:	00f707b3          	add	a5,a4,a5
    80000700:	00c7d793          	srli	a5,a5,0xc
    80000704:	1ff7f793          	andi	a5,a5,511
    80000708:	fef43423          	sd	a5,-24(s0)
    8000070c:	fd843783          	ld	a5,-40(s0)
    80000710:	00c7d793          	srli	a5,a5,0xc
    80000714:	00a79713          	slli	a4,a5,0xa
    80000718:	fd043783          	ld	a5,-48(s0)
    8000071c:	00f76733          	or	a4,a4,a5
    80000720:	00001697          	auipc	a3,0x1
    80000724:	8e068693          	addi	a3,a3,-1824 # 80001000 <pt>
    80000728:	fe843783          	ld	a5,-24(s0)
    8000072c:	60078793          	addi	a5,a5,1536 # 400600 <_start-0x7fbffa00>
    80000730:	00379793          	slli	a5,a5,0x3
    80000734:	00f687b3          	add	a5,a3,a5
    80000738:	00e7b023          	sd	a4,0(a5)
    8000073c:	00000013          	nop
    80000740:	02813403          	ld	s0,40(sp)
    80000744:	03010113          	addi	sp,sp,48
    80000748:	00008067          	ret

000000008000074c <config>:
    8000074c:	fd010113          	addi	sp,sp,-48
    80000750:	02113423          	sd	ra,40(sp)
    80000754:	02813023          	sd	s0,32(sp)
    80000758:	03010413          	addi	s0,sp,48
    8000075c:	fca43c23          	sd	a0,-40(s0)
    80000760:	00600797          	auipc	a5,0x600
    80000764:	8a078793          	addi	a5,a5,-1888 # 80600000 <attack>
    80000768:	0df00593          	li	a1,223
    8000076c:	00078513          	mv	a0,a5
    80000770:	f0dff0ef          	jal	ra,8000067c <set_pte_attack>
    80000774:	00601797          	auipc	a5,0x601
    80000778:	88c78793          	addi	a5,a5,-1908 # 80601000 <shared>
    8000077c:	0db00593          	li	a1,219
    80000780:	00078513          	mv	a0,a5
    80000784:	ef9ff0ef          	jal	ra,8000067c <set_pte_attack>
    80000788:	00600797          	auipc	a5,0x600
    8000078c:	87878793          	addi	a5,a5,-1928 # 80600000 <attack>
    80000790:	0df00593          	li	a1,223
    80000794:	00078513          	mv	a0,a5
    80000798:	f49ff0ef          	jal	ra,800006e0 <set_pte_user>
    8000079c:	00601797          	auipc	a5,0x601
    800007a0:	86478793          	addi	a5,a5,-1948 # 80601000 <shared>
    800007a4:	0db00593          	li	a1,219
    800007a8:	00078513          	mv	a0,a5
    800007ac:	f35ff0ef          	jal	ra,800006e0 <set_pte_user>
    800007b0:	fe042623          	sw	zero,-20(s0)
    800007b4:	0580006f          	j	8000080c <config+0xc0>
    800007b8:	0d700793          	li	a5,215
    800007bc:	fef43023          	sd	a5,-32(s0)
    800007c0:	fec42783          	lw	a5,-20(s0)
    800007c4:	00c79713          	slli	a4,a5,0xc
    800007c8:	00602797          	auipc	a5,0x602
    800007cc:	83878793          	addi	a5,a5,-1992 # 80602000 <data>
    800007d0:	00f707b3          	add	a5,a4,a5
    800007d4:	fe043583          	ld	a1,-32(s0)
    800007d8:	00078513          	mv	a0,a5
    800007dc:	ea1ff0ef          	jal	ra,8000067c <set_pte_attack>
    800007e0:	fec42783          	lw	a5,-20(s0)
    800007e4:	00c79713          	slli	a4,a5,0xc
    800007e8:	00602797          	auipc	a5,0x602
    800007ec:	81878793          	addi	a5,a5,-2024 # 80602000 <data>
    800007f0:	00f707b3          	add	a5,a4,a5
    800007f4:	0d700593          	li	a1,215
    800007f8:	00078513          	mv	a0,a5
    800007fc:	ee5ff0ef          	jal	ra,800006e0 <set_pte_user>
    80000800:	fec42783          	lw	a5,-20(s0)
    80000804:	0017879b          	addiw	a5,a5,1
    80000808:	fef42623          	sw	a5,-20(s0)
    8000080c:	fec42783          	lw	a5,-20(s0)
    80000810:	0007871b          	sext.w	a4,a5
    80000814:	00700793          	li	a5,7
    80000818:	fae7d0e3          	bge	a5,a4,800007b8 <config+0x6c>
    8000081c:	00000013          	nop
    80000820:	00000013          	nop
    80000824:	02813083          	ld	ra,40(sp)
    80000828:	02013403          	ld	s0,32(sp)
    8000082c:	03010113          	addi	sp,sp,48
    80000830:	00008067          	ret

Disassembly of section .tohost:

0000000080005000 <tohost>:
	...

0000000080005040 <fromhost>:
	...

0000000080005080 <timing>:
	...

Disassembly of section .text.preattack0:

0000000080200000 <pre_attack0>:
    80200000:	0a41804f          	fnmadd.d	ft0,ft3,ft4,ft1,rne

0000000080200004 <prp0.entry.l1>:
    80200004:	1d7a6a93          	ori	s5,s4,471

0000000080200008 <prp0.entry.l2>:
    80200008:	00401097          	auipc	ra,0x401
    8020000c:	048080e7          	jalr	72(ra) # 80601050 <fn1.exit>

0000000080200010 <prp0.entry.l3>:
    80200010:	0000100f          	fence.i

0000000080200014 <prp0.entry.l4>:
    80200014:	c0127b53          	fcvt.wu.s	s6,ft4

0000000080200018 <prp0.entry.l5>:
    80200018:	00cb1a93          	slli	s5,s6,0xc

000000008020001c <prp0.entry.l6>:
    8020001c:	58024153          	fsqrt.s	ft2,ft4,rmm

0000000080200020 <prp0.entry.l7>:
    80200020:	2a409053          	fmax.d	ft0,ft1,ft4

0000000080200024 <prp0.entry.l8>:
    80200024:	032b69b3          	rem	s3,s6,s2

0000000080200028 <prp0.entry.l9>:
    80200028:	0040096f          	jal	s2,8020002c <prp0.bb0>

000000008020002c <prp0.bb0>:
    8020002c:	e2011b53          	fclass.d	s6,ft2

0000000080200030 <prp0.bb0.l1>:
    80200030:	1220b053          	fmul.d	ft0,ft1,ft2,rup

0000000080200034 <prp0.bb0.l2>:
    80200034:	74092a93          	slti	s5,s2,1856

0000000080200038 <prp0.bb0.l3>:
    80200038:	007a1a9b          	slliw	s5,s4,0x7

000000008020003c <prp0.bb0.l4>:
    8020003c:	1a0220c3          	fmadd.d	ft1,ft4,ft0,ft3,rdn

0000000080200040 <prp0.bb0.l5>:
    80200040:	03696ab3          	rem	s5,s2,s6

0000000080200044 <prp0.bb0.l6>:
    80200044:	d20a0053          	fcvt.d.w	ft0,s4

0000000080200048 <prp0.bb0.l7>:
    80200048:	c0127ad3          	fcvt.wu.s	s5,ft4

000000008020004c <prp0.bb0.l8>:
    8020004c:	055a6863          	bltu	s4,s5,8020009c <pre_attack0_end>

0000000080200050 <prp0.bb1>:
    80200050:	012b39b3          	sltu	s3,s6,s2

0000000080200054 <prp0.bb1.l1>:
    80200054:	182200cb          	fnmsub.s	ft1,ft4,ft2,ft3,rne

0000000080200058 <prp0.bb1.l2>:
    80200058:	1a3030d3          	fdiv.d	ft1,ft0,ft3,rup

000000008020005c <prp0.bb1.l3>:
    8020005c:	2000a153          	fsgnjx.s	ft2,ft1,ft0

0000000080200060 <prp0.bb1.l4>:
    80200060:	015b4a33          	xor	s4,s6,s5

0000000080200064 <prp0.bb1.l5>:
    80200064:	f00b0153          	fmv.w.x	ft2,s6

0000000080200068 <prp0.bb1.l6>:
    80200068:	00401097          	auipc	ra,0x401
    8020006c:	f98080e7          	jalr	-104(ra) # 80601000 <shared>

0000000080200070 <prp0.bb1.l7>:
    80200070:	28320053          	fmin.s	ft0,ft4,ft3

0000000080200074 <prp0.bb1.l8>:
    80200074:	224110d3          	fsgnjn.d	ft1,ft2,ft4

0000000080200078 <prp0.bb1.l9>:
    80200078:	0000a1d3          	fadd.s	ft3,ft1,ft0,rdn

000000008020007c <prp0.bb1.l10>:
    8020007c:	0329d063          	bge	s3,s2,8020009c <pre_attack0_end>

0000000080200080 <prp0.bb2>:
    80200080:	d20a8053          	fcvt.d.w	ft0,s5

0000000080200084 <prp0.bb2.l1>:
    80200084:	03397b33          	remu	s6,s2,s3

0000000080200088 <prp0.bb2.l2>:
    80200088:	013b5ab3          	srl	s5,s6,s3

000000008020008c <prp0.bb2.l3>:
    8020008c:	22301153          	fsgnjn.d	ft2,ft0,ft3

0000000080200090 <prp0.bb2.l4>:
    80200090:	034af9b3          	remu	s3,s5,s4

0000000080200094 <prp0.bb2.l5>:
    80200094:	f20a80d3          	fmv.d.x	ft1,s5

0000000080200098 <prp0.bb2.l6>:
    80200098:	012b1263          	bne	s6,s2,8020009c <pre_attack0_end>

000000008020009c <pre_attack0_end>:
    8020009c:	00200097          	auipc	ra,0x200
    802000a0:	f64080e7          	jalr	-156(ra) # 80400000 <pre_attack1>

Disassembly of section .text.preattack1:

0000000080400000 <pre_attack1>:
    80400000:	a0418b53          	fle.s	s6,ft3,ft4

0000000080400004 <prp1.entry.l1>:
    80400004:	a2020ad3          	fle.d	s5,ft4,ft0

0000000080400008 <prp1.entry.l2>:
    80400008:	223130cf          	fnmadd.d	ft1,ft2,ft3,ft4,rup

000000008040000c <prp1.entry.l3>:
    8040000c:	00201097          	auipc	ra,0x201
    80400010:	080080e7          	jalr	128(ra) # 8060108c <fn3.exit>

0000000080400014 <prp1.entry.l4>:
    80400014:	d02af1d3          	fcvt.s.l	ft3,s5

0000000080400018 <prp1.entry.l5>:
    80400018:	20310253          	fsgnj.s	ft4,ft2,ft3

000000008040001c <prp1.entry.l6>:
    8040001c:	05390a93          	addi	s5,s2,83

0000000080400020 <prp1.entry.l7>:
    80400020:	015b5263          	bge	s6,s5,80400024 <prp1.bb0>

0000000080400024 <prp1.bb0>:
    80400024:	033b6ab3          	rem	s5,s6,s3

0000000080400028 <prp1.bb0.l1>:
    80400028:	0329fa3b          	remuw	s4,s3,s2

000000008040002c <prp1.bb0.l2>:
    8040002c:	01599933          	sll	s2,s3,s5

0000000080400030 <prp1.bb0.l3>:
    80400030:	0ff0000f          	fence

0000000080400034 <prp1.bb0.l4>:
    80400034:	0129da33          	srl	s4,s3,s2

0000000080400038 <prp1.bb0.l5>:
    80400038:	024170cb          	fnmsub.d	ft1,ft2,ft4,ft0

000000008040003c <prp1.bb0.l6>:
    8040003c:	00201097          	auipc	ra,0x201
    80400040:	014080e7          	jalr	20(ra) # 80601050 <fn1.exit>

0000000080400044 <prp1.bb0.l7>:
    80400044:	054b4e63          	blt	s6,s4,804000a0 <prp1.bb3>

0000000080400048 <prp1.bb1>:
    80400048:	0ff0000f          	fence

000000008040004c <prp1.bb1.l1>:
    8040004c:	052afa63          	bgeu	s5,s2,804000a0 <prp1.bb3>

0000000080400050 <prp1.bb1.l2>:
    80400050:	540a3b13          	sltiu	s6,s4,1344

0000000080400054 <prp1.bb1.l3>:
    80400054:	036a1063          	bne	s4,s6,80400074 <prp1.bb2>

0000000080400058 <prp1.bb1.l4>:
    80400058:	00201097          	auipc	ra,0x201
    8040005c:	ff8080e7          	jalr	-8(ra) # 80601050 <fn1.exit>

0000000080400060 <prp1.bb1.l5>:
    80400060:	00201097          	auipc	ra,0x201
    80400064:	ff0080e7          	jalr	-16(ra) # 80601050 <fn1.exit>

0000000080400068 <prp1.bb1.l6>:
    80400068:	1619aa13          	slti	s4,s3,353

000000008040006c <prp1.bb1.l7>:
    8040006c:	014b7933          	and	s2,s6,s4

0000000080400070 <prp1.bb1.l8>:
    80400070:	015a0263          	beq	s4,s5,80400074 <prp1.bb2>

0000000080400074 <prp1.bb2>:
    80400074:	00201097          	auipc	ra,0x201
    80400078:	018080e7          	jalr	24(ra) # 8060108c <fn3.exit>

000000008040007c <prp1.bb2.l1>:
    8040007c:	203000c7          	fmsub.s	ft1,ft0,ft3,ft4,rne

0000000080400080 <prp1.bb2.l2>:
    80400080:	00201097          	auipc	ra,0x201
    80400084:	f80080e7          	jalr	-128(ra) # 80601000 <shared>

0000000080400088 <prp1.bb2.l3>:
    80400088:	2a4010d3          	fmax.d	ft1,ft0,ft4

000000008040008c <prp1.bb2.l4>:
    8040008c:	023130cb          	fnmsub.d	ft1,ft2,ft3,ft0,rup

0000000080400090 <prp1.bb2.l5>:
    80400090:	42020253          	fcvt.d.s	ft4,ft4

0000000080400094 <prp1.bb2.l6>:
    80400094:	074af463          	bgeu	s5,s4,804000fc <pre_attack1_end>

0000000080400098 <prp1.bb2.l7>:
    80400098:	d23b7053          	fcvt.d.lu	ft0,s6

000000008040009c <prp1.bb2.l8>:
    8040009c:	0040096f          	jal	s2,804000a0 <prp1.bb3>

00000000804000a0 <prp1.bb3>:
    804000a0:	4c59099b          	addiw	s3,s2,1221

00000000804000a4 <prp1.bb3.l1>:
    804000a4:	000121d3          	fadd.s	ft3,ft2,ft0,rdn

00000000804000a8 <prp1.bb3.l2>:
    804000a8:	00201097          	auipc	ra,0x201
    804000ac:	f7c080e7          	jalr	-132(ra) # 80601024 <fn0.exit>

00000000804000b0 <prp1.bb3.l3>:
    804000b0:	03595063          	bge	s2,s5,804000d0 <prp1.bb4>

00000000804000b4 <prp1.bb3.l4>:
    804000b4:	473b4a93          	xori	s5,s6,1139

00000000804000b8 <prp1.bb3.l5>:
    804000b8:	098b2a93          	slti	s5,s6,152

00000000804000bc <prp1.bb3.l6>:
    804000bc:	1a413053          	fdiv.d	ft0,ft2,ft4,rup

00000000804000c0 <prp1.bb3.l7>:
    804000c0:	5c293a13          	sltiu	s4,s2,1474

00000000804000c4 <prp1.bb3.l8>:
    804000c4:	2011a253          	fsgnjx.s	ft4,ft3,ft1

00000000804000c8 <prp1.bb3.l9>:
    804000c8:	20308153          	fsgnj.s	ft2,ft1,ft3

00000000804000cc <prp1.bb3.l10>:
    804000cc:	0149e263          	bltu	s3,s4,804000d0 <prp1.bb4>

00000000804000d0 <prp1.bb4>:
    804000d0:	032a49b3          	div	s3,s4,s2

00000000804000d4 <prp1.bb4.l1>:
    804000d4:	00201097          	auipc	ra,0x201
    804000d8:	f50080e7          	jalr	-176(ra) # 80601024 <fn0.exit>

00000000804000dc <prp1.bb4.l2>:
    804000dc:	035b4063          	blt	s6,s5,804000fc <pre_attack1_end>

00000000804000e0 <prp1.bb4.l3>:
    804000e0:	035b5a3b          	divuw	s4,s6,s5

00000000804000e4 <prp1.bb4.l4>:
    804000e4:	f2090253          	fmv.d.x	ft4,s2

00000000804000e8 <prp1.bb4.l5>:
    804000e8:	d2098153          	fcvt.d.w	ft2,s3

00000000804000ec <prp1.bb4.l6>:
    804000ec:	00201097          	auipc	ra,0x201
    804000f0:	f80080e7          	jalr	-128(ra) # 8060106c <fn2.exit>

00000000804000f4 <prp1.bb4.l7>:
    804000f4:	004040d3          	fadd.s	ft1,ft0,ft4,rmm

00000000804000f8 <prp1.bb4.l8>:
    804000f8:	00400aef          	jal	s5,804000fc <pre_attack1_end>

00000000804000fc <pre_attack1_end>:
    804000fc:	00200097          	auipc	ra,0x200
    80400100:	f04080e7          	jalr	-252(ra) # 80600000 <attack>

Disassembly of section .text.attack:

0000000080600000 <attack>:
    80600000:	035b2a33          	mulhsu	s4,s6,s5

0000000080600004 <tc.entry.l1>:
    80600004:	28410053          	fmin.s	ft0,ft2,ft4

0000000080600008 <tc.entry.l2>:
    80600008:	0349ec63          	bltu	s3,s4,80600040 <tc.bb0>
    8060000c:	0ff0000f          	fence
    80600010:	00000517          	auipc	a0,0x0
    80600014:	2f050513          	addi	a0,a0,752 # 80600300 <spdoc>
    80600018:	00100293          	li	t0,1
    8060001c:	00553023          	sd	t0,0(a0)
    80600020:	0000006f          	j	80600020 <tc.entry.l2+0x18>

0000000080600024 <tc.entry.l3>:
    80600024:	0169c933          	xor	s2,s3,s6

0000000080600028 <tc.entry.l4>:
    80600028:	3f8b7b13          	andi	s6,s6,1016
    8060002c:	00007a97          	auipc	s5,0x7
    80600030:	fd4a8a93          	addi	s5,s5,-44 # 80607000 <data5>
    80600034:	015b0b33          	add	s6,s6,s5
    80600038:	814b292f          	amomin.w	s2,s4,(s6)

000000008060003c <tc.entry.l5>:
    8060003c:	215b4a63          	blt	s6,s5,80600250 <tc.bb1>

0000000080600040 <tc.bb0>:
    80600040:	28730453          	fmin.s	fs0,ft6,ft7

0000000080600044 <tsx.entry.l1>:
    80600044:	3f8cfc93          	andi	s9,s9,1016
    80600048:	00003d97          	auipc	s11,0x3
    8060004c:	fb8d8d93          	addi	s11,s11,-72 # 80603000 <data1>
    80600050:	01bc8cb3          	add	s9,s9,s11
    80600054:	01acbc2f          	amoadd.d	s8,s10,(s9)

0000000080600058 <tsx.entry.l2>:
    80600058:	1a7444d3          	fdiv.d	fs1,fs0,ft7,rmm

000000008060005c <tsx.entry.l3>:
    8060005c:	220d6b93          	ori	s7,s10,544

0000000080600060 <tsx.entry.l4>:
    80600060:	7c5000ef          	jal	ra,80601024 <fn0.exit>

0000000080600064 <tsx.entry.l5>:
    80600064:	3f8bfb93          	andi	s7,s7,1016
    80600068:	00006c17          	auipc	s8,0x6
    8060006c:	f98c0c13          	addi	s8,s8,-104 # 80606000 <data4>
    80600070:	018b8bb3          	add	s7,s7,s8
    80600074:	01abbdaf          	amoadd.d	s11,s10,(s7)

0000000080600078 <tsx.entry.l6>:
    80600078:	20540353          	fsgnj.s	ft6,fs0,ft5

000000008060007c <tsx.entry.l7>:
    8060007c:	07abfa63          	bgeu	s7,s10,806000f0 <tsx.bb2>

0000000080600080 <tsx.bb0>:
    80600080:	004c9b9b          	slliw	s7,s9,0x4

0000000080600084 <tsx.bb0.l1>:
    80600084:	2282a353          	fsgnjx.d	ft6,ft5,fs0

0000000080600088 <tsx.bb0.l2>:
    80600088:	00fddc9b          	srliw	s9,s11,0xf

000000008060008c <tsx.bb0.l3>:
    8060008c:	7e1000ef          	jal	ra,8060106c <fn2.exit>

0000000080600090 <tsx.bb0.l4>:
    80600090:	a0729dd3          	flt.s	s11,ft5,ft7

0000000080600094 <tsx.bb0.l5>:
    80600094:	5804f353          	fsqrt.s	ft6,fs1

0000000080600098 <tsx.bb0.l6>:
    80600098:	05800c6f          	jal	s8,806000f0 <tsx.bb2>

000000008060009c <tsx.bb1>:
    8060009c:	3f8dfd93          	andi	s11,s11,1016
    806000a0:	00002c97          	auipc	s9,0x2
    806000a4:	f60c8c93          	addi	s9,s9,-160 # 80602000 <data>
    806000a8:	019d8db3          	add	s11,s11,s9
    806000ac:	417dbc2f          	amoor.d	s8,s7,(s11)

00000000806000b0 <tsx.bb1.l1>:
    806000b0:	386294cf          	fnmadd.s	fs1,ft5,ft6,ft7,rtz

00000000806000b4 <tsx.bb1.l2>:
    806000b4:	2a74734b          	fnmsub.d	ft6,fs0,ft7,ft5

00000000806000b8 <tsx.bb1.l3>:
    806000b8:	3f8d7d13          	andi	s10,s10,1016
    806000bc:	00005c97          	auipc	s9,0x5
    806000c0:	f44c8c93          	addi	s9,s9,-188 # 80605000 <data3>
    806000c4:	019d0d33          	add	s10,s10,s9
    806000c8:	100d3c2f          	lr.d	s8,(s10)

00000000806000cc <tsx.bb1.l4>:
    806000cc:	7a1000ef          	jal	ra,8060106c <fn2.exit>

00000000806000d0 <tsx.bb1.l5>:
    806000d0:	781000ef          	jal	ra,80601050 <fn1.exit>

00000000806000d4 <tsx.bb1.l6>:
    806000d4:	3f8c7c13          	andi	s8,s8,1016
    806000d8:	00003b97          	auipc	s7,0x3
    806000dc:	f28b8b93          	addi	s7,s7,-216 # 80603000 <data1>
    806000e0:	017c0c33          	add	s8,s8,s7
    806000e4:	19bc2d2f          	sc.w	s10,s11,(s8)

00000000806000e8 <tsx.bb1.l7>:
    806000e8:	2253a353          	fsgnjx.d	ft6,ft7,ft5

00000000806000ec <tsx.bb1.l8>:
    806000ec:	01bbe263          	bltu	s7,s11,806000f0 <tsx.bb2>

00000000806000f0 <tsx.bb2>:
    806000f0:	3f8cfc93          	andi	s9,s9,1016
    806000f4:	00006b97          	auipc	s7,0x6
    806000f8:	f0cb8b93          	addi	s7,s7,-244 # 80606000 <data4>
    806000fc:	017c8cb3          	add	s9,s9,s7
    80600100:	012c9c03          	lh	s8,18(s9)

0000000080600104 <tsx.bb2.l1>:
    80600104:	3f8cfc93          	andi	s9,s9,1016
    80600108:	00009d17          	auipc	s10,0x9
    8060010c:	ef8d0d13          	addi	s10,s10,-264 # 80609000 <data7>
    80600110:	01ac8cb3          	add	s9,s9,s10
    80600114:	e1bcbbaf          	amomaxu.d	s7,s11,(s9)

0000000080600118 <tsx.bb2.l2>:
    80600118:	00dd3db7          	lui	s11,0xdd3

000000008060011c <tsx.bb2.l3>:
    8060011c:	41abdc1b          	sraiw	s8,s7,0x1a

0000000080600120 <tsx.bb2.l4>:
    80600120:	c033fd53          	fcvt.lu.s	s10,ft7

0000000080600124 <tsx.bb2.l5>:
    80600124:	769000ef          	jal	ra,8060108c <fn3.exit>

0000000080600128 <tsx.bb2.l6>:
    80600128:	3f8cfc93          	andi	s9,s9,1016
    8060012c:	00002d97          	auipc	s11,0x2
    80600130:	ed4d8d93          	addi	s11,s11,-300 # 80602000 <data>
    80600134:	01bc8cb3          	add	s9,s9,s11
    80600138:	618cbd2f          	amoand.d	s10,s8,(s9)

000000008060013c <tsx.bb2.l7>:
    8060013c:	00000b97          	auipc	s7,0x0
    80600140:	0c4b8b93          	addi	s7,s7,196 # 80600200 <tsx.bb3>
    80600144:	000b8c67          	jalr	s8,s7
    80600148:	00000013          	nop
    8060014c:	00000013          	nop
    80600150:	00000013          	nop
    80600154:	00000013          	nop
    80600158:	00000013          	nop
    8060015c:	00000013          	nop
    80600160:	00000013          	nop
    80600164:	00000013          	nop
    80600168:	00000013          	nop
    8060016c:	00000013          	nop
    80600170:	00000013          	nop
    80600174:	00000013          	nop
    80600178:	00000013          	nop
    8060017c:	00000013          	nop
    80600180:	00000013          	nop
    80600184:	00000013          	nop
    80600188:	00000013          	nop
    8060018c:	00000013          	nop
    80600190:	00000013          	nop
    80600194:	00000013          	nop
    80600198:	00000013          	nop
    8060019c:	00000013          	nop
    806001a0:	00000013          	nop
    806001a4:	00000013          	nop
    806001a8:	00000013          	nop
    806001ac:	00000013          	nop
    806001b0:	00000013          	nop
    806001b4:	00000013          	nop
    806001b8:	00000013          	nop
    806001bc:	00000013          	nop
    806001c0:	00000013          	nop
    806001c4:	00000013          	nop
    806001c8:	00000013          	nop
    806001cc:	00000013          	nop
    806001d0:	00000013          	nop
    806001d4:	00000013          	nop
    806001d8:	00000013          	nop
    806001dc:	00000013          	nop
    806001e0:	00000013          	nop
    806001e4:	00000013          	nop
    806001e8:	00000013          	nop
    806001ec:	00000013          	nop
    806001f0:	00000013          	nop
    806001f4:	00000013          	nop
    806001f8:	00000013          	nop
    806001fc:	00000013          	nop

0000000080600200 <tsx.bb3>:
    80600200:	207492d3          	fsgnjn.s	ft5,fs1,ft7

0000000080600204 <tsx.bb3.l1>:
    80600204:	417d8cb3          	sub	s9,s11,s7

0000000080600208 <tsx.bb3.l2>:
    80600208:	019bfdb3          	and	s11,s7,s9

000000008060020c <tsx.bb3.l3>:
    8060020c:	d23cf453          	fcvt.d.lu	fs0,s9

0000000080600210 <tsx.bb3.l4>:
    80600210:	039d4bb3          	div	s7,s10,s9

0000000080600214 <tsx.bb3.l5>:
    80600214:	03bc7cbb          	remuw	s9,s8,s11

0000000080600218 <tsx.bb3.l6>:
    80600218:	d21c02d3          	fcvt.d.wu	ft5,s8

000000008060021c <tsx.bb3.l7>:
    8060021c:	1854a353          	fdiv.s	ft6,fs1,ft5,rdn

0000000080600220 <tsx.bb3.l8>:
    80600220:	013d9b9b          	slliw	s7,s11,0x13

0000000080600224 <tsx.bb3.l9>:
    80600224:	0a933453          	fsub.d	fs0,ft6,fs1,rup

0000000080600228 <tsx.bb3.l10>:
    80600228:	019df263          	bgeu	s11,s9,8060022c <tc.bb0.l0>

000000008060022c <tc.bb0.l0>:
    8060022c:	0349eb3b          	remw	s6,s3,s4

0000000080600230 <tc.bb0.l1>:
    80600230:	016a59b3          	srl	s3,s4,s6

0000000080600234 <tc.bb0.l2>:
    80600234:	5f1000ef          	jal	ra,80601024 <fn0.exit>

0000000080600238 <tc.bb0.l3>:
    80600238:	a2119ad3          	flt.d	s5,ft3,ft1

000000008060023c <tc.bb0.l4>:
    8060023c:	615000ef          	jal	ra,80601050 <fn1.exit>

0000000080600240 <tc.bb0.l5>:
    80600240:	c030fad3          	fcvt.lu.s	s5,ft1

0000000080600244 <tc.bb0.l6>:
    80600244:	016a6663          	bltu	s4,s6,80600250 <tc.bb1>

0000000080600248 <tc.bb0.l7>:
    80600248:	2211c04b          	fnmsub.d	ft0,ft3,ft1,ft4,rmm

000000008060024c <tc.bb0.l8>:
    8060024c:	0b69d263          	bge	s3,s6,806002f0 <attack_end>

0000000080600250 <tc.bb1>:
    80600250:	1820b1d3          	fdiv.s	ft3,ft1,ft2,rup

0000000080600254 <tc.bb1.l1>:
    80600254:	5fd000ef          	jal	ra,80601050 <fn1.exit>

0000000080600258 <tc.bb1.l2>:
    80600258:	630a8b1b          	addiw	s6,s5,1584

000000008060025c <tc.bb1.l3>:
    8060025c:	100091c7          	fmsub.s	ft3,ft1,ft0,ft2,rtz

0000000080600260 <tc.bb1.l4>:
    80600260:	3f8a7a13          	andi	s4,s4,1016
    80600264:	00007a97          	auipc	s5,0x7
    80600268:	d9ca8a93          	addi	s5,s5,-612 # 80607000 <data5>
    8060026c:	015a0a33          	add	s4,s4,s5
    80600270:	000a2983          	lw	s3,0(s4)

0000000080600274 <tc.bb1.l5>:
    80600274:	1a40c143          	fmadd.d	ft2,ft1,ft4,ft3,rmm

0000000080600278 <tc.bb1.l6>:
    80600278:	032a3b33          	mulhu	s6,s4,s2

000000008060027c <tc.bb1.l7>:
    8060027c:	3f897913          	andi	s2,s2,1016
    80600280:	00008b17          	auipc	s6,0x8
    80600284:	d80b0b13          	addi	s6,s6,-640 # 80608000 <data6>
    80600288:	01690933          	add	s2,s2,s6
    8060028c:	c1392a2f          	amominu.w	s4,s3,(s2)

0000000080600290 <tc.bb1.l8>:
    80600290:	3f897913          	andi	s2,s2,1016
    80600294:	00002b17          	auipc	s6,0x2
    80600298:	d6cb0b13          	addi	s6,s6,-660 # 80602000 <data>
    8060029c:	01690933          	add	s2,s2,s6
    806002a0:	61392aaf          	amoand.w	s5,s3,(s2)

00000000806002a4 <tc.bb1.l9>:
    806002a4:	04c009ef          	jal	s3,806002f0 <attack_end>

00000000806002a8 <tc.bb2>:
    806002a8:	1800f253          	fdiv.s	ft4,ft1,ft0

00000000806002ac <tc.bb2.l1>:
    806002ac:	555000ef          	jal	ra,80601000 <shared>

00000000806002b0 <tc.bb2.l2>:
    806002b0:	03691a33          	mulh	s4,s2,s6

00000000806002b4 <tc.bb2.l3>:
    806002b4:	3f8a7a13          	andi	s4,s4,1016
    806002b8:	00002b17          	auipc	s6,0x2
    806002bc:	d48b0b13          	addi	s6,s6,-696 # 80602000 <data>
    806002c0:	016a0a33          	add	s4,s4,s6
    806002c4:	a12a39af          	amomax.d	s3,s2,(s4)

00000000806002c8 <tc.bb2.l4>:
    806002c8:	01693ab3          	sltu	s5,s2,s6

00000000806002cc <tc.bb2.l5>:
    806002cc:	f20900d3          	fmv.d.x	ft1,s2

00000000806002d0 <tc.bb2.l6>:
    806002d0:	3f897913          	andi	s2,s2,1016
    806002d4:	00008997          	auipc	s3,0x8
    806002d8:	d2c98993          	addi	s3,s3,-724 # 80608000 <data6>
    806002dc:	01390933          	add	s2,s2,s3
    806002e0:	00093007          	fld	ft0,0(s2)

00000000806002e4 <tc.bb2.l7>:
    806002e4:	103270c3          	fmadd.s	ft1,ft4,ft3,ft2

00000000806002e8 <tc.bb2.l8>:
    806002e8:	03da5a93          	srli	s5,s4,0x3d

00000000806002ec <tc.bb2.l9>:
    806002ec:	00400aef          	jal	s5,806002f0 <attack_end>

00000000806002f0 <attack_end>:
    806002f0:	00000073          	ecall
    806002f4:	00000013          	nop
    806002f8:	00000013          	nop
    806002fc:	00000013          	nop

0000000080600300 <spdoc>:
	...
    80600308:	00000013          	nop
    8060030c:	00000013          	nop
    80600310:	00000013          	nop
    80600314:	00000013          	nop
    80600318:	00000013          	nop
    8060031c:	00000013          	nop
    80600320:	00000013          	nop
    80600324:	00000013          	nop
    80600328:	00000013          	nop
    8060032c:	00000013          	nop
    80600330:	00000013          	nop
    80600334:	00000013          	nop
    80600338:	00000013          	nop
    8060033c:	00000013          	nop
    80600340:	00000013          	nop
    80600344:	00000013          	nop
    80600348:	00000013          	nop
    8060034c:	00000013          	nop
    80600350:	00000013          	nop
    80600354:	00000013          	nop
    80600358:	00000013          	nop
    8060035c:	00000013          	nop
    80600360:	00000013          	nop
    80600364:	00000013          	nop
    80600368:	00000013          	nop
    8060036c:	00000013          	nop
    80600370:	00000013          	nop
    80600374:	00000013          	nop
    80600378:	00000013          	nop
    8060037c:	00000013          	nop
    80600380:	00000013          	nop
    80600384:	00000013          	nop
    80600388:	00000013          	nop
    8060038c:	00000013          	nop
    80600390:	00000013          	nop
    80600394:	00000013          	nop
    80600398:	00000013          	nop
    8060039c:	00000013          	nop
    806003a0:	00000013          	nop
    806003a4:	00000013          	nop
    806003a8:	00000013          	nop
    806003ac:	00000013          	nop
    806003b0:	00000013          	nop
    806003b4:	00000013          	nop
    806003b8:	00000013          	nop
    806003bc:	00000013          	nop
    806003c0:	00000013          	nop
    806003c4:	00000013          	nop
    806003c8:	00000013          	nop
    806003cc:	00000013          	nop
    806003d0:	00000013          	nop
    806003d4:	00000013          	nop
    806003d8:	00000013          	nop
    806003dc:	00000013          	nop
    806003e0:	00000013          	nop
    806003e4:	00000013          	nop
    806003e8:	00000013          	nop
    806003ec:	00000013          	nop
    806003f0:	00000013          	nop
    806003f4:	00000013          	nop
    806003f8:	00000013          	nop
    806003fc:	00000013          	nop
    80600400:	00000013          	nop
    80600404:	00000013          	nop
    80600408:	00000013          	nop
    8060040c:	00000013          	nop
    80600410:	00000013          	nop
    80600414:	00000013          	nop
    80600418:	00000013          	nop
    8060041c:	00000013          	nop
    80600420:	00000013          	nop
    80600424:	00000013          	nop
    80600428:	00000013          	nop
    8060042c:	00000013          	nop
    80600430:	00000013          	nop
    80600434:	00000013          	nop
    80600438:	00000013          	nop
    8060043c:	00000013          	nop
    80600440:	00000013          	nop
    80600444:	00000013          	nop
    80600448:	00000013          	nop
    8060044c:	00000013          	nop
    80600450:	00000013          	nop
    80600454:	00000013          	nop
    80600458:	00000013          	nop
    8060045c:	00000013          	nop
    80600460:	00000013          	nop
    80600464:	00000013          	nop
    80600468:	00000013          	nop
    8060046c:	00000013          	nop
    80600470:	00000013          	nop
    80600474:	00000013          	nop
    80600478:	00000013          	nop
    8060047c:	00000013          	nop
    80600480:	00000013          	nop
    80600484:	00000013          	nop
    80600488:	00000013          	nop
    8060048c:	00000013          	nop
    80600490:	00000013          	nop
    80600494:	00000013          	nop
    80600498:	00000013          	nop
    8060049c:	00000013          	nop
    806004a0:	00000013          	nop
    806004a4:	00000013          	nop
    806004a8:	00000013          	nop
    806004ac:	00000013          	nop
    806004b0:	00000013          	nop
    806004b4:	00000013          	nop
    806004b8:	00000013          	nop
    806004bc:	00000013          	nop
    806004c0:	00000013          	nop
    806004c4:	00000013          	nop
    806004c8:	00000013          	nop
    806004cc:	00000013          	nop
    806004d0:	00000013          	nop
    806004d4:	00000013          	nop
    806004d8:	00000013          	nop
    806004dc:	00000013          	nop
    806004e0:	00000013          	nop
    806004e4:	00000013          	nop
    806004e8:	00000013          	nop
    806004ec:	00000013          	nop
    806004f0:	00000013          	nop
    806004f4:	00000013          	nop
    806004f8:	00000013          	nop
    806004fc:	00000013          	nop
    80600500:	00000013          	nop
    80600504:	00000013          	nop
    80600508:	00000013          	nop
    8060050c:	00000013          	nop
    80600510:	00000013          	nop
    80600514:	00000013          	nop
    80600518:	00000013          	nop
    8060051c:	00000013          	nop
    80600520:	00000013          	nop
    80600524:	00000013          	nop
    80600528:	00000013          	nop
    8060052c:	00000013          	nop
    80600530:	00000013          	nop
    80600534:	00000013          	nop
    80600538:	00000013          	nop
    8060053c:	00000013          	nop
    80600540:	00000013          	nop
    80600544:	00000013          	nop
    80600548:	00000013          	nop
    8060054c:	00000013          	nop
    80600550:	00000013          	nop
    80600554:	00000013          	nop
    80600558:	00000013          	nop
    8060055c:	00000013          	nop
    80600560:	00000013          	nop
    80600564:	00000013          	nop
    80600568:	00000013          	nop
    8060056c:	00000013          	nop
    80600570:	00000013          	nop
    80600574:	00000013          	nop
    80600578:	00000013          	nop
    8060057c:	00000013          	nop
    80600580:	00000013          	nop
    80600584:	00000013          	nop
    80600588:	00000013          	nop
    8060058c:	00000013          	nop
    80600590:	00000013          	nop
    80600594:	00000013          	nop
    80600598:	00000013          	nop
    8060059c:	00000013          	nop
    806005a0:	00000013          	nop
    806005a4:	00000013          	nop
    806005a8:	00000013          	nop
    806005ac:	00000013          	nop
    806005b0:	00000013          	nop
    806005b4:	00000013          	nop
    806005b8:	00000013          	nop
    806005bc:	00000013          	nop
    806005c0:	00000013          	nop
    806005c4:	00000013          	nop
    806005c8:	00000013          	nop
    806005cc:	00000013          	nop
    806005d0:	00000013          	nop
    806005d4:	00000013          	nop
    806005d8:	00000013          	nop
    806005dc:	00000013          	nop
    806005e0:	00000013          	nop
    806005e4:	00000013          	nop
    806005e8:	00000013          	nop
    806005ec:	00000013          	nop
    806005f0:	00000013          	nop
    806005f4:	00000013          	nop
    806005f8:	00000013          	nop
    806005fc:	00000013          	nop
    80600600:	00000013          	nop
    80600604:	00000013          	nop
    80600608:	00000013          	nop
    8060060c:	00000013          	nop
    80600610:	00000013          	nop
    80600614:	00000013          	nop
    80600618:	00000013          	nop
    8060061c:	00000013          	nop
    80600620:	00000013          	nop
    80600624:	00000013          	nop
    80600628:	00000013          	nop
    8060062c:	00000013          	nop
    80600630:	00000013          	nop
    80600634:	00000013          	nop
    80600638:	00000013          	nop
    8060063c:	00000013          	nop
    80600640:	00000013          	nop
    80600644:	00000013          	nop
    80600648:	00000013          	nop
    8060064c:	00000013          	nop
    80600650:	00000013          	nop
    80600654:	00000013          	nop
    80600658:	00000013          	nop
    8060065c:	00000013          	nop
    80600660:	00000013          	nop
    80600664:	00000013          	nop
    80600668:	00000013          	nop
    8060066c:	00000013          	nop
    80600670:	00000013          	nop
    80600674:	00000013          	nop
    80600678:	00000013          	nop
    8060067c:	00000013          	nop
    80600680:	00000013          	nop
    80600684:	00000013          	nop
    80600688:	00000013          	nop
    8060068c:	00000013          	nop
    80600690:	00000013          	nop
    80600694:	00000013          	nop
    80600698:	00000013          	nop
    8060069c:	00000013          	nop
    806006a0:	00000013          	nop
    806006a4:	00000013          	nop
    806006a8:	00000013          	nop
    806006ac:	00000013          	nop
    806006b0:	00000013          	nop
    806006b4:	00000013          	nop
    806006b8:	00000013          	nop
    806006bc:	00000013          	nop
    806006c0:	00000013          	nop
    806006c4:	00000013          	nop
    806006c8:	00000013          	nop
    806006cc:	00000013          	nop
    806006d0:	00000013          	nop
    806006d4:	00000013          	nop
    806006d8:	00000013          	nop
    806006dc:	00000013          	nop
    806006e0:	00000013          	nop
    806006e4:	00000013          	nop
    806006e8:	00000013          	nop
    806006ec:	00000013          	nop
    806006f0:	00000013          	nop
    806006f4:	00000013          	nop
    806006f8:	00000013          	nop
    806006fc:	00000013          	nop
    80600700:	00000013          	nop
    80600704:	00000013          	nop
    80600708:	00000013          	nop
    8060070c:	00000013          	nop
    80600710:	00000013          	nop
    80600714:	00000013          	nop
    80600718:	00000013          	nop
    8060071c:	00000013          	nop
    80600720:	00000013          	nop
    80600724:	00000013          	nop
    80600728:	00000013          	nop
    8060072c:	00000013          	nop
    80600730:	00000013          	nop
    80600734:	00000013          	nop
    80600738:	00000013          	nop
    8060073c:	00000013          	nop
    80600740:	00000013          	nop
    80600744:	00000013          	nop
    80600748:	00000013          	nop
    8060074c:	00000013          	nop
    80600750:	00000013          	nop
    80600754:	00000013          	nop
    80600758:	00000013          	nop
    8060075c:	00000013          	nop
    80600760:	00000013          	nop
    80600764:	00000013          	nop
    80600768:	00000013          	nop
    8060076c:	00000013          	nop
    80600770:	00000013          	nop
    80600774:	00000013          	nop
    80600778:	00000013          	nop
    8060077c:	00000013          	nop
    80600780:	00000013          	nop
    80600784:	00000013          	nop
    80600788:	00000013          	nop
    8060078c:	00000013          	nop
    80600790:	00000013          	nop
    80600794:	00000013          	nop
    80600798:	00000013          	nop
    8060079c:	00000013          	nop
    806007a0:	00000013          	nop
    806007a4:	00000013          	nop
    806007a8:	00000013          	nop
    806007ac:	00000013          	nop
    806007b0:	00000013          	nop
    806007b4:	00000013          	nop
    806007b8:	00000013          	nop
    806007bc:	00000013          	nop
    806007c0:	00000013          	nop
    806007c4:	00000013          	nop
    806007c8:	00000013          	nop
    806007cc:	00000013          	nop
    806007d0:	00000013          	nop
    806007d4:	00000013          	nop
    806007d8:	00000013          	nop
    806007dc:	00000013          	nop
    806007e0:	00000013          	nop
    806007e4:	00000013          	nop
    806007e8:	00000013          	nop
    806007ec:	00000013          	nop
    806007f0:	00000013          	nop
    806007f4:	00000013          	nop
    806007f8:	00000013          	nop
    806007fc:	00000013          	nop
    80600800:	00000013          	nop
    80600804:	00000013          	nop
    80600808:	00000013          	nop
    8060080c:	00000013          	nop
    80600810:	00000013          	nop
    80600814:	00000013          	nop
    80600818:	00000013          	nop
    8060081c:	00000013          	nop
    80600820:	00000013          	nop
    80600824:	00000013          	nop
    80600828:	00000013          	nop
    8060082c:	00000013          	nop
    80600830:	00000013          	nop
    80600834:	00000013          	nop
    80600838:	00000013          	nop
    8060083c:	00000013          	nop
    80600840:	00000013          	nop
    80600844:	00000013          	nop
    80600848:	00000013          	nop
    8060084c:	00000013          	nop
    80600850:	00000013          	nop
    80600854:	00000013          	nop
    80600858:	00000013          	nop
    8060085c:	00000013          	nop
    80600860:	00000013          	nop
    80600864:	00000013          	nop
    80600868:	00000013          	nop
    8060086c:	00000013          	nop
    80600870:	00000013          	nop
    80600874:	00000013          	nop
    80600878:	00000013          	nop
    8060087c:	00000013          	nop
    80600880:	00000013          	nop
    80600884:	00000013          	nop
    80600888:	00000013          	nop
    8060088c:	00000013          	nop
    80600890:	00000013          	nop
    80600894:	00000013          	nop
    80600898:	00000013          	nop
    8060089c:	00000013          	nop
    806008a0:	00000013          	nop
    806008a4:	00000013          	nop
    806008a8:	00000013          	nop
    806008ac:	00000013          	nop
    806008b0:	00000013          	nop
    806008b4:	00000013          	nop
    806008b8:	00000013          	nop
    806008bc:	00000013          	nop
    806008c0:	00000013          	nop
    806008c4:	00000013          	nop
    806008c8:	00000013          	nop
    806008cc:	00000013          	nop
    806008d0:	00000013          	nop
    806008d4:	00000013          	nop
    806008d8:	00000013          	nop
    806008dc:	00000013          	nop
    806008e0:	00000013          	nop
    806008e4:	00000013          	nop
    806008e8:	00000013          	nop
    806008ec:	00000013          	nop
    806008f0:	00000013          	nop
    806008f4:	00000013          	nop
    806008f8:	00000013          	nop
    806008fc:	00000013          	nop
    80600900:	00000013          	nop
    80600904:	00000013          	nop
    80600908:	00000013          	nop
    8060090c:	00000013          	nop
    80600910:	00000013          	nop
    80600914:	00000013          	nop
    80600918:	00000013          	nop
    8060091c:	00000013          	nop
    80600920:	00000013          	nop
    80600924:	00000013          	nop
    80600928:	00000013          	nop
    8060092c:	00000013          	nop
    80600930:	00000013          	nop
    80600934:	00000013          	nop
    80600938:	00000013          	nop
    8060093c:	00000013          	nop
    80600940:	00000013          	nop
    80600944:	00000013          	nop
    80600948:	00000013          	nop
    8060094c:	00000013          	nop
    80600950:	00000013          	nop
    80600954:	00000013          	nop
    80600958:	00000013          	nop
    8060095c:	00000013          	nop
    80600960:	00000013          	nop
    80600964:	00000013          	nop
    80600968:	00000013          	nop
    8060096c:	00000013          	nop
    80600970:	00000013          	nop
    80600974:	00000013          	nop
    80600978:	00000013          	nop
    8060097c:	00000013          	nop
    80600980:	00000013          	nop
    80600984:	00000013          	nop
    80600988:	00000013          	nop
    8060098c:	00000013          	nop
    80600990:	00000013          	nop
    80600994:	00000013          	nop
    80600998:	00000013          	nop
    8060099c:	00000013          	nop
    806009a0:	00000013          	nop
    806009a4:	00000013          	nop
    806009a8:	00000013          	nop
    806009ac:	00000013          	nop
    806009b0:	00000013          	nop
    806009b4:	00000013          	nop
    806009b8:	00000013          	nop
    806009bc:	00000013          	nop
    806009c0:	00000013          	nop
    806009c4:	00000013          	nop
    806009c8:	00000013          	nop
    806009cc:	00000013          	nop
    806009d0:	00000013          	nop
    806009d4:	00000013          	nop
    806009d8:	00000013          	nop
    806009dc:	00000013          	nop
    806009e0:	00000013          	nop
    806009e4:	00000013          	nop
    806009e8:	00000013          	nop
    806009ec:	00000013          	nop
    806009f0:	00000013          	nop
    806009f4:	00000013          	nop
    806009f8:	00000013          	nop
    806009fc:	00000013          	nop
    80600a00:	00000013          	nop
    80600a04:	00000013          	nop
    80600a08:	00000013          	nop
    80600a0c:	00000013          	nop
    80600a10:	00000013          	nop
    80600a14:	00000013          	nop
    80600a18:	00000013          	nop
    80600a1c:	00000013          	nop
    80600a20:	00000013          	nop
    80600a24:	00000013          	nop
    80600a28:	00000013          	nop
    80600a2c:	00000013          	nop
    80600a30:	00000013          	nop
    80600a34:	00000013          	nop
    80600a38:	00000013          	nop
    80600a3c:	00000013          	nop
    80600a40:	00000013          	nop
    80600a44:	00000013          	nop
    80600a48:	00000013          	nop
    80600a4c:	00000013          	nop
    80600a50:	00000013          	nop
    80600a54:	00000013          	nop
    80600a58:	00000013          	nop
    80600a5c:	00000013          	nop
    80600a60:	00000013          	nop
    80600a64:	00000013          	nop
    80600a68:	00000013          	nop
    80600a6c:	00000013          	nop
    80600a70:	00000013          	nop
    80600a74:	00000013          	nop
    80600a78:	00000013          	nop
    80600a7c:	00000013          	nop
    80600a80:	00000013          	nop
    80600a84:	00000013          	nop
    80600a88:	00000013          	nop
    80600a8c:	00000013          	nop
    80600a90:	00000013          	nop
    80600a94:	00000013          	nop
    80600a98:	00000013          	nop
    80600a9c:	00000013          	nop
    80600aa0:	00000013          	nop
    80600aa4:	00000013          	nop
    80600aa8:	00000013          	nop
    80600aac:	00000013          	nop
    80600ab0:	00000013          	nop
    80600ab4:	00000013          	nop
    80600ab8:	00000013          	nop
    80600abc:	00000013          	nop
    80600ac0:	00000013          	nop
    80600ac4:	00000013          	nop
    80600ac8:	00000013          	nop
    80600acc:	00000013          	nop
    80600ad0:	00000013          	nop
    80600ad4:	00000013          	nop
    80600ad8:	00000013          	nop
    80600adc:	00000013          	nop
    80600ae0:	00000013          	nop
    80600ae4:	00000013          	nop
    80600ae8:	00000013          	nop
    80600aec:	00000013          	nop
    80600af0:	00000013          	nop
    80600af4:	00000013          	nop
    80600af8:	00000013          	nop
    80600afc:	00000013          	nop
    80600b00:	00000013          	nop
    80600b04:	00000013          	nop
    80600b08:	00000013          	nop
    80600b0c:	00000013          	nop
    80600b10:	00000013          	nop
    80600b14:	00000013          	nop
    80600b18:	00000013          	nop
    80600b1c:	00000013          	nop
    80600b20:	00000013          	nop
    80600b24:	00000013          	nop
    80600b28:	00000013          	nop
    80600b2c:	00000013          	nop
    80600b30:	00000013          	nop
    80600b34:	00000013          	nop
    80600b38:	00000013          	nop
    80600b3c:	00000013          	nop
    80600b40:	00000013          	nop
    80600b44:	00000013          	nop
    80600b48:	00000013          	nop
    80600b4c:	00000013          	nop
    80600b50:	00000013          	nop
    80600b54:	00000013          	nop
    80600b58:	00000013          	nop
    80600b5c:	00000013          	nop
    80600b60:	00000013          	nop
    80600b64:	00000013          	nop
    80600b68:	00000013          	nop
    80600b6c:	00000013          	nop
    80600b70:	00000013          	nop
    80600b74:	00000013          	nop
    80600b78:	00000013          	nop
    80600b7c:	00000013          	nop
    80600b80:	00000013          	nop
    80600b84:	00000013          	nop
    80600b88:	00000013          	nop
    80600b8c:	00000013          	nop
    80600b90:	00000013          	nop
    80600b94:	00000013          	nop
    80600b98:	00000013          	nop
    80600b9c:	00000013          	nop
    80600ba0:	00000013          	nop
    80600ba4:	00000013          	nop
    80600ba8:	00000013          	nop
    80600bac:	00000013          	nop
    80600bb0:	00000013          	nop
    80600bb4:	00000013          	nop
    80600bb8:	00000013          	nop
    80600bbc:	00000013          	nop
    80600bc0:	00000013          	nop
    80600bc4:	00000013          	nop
    80600bc8:	00000013          	nop
    80600bcc:	00000013          	nop
    80600bd0:	00000013          	nop
    80600bd4:	00000013          	nop
    80600bd8:	00000013          	nop
    80600bdc:	00000013          	nop
    80600be0:	00000013          	nop
    80600be4:	00000013          	nop
    80600be8:	00000013          	nop
    80600bec:	00000013          	nop
    80600bf0:	00000013          	nop
    80600bf4:	00000013          	nop
    80600bf8:	00000013          	nop
    80600bfc:	00000013          	nop
    80600c00:	00000013          	nop
    80600c04:	00000013          	nop
    80600c08:	00000013          	nop
    80600c0c:	00000013          	nop
    80600c10:	00000013          	nop
    80600c14:	00000013          	nop
    80600c18:	00000013          	nop
    80600c1c:	00000013          	nop
    80600c20:	00000013          	nop
    80600c24:	00000013          	nop
    80600c28:	00000013          	nop
    80600c2c:	00000013          	nop
    80600c30:	00000013          	nop
    80600c34:	00000013          	nop
    80600c38:	00000013          	nop
    80600c3c:	00000013          	nop
    80600c40:	00000013          	nop
    80600c44:	00000013          	nop
    80600c48:	00000013          	nop
    80600c4c:	00000013          	nop
    80600c50:	00000013          	nop
    80600c54:	00000013          	nop
    80600c58:	00000013          	nop
    80600c5c:	00000013          	nop
    80600c60:	00000013          	nop
    80600c64:	00000013          	nop
    80600c68:	00000013          	nop
    80600c6c:	00000013          	nop
    80600c70:	00000013          	nop
    80600c74:	00000013          	nop
    80600c78:	00000013          	nop
    80600c7c:	00000013          	nop
    80600c80:	00000013          	nop
    80600c84:	00000013          	nop
    80600c88:	00000013          	nop
    80600c8c:	00000013          	nop
    80600c90:	00000013          	nop
    80600c94:	00000013          	nop
    80600c98:	00000013          	nop
    80600c9c:	00000013          	nop
    80600ca0:	00000013          	nop
    80600ca4:	00000013          	nop
    80600ca8:	00000013          	nop
    80600cac:	00000013          	nop
    80600cb0:	00000013          	nop
    80600cb4:	00000013          	nop
    80600cb8:	00000013          	nop
    80600cbc:	00000013          	nop
    80600cc0:	00000013          	nop
    80600cc4:	00000013          	nop
    80600cc8:	00000013          	nop
    80600ccc:	00000013          	nop
    80600cd0:	00000013          	nop
    80600cd4:	00000013          	nop
    80600cd8:	00000013          	nop
    80600cdc:	00000013          	nop
    80600ce0:	00000013          	nop
    80600ce4:	00000013          	nop
    80600ce8:	00000013          	nop
    80600cec:	00000013          	nop
    80600cf0:	00000013          	nop
    80600cf4:	00000013          	nop
    80600cf8:	00000013          	nop
    80600cfc:	00000013          	nop
    80600d00:	00000013          	nop
    80600d04:	00000013          	nop
    80600d08:	00000013          	nop
    80600d0c:	00000013          	nop
    80600d10:	00000013          	nop
    80600d14:	00000013          	nop
    80600d18:	00000013          	nop
    80600d1c:	00000013          	nop
    80600d20:	00000013          	nop
    80600d24:	00000013          	nop
    80600d28:	00000013          	nop
    80600d2c:	00000013          	nop
    80600d30:	00000013          	nop
    80600d34:	00000013          	nop
    80600d38:	00000013          	nop
    80600d3c:	00000013          	nop
    80600d40:	00000013          	nop
    80600d44:	00000013          	nop
    80600d48:	00000013          	nop
    80600d4c:	00000013          	nop
    80600d50:	00000013          	nop
    80600d54:	00000013          	nop
    80600d58:	00000013          	nop
    80600d5c:	00000013          	nop
    80600d60:	00000013          	nop
    80600d64:	00000013          	nop
    80600d68:	00000013          	nop
    80600d6c:	00000013          	nop
    80600d70:	00000013          	nop
    80600d74:	00000013          	nop
    80600d78:	00000013          	nop
    80600d7c:	00000013          	nop
    80600d80:	00000013          	nop
    80600d84:	00000013          	nop
    80600d88:	00000013          	nop
    80600d8c:	00000013          	nop
    80600d90:	00000013          	nop
    80600d94:	00000013          	nop
    80600d98:	00000013          	nop
    80600d9c:	00000013          	nop
    80600da0:	00000013          	nop
    80600da4:	00000013          	nop
    80600da8:	00000013          	nop
    80600dac:	00000013          	nop
    80600db0:	00000013          	nop
    80600db4:	00000013          	nop
    80600db8:	00000013          	nop
    80600dbc:	00000013          	nop
    80600dc0:	00000013          	nop
    80600dc4:	00000013          	nop
    80600dc8:	00000013          	nop
    80600dcc:	00000013          	nop
    80600dd0:	00000013          	nop
    80600dd4:	00000013          	nop
    80600dd8:	00000013          	nop
    80600ddc:	00000013          	nop
    80600de0:	00000013          	nop
    80600de4:	00000013          	nop
    80600de8:	00000013          	nop
    80600dec:	00000013          	nop
    80600df0:	00000013          	nop
    80600df4:	00000013          	nop
    80600df8:	00000013          	nop
    80600dfc:	00000013          	nop
    80600e00:	00000013          	nop
    80600e04:	00000013          	nop
    80600e08:	00000013          	nop
    80600e0c:	00000013          	nop
    80600e10:	00000013          	nop
    80600e14:	00000013          	nop
    80600e18:	00000013          	nop
    80600e1c:	00000013          	nop
    80600e20:	00000013          	nop
    80600e24:	00000013          	nop
    80600e28:	00000013          	nop
    80600e2c:	00000013          	nop
    80600e30:	00000013          	nop
    80600e34:	00000013          	nop
    80600e38:	00000013          	nop
    80600e3c:	00000013          	nop
    80600e40:	00000013          	nop
    80600e44:	00000013          	nop
    80600e48:	00000013          	nop
    80600e4c:	00000013          	nop
    80600e50:	00000013          	nop
    80600e54:	00000013          	nop
    80600e58:	00000013          	nop
    80600e5c:	00000013          	nop
    80600e60:	00000013          	nop
    80600e64:	00000013          	nop
    80600e68:	00000013          	nop
    80600e6c:	00000013          	nop
    80600e70:	00000013          	nop
    80600e74:	00000013          	nop
    80600e78:	00000013          	nop
    80600e7c:	00000013          	nop
    80600e80:	00000013          	nop
    80600e84:	00000013          	nop
    80600e88:	00000013          	nop
    80600e8c:	00000013          	nop
    80600e90:	00000013          	nop
    80600e94:	00000013          	nop
    80600e98:	00000013          	nop
    80600e9c:	00000013          	nop
    80600ea0:	00000013          	nop
    80600ea4:	00000013          	nop
    80600ea8:	00000013          	nop
    80600eac:	00000013          	nop
    80600eb0:	00000013          	nop
    80600eb4:	00000013          	nop
    80600eb8:	00000013          	nop
    80600ebc:	00000013          	nop
    80600ec0:	00000013          	nop
    80600ec4:	00000013          	nop
    80600ec8:	00000013          	nop
    80600ecc:	00000013          	nop
    80600ed0:	00000013          	nop
    80600ed4:	00000013          	nop
    80600ed8:	00000013          	nop
    80600edc:	00000013          	nop
    80600ee0:	00000013          	nop
    80600ee4:	00000013          	nop
    80600ee8:	00000013          	nop
    80600eec:	00000013          	nop
    80600ef0:	00000013          	nop
    80600ef4:	00000013          	nop
    80600ef8:	00000013          	nop
    80600efc:	00000013          	nop
    80600f00:	00000013          	nop
    80600f04:	00000013          	nop
    80600f08:	00000013          	nop
    80600f0c:	00000013          	nop
    80600f10:	00000013          	nop
    80600f14:	00000013          	nop
    80600f18:	00000013          	nop
    80600f1c:	00000013          	nop
    80600f20:	00000013          	nop
    80600f24:	00000013          	nop
    80600f28:	00000013          	nop
    80600f2c:	00000013          	nop
    80600f30:	00000013          	nop
    80600f34:	00000013          	nop
    80600f38:	00000013          	nop
    80600f3c:	00000013          	nop
    80600f40:	00000013          	nop
    80600f44:	00000013          	nop
    80600f48:	00000013          	nop
    80600f4c:	00000013          	nop
    80600f50:	00000013          	nop
    80600f54:	00000013          	nop
    80600f58:	00000013          	nop
    80600f5c:	00000013          	nop
    80600f60:	00000013          	nop
    80600f64:	00000013          	nop
    80600f68:	00000013          	nop
    80600f6c:	00000013          	nop
    80600f70:	00000013          	nop
    80600f74:	00000013          	nop
    80600f78:	00000013          	nop
    80600f7c:	00000013          	nop
    80600f80:	00000013          	nop
    80600f84:	00000013          	nop
    80600f88:	00000013          	nop
    80600f8c:	00000013          	nop
    80600f90:	00000013          	nop
    80600f94:	00000013          	nop
    80600f98:	00000013          	nop
    80600f9c:	00000013          	nop
    80600fa0:	00000013          	nop
    80600fa4:	00000013          	nop
    80600fa8:	00000013          	nop
    80600fac:	00000013          	nop
    80600fb0:	00000013          	nop
    80600fb4:	00000013          	nop
    80600fb8:	00000013          	nop
    80600fbc:	00000013          	nop
    80600fc0:	00000013          	nop
    80600fc4:	00000013          	nop
    80600fc8:	00000013          	nop
    80600fcc:	00000013          	nop
    80600fd0:	00000013          	nop
    80600fd4:	00000013          	nop
    80600fd8:	00000013          	nop
    80600fdc:	00000013          	nop
    80600fe0:	00000013          	nop
    80600fe4:	00000013          	nop
    80600fe8:	00000013          	nop
    80600fec:	00000013          	nop
    80600ff0:	00000013          	nop
    80600ff4:	00000013          	nop
    80600ff8:	00000013          	nop
    80600ffc:	00000013          	nop

0000000080601000 <shared>:
    80601000:	22539353          	fsgnjn.d	ft6,ft7,ft5

0000000080601004 <fn0.entry.l1>:
    80601004:	c2247d53          	fcvt.l.d	s10,fs0

0000000080601008 <fn0.entry.l2>:
    80601008:	58049353          	fsqrt.s	ft6,fs1,rtz

000000008060100c <fn0.entry.l3>:
    8060100c:	03accdb3          	div	s11,s9,s10

0000000080601010 <fn0.entry.l4>:
    80601010:	081c7b93          	andi	s7,s8,129

0000000080601014 <fn0.entry.l5>:
    80601014:	418c8d33          	sub	s10,s9,s8

0000000080601018 <fn0.entry.l6>:
    80601018:	c202fc53          	fcvt.w.d	s8,ft5

000000008060101c <fn0.entry.l7>:
    8060101c:	039d0dbb          	mulw	s11,s10,s9

0000000080601020 <fn0.entry.l8>:
    80601020:	00008067          	ret

0000000080601024 <fn0.exit>:
    80601024:	03bd3bb3          	mulhu	s7,s10,s11

0000000080601028 <fn1.entry.l1>:
    80601028:	a2540dd3          	fle.d	s11,fs0,ft5

000000008060102c <fn1.entry.l2>:
    8060102c:	a2831bd3          	flt.d	s7,ft6,fs0

0000000080601030 <fn1.entry.l3>:
    80601030:	017d4c33          	xor	s8,s10,s7

0000000080601034 <fn1.entry.l4>:
    80601034:	5baccb93          	xori	s7,s9,1466

0000000080601038 <fn1.entry.l5>:
    80601038:	4013f3d3          	fcvt.s.d	ft7,ft7

000000008060103c <fn1.entry.l6>:
    8060103c:	e2030cd3          	fmv.x.d	s9,ft6

0000000080601040 <fn1.entry.l7>:
    80601040:	5a0492d3          	fsqrt.d	ft5,fs1,rtz

0000000080601044 <fn1.entry.l8>:
    80601044:	037d1c33          	mulh	s8,s10,s7

0000000080601048 <fn1.entry.l9>:
    80601048:	03abbcb3          	mulhu	s9,s7,s10

000000008060104c <fn1.entry.l10>:
    8060104c:	00008067          	ret

0000000080601050 <fn1.exit>:
    80601050:	410ddc9b          	sraiw	s9,s11,0x10

0000000080601054 <fn2.entry.l1>:
    80601054:	037c1d33          	mulh	s10,s8,s7

0000000080601058 <fn2.entry.l2>:
    80601058:	289402d3          	fmin.s	ft5,fs0,fs1

000000008060105c <fn2.entry.l3>:
    8060105c:	08628453          	fsub.s	fs0,ft5,ft6,rne

0000000080601060 <fn2.entry.l4>:
    80601060:	03bd0bb3          	mul	s7,s10,s11

0000000080601064 <fn2.entry.l5>:
    80601064:	472c8d1b          	addiw	s10,s9,1138

0000000080601068 <fn2.entry.l6>:
    80601068:	00008067          	ret

000000008060106c <fn2.exit>:
    8060106c:	125373d3          	fmul.d	ft7,ft6,ft5

0000000080601070 <fn3.entry.l1>:
    80601070:	03ac5cbb          	divuw	s9,s8,s10

0000000080601074 <fn3.entry.l2>:
    80601074:	188394d3          	fdiv.s	fs1,ft7,fs0,rtz

0000000080601078 <fn3.entry.l3>:
    80601078:	015d1c1b          	slliw	s8,s10,0x15

000000008060107c <fn3.entry.l4>:
    8060107c:	4014f4d3          	fcvt.s.d	fs1,fs1

0000000080601080 <fn3.entry.l5>:
    80601080:	2262a453          	fsgnjx.d	fs0,ft5,ft6

0000000080601084 <fn3.entry.l6>:
    80601084:	007bdd9b          	srliw	s11,s7,0x7

0000000080601088 <fn3.entry.l7>:
    80601088:	00008067          	ret

000000008060108c <fn3.exit>:
    8060108c:	00000013          	nop
    80601090:	00000013          	nop
    80601094:	00000013          	nop
    80601098:	00000013          	nop
    8060109c:	00000013          	nop
    806010a0:	00000013          	nop
    806010a4:	00000013          	nop
    806010a8:	00000013          	nop
    806010ac:	00000013          	nop
    806010b0:	00000013          	nop
    806010b4:	00000013          	nop
    806010b8:	00000013          	nop
    806010bc:	00000013          	nop
    806010c0:	00000013          	nop
    806010c4:	00000013          	nop
    806010c8:	00000013          	nop
    806010cc:	00000013          	nop
    806010d0:	00000013          	nop
    806010d4:	00000013          	nop
    806010d8:	00000013          	nop
    806010dc:	00000013          	nop
    806010e0:	00000013          	nop
    806010e4:	00000013          	nop
    806010e8:	00000013          	nop
    806010ec:	00000013          	nop
    806010f0:	00000013          	nop
    806010f4:	00000013          	nop
    806010f8:	00000013          	nop
    806010fc:	00000013          	nop

0000000080601100 <fn4.entry>:
    80601100:	037d0c33          	mul	s8,s10,s7

0000000080601104 <fn4.entry.l1>:
    80601104:	00628d17          	auipc	s10,0x628

0000000080601108 <fn4.entry.l2>:
    80601108:	038bad33          	mulhsu	s10,s7,s8

000000008060110c <fn4.entry.l3>:
    8060110c:	382c7d13          	andi	s10,s8,898

0000000080601110 <fn4.entry.l4>:
    80601110:	01bc3cb3          	sltu	s9,s8,s11

0000000080601114 <fn4.entry.l5>:
    80601114:	00008067          	ret

0000000080601118 <fn4.exit>:
	...

Disassembly of section .text.receive:

0000000080800000 <receive>:
    80800000:	00000073          	ecall
