
/root/specdoctor/Fuzzer/specdoctor/.t3_input_0.riscv:     file format elf64-littleriscv


Disassembly of section .text:

0000000080000000 <_start>:
    80000000:	0600006f          	j	80000060 <handle_reset>

0000000080000004 <nmi_vector>:
    80000004:	0000006f          	j	80000004 <nmi_vector>

0000000080000008 <mtvec_handler>:
    80000008:	00100513          	li	a0,1
    8000000c:	03f51513          	slli	a0,a0,0x3f
    80000010:	00b50513          	addi	a0,a0,11
    80000014:	342022f3          	csrr	t0,mcause
    80000018:	00551463          	bne	a0,t0,80000020 <mtvec_handler+0x18>
    8000001c:	3440006f          	j	80000360 <xcpt>
    80000020:	00300193          	li	gp,3
    80000024:	00005517          	auipc	a0,0x5
    80000028:	fdc50513          	addi	a0,a0,-36 # 80005000 <tohost>
    8000002c:	00000013          	nop
    80000030:	00353023          	sd	gp,0(a0)
    80000034:	ffdff06f          	j	80000030 <mtvec_handler+0x28>

0000000080000038 <stvec_handler>:
    80000038:	00800513          	li	a0,8
    8000003c:	142022f3          	csrr	t0,scause
    80000040:	00100193          	li	gp,1
    80000044:	00550463          	beq	a0,t0,8000004c <stvec_handler+0x14>
    80000048:	00300193          	li	gp,3
    8000004c:	00005517          	auipc	a0,0x5
    80000050:	fb450513          	addi	a0,a0,-76 # 80005000 <tohost>
    80000054:	00000013          	nop
    80000058:	00353023          	sd	gp,0(a0)
    8000005c:	ffdff06f          	j	80000058 <stvec_handler+0x20>

0000000080000060 <handle_reset>:
    80000060:	3a005073          	csrwi	pmpcfg0,0
    80000064:	30005073          	csrwi	mstatus,0
    80000068:	00000093          	li	ra,0
    8000006c:	00000113          	li	sp,0
    80000070:	00000193          	li	gp,0
    80000074:	00000213          	li	tp,0
    80000078:	00000293          	li	t0,0
    8000007c:	00000313          	li	t1,0
    80000080:	00000393          	li	t2,0
    80000084:	00000413          	li	s0,0
    80000088:	00000493          	li	s1,0
    8000008c:	00000513          	li	a0,0
    80000090:	00000593          	li	a1,0
    80000094:	00000613          	li	a2,0
    80000098:	00000693          	li	a3,0
    8000009c:	00000713          	li	a4,0
    800000a0:	00000793          	li	a5,0
    800000a4:	00000813          	li	a6,0
    800000a8:	00000893          	li	a7,0
    800000ac:	00000913          	li	s2,0
    800000b0:	00000993          	li	s3,0
    800000b4:	00000a13          	li	s4,0
    800000b8:	00000a93          	li	s5,0
    800000bc:	00000b13          	li	s6,0
    800000c0:	00000b93          	li	s7,0
    800000c4:	00000c13          	li	s8,0
    800000c8:	00000c93          	li	s9,0
    800000cc:	00000d13          	li	s10,0
    800000d0:	00000d93          	li	s11,0
    800000d4:	00000e13          	li	t3,0
    800000d8:	00000e93          	li	t4,0
    800000dc:	00000f13          	li	t5,0
    800000e0:	00000f93          	li	t6,0
    800000e4:	00006537          	lui	a0,0x6
    800000e8:	30052073          	csrs	mstatus,a0
    800000ec:	00305073          	csrwi	fcsr,0
    800000f0:	d2207053          	fcvt.d.l	ft0,zero
    800000f4:	d22070d3          	fcvt.d.l	ft1,zero
    800000f8:	d2207153          	fcvt.d.l	ft2,zero
    800000fc:	d22071d3          	fcvt.d.l	ft3,zero
    80000100:	d2207253          	fcvt.d.l	ft4,zero
    80000104:	d22072d3          	fcvt.d.l	ft5,zero
    80000108:	d2207353          	fcvt.d.l	ft6,zero
    8000010c:	d22073d3          	fcvt.d.l	ft7,zero
    80000110:	d2207453          	fcvt.d.l	fs0,zero
    80000114:	d22074d3          	fcvt.d.l	fs1,zero
    80000118:	d2207553          	fcvt.d.l	fa0,zero
    8000011c:	d22075d3          	fcvt.d.l	fa1,zero
    80000120:	d2207653          	fcvt.d.l	fa2,zero
    80000124:	d22076d3          	fcvt.d.l	fa3,zero
    80000128:	d2207753          	fcvt.d.l	fa4,zero
    8000012c:	d22077d3          	fcvt.d.l	fa5,zero
    80000130:	d2207853          	fcvt.d.l	fa6,zero
    80000134:	d22078d3          	fcvt.d.l	fa7,zero
    80000138:	d2207953          	fcvt.d.l	fs2,zero
    8000013c:	d22079d3          	fcvt.d.l	fs3,zero
    80000140:	d2207a53          	fcvt.d.l	fs4,zero
    80000144:	d2207ad3          	fcvt.d.l	fs5,zero
    80000148:	d2207b53          	fcvt.d.l	fs6,zero
    8000014c:	d2207bd3          	fcvt.d.l	fs7,zero
    80000150:	d2207c53          	fcvt.d.l	fs8,zero
    80000154:	d2207cd3          	fcvt.d.l	fs9,zero
    80000158:	d2207d53          	fcvt.d.l	fs10,zero
    8000015c:	d2207dd3          	fcvt.d.l	fs11,zero
    80000160:	d2207e53          	fcvt.d.l	ft8,zero
    80000164:	d2207ed3          	fcvt.d.l	ft9,zero
    80000168:	d2207f53          	fcvt.d.l	ft10,zero
    8000016c:	d2207fd3          	fcvt.d.l	ft11,zero
    80000170:	00000297          	auipc	t0,0x0
    80000174:	e9828293          	addi	t0,t0,-360 # 80000008 <mtvec_handler>
    80000178:	30529073          	csrw	mtvec,t0
    8000017c:	00000297          	auipc	t0,0x0
    80000180:	ebc28293          	addi	t0,t0,-324 # 80000038 <stvec_handler>
    80000184:	10529073          	csrw	stvec,t0
    80000188:	00006117          	auipc	sp,0x6
    8000018c:	f0010113          	addi	sp,sp,-256 # 80006088 <_end+0x1000>
    80000190:	228000ef          	jal	ra,800003b8 <pmp_boot>
    80000194:	2c8000ef          	jal	ra,8000045c <vm_boot>
    80000198:	00100513          	li	a0,1
    8000019c:	30652073          	csrs	mcounteren,a0
    800001a0:	08000513          	li	a0,128
    800001a4:	30052073          	csrs	mstatus,a0
    800001a8:	00001537          	lui	a0,0x1
    800001ac:	8005051b          	addiw	a0,a0,-2048
    800001b0:	30452073          	csrs	mie,a0
    800001b4:	0c000537          	lui	a0,0xc000
    800001b8:	00100293          	li	t0,1
    800001bc:	00552223          	sw	t0,4(a0) # c000004 <_start-0x73fffffc>
    800001c0:	0c002537          	lui	a0,0xc002
    800001c4:	00200293          	li	t0,2
    800001c8:	00552023          	sw	t0,0(a0) # c002000 <_start-0x73ffe000>
    800001cc:	0c200537          	lui	a0,0xc200
    800001d0:	00000293          	li	t0,0
    800001d4:	00552023          	sw	t0,0(a0) # c200000 <_start-0x73e00000>

00000000800001d8 <pfx>:
    800001d8:	3f8b7b13          	andi	s6,s6,1016
    800001dc:	00609997          	auipc	s3,0x609
    800001e0:	e2498993          	addi	s3,s3,-476 # 80609000 <data7>
    800001e4:	013b0b33          	add	s6,s6,s3
    800001e8:	010b3007          	fld	ft0,16(s6)

00000000800001ec <pfx.bb0.l1>:
    800001ec:	3f8a7a13          	andi	s4,s4,1016
    800001f0:	00609a97          	auipc	s5,0x609
    800001f4:	e10a8a93          	addi	s5,s5,-496 # 80609000 <data7>
    800001f8:	015a0a33          	add	s4,s4,s5
    800001fc:	010a3087          	fld	ft1,16(s4)

0000000080000200 <pfx.bb0.l2>:
    80000200:	3f89f993          	andi	s3,s3,1016
    80000204:	00602b17          	auipc	s6,0x602
    80000208:	dfcb0b13          	addi	s6,s6,-516 # 80602000 <data>
    8000020c:	016989b3          	add	s3,s3,s6
    80000210:	0009b107          	fld	ft2,0(s3)

0000000080000214 <pfx.bb0.l3>:
    80000214:	3f8afa93          	andi	s5,s5,1016
    80000218:	00606997          	auipc	s3,0x606
    8000021c:	de898993          	addi	s3,s3,-536 # 80606000 <data4>
    80000220:	013a8ab3          	add	s5,s5,s3
    80000224:	010ab187          	fld	ft3,16(s5)

0000000080000228 <pfx.bb0.l4>:
    80000228:	3f8b7b13          	andi	s6,s6,1016
    8000022c:	00609a17          	auipc	s4,0x609
    80000230:	dd4a0a13          	addi	s4,s4,-556 # 80609000 <data7>
    80000234:	014b0b33          	add	s6,s6,s4
    80000238:	008b3207          	fld	ft4,8(s6)

000000008000023c <pfx.bb0.l5>:
    8000023c:	3f8a7a13          	andi	s4,s4,1016
    80000240:	00609b17          	auipc	s6,0x609
    80000244:	dc0b0b13          	addi	s6,s6,-576 # 80609000 <data7>
    80000248:	016a0a33          	add	s4,s4,s6
    8000024c:	018a3287          	fld	ft5,24(s4)

0000000080000250 <pfx.bb0.l6>:
    80000250:	3f8b7b13          	andi	s6,s6,1016
    80000254:	00602a97          	auipc	s5,0x602
    80000258:	daca8a93          	addi	s5,s5,-596 # 80602000 <data>
    8000025c:	015b0b33          	add	s6,s6,s5
    80000260:	010b3307          	fld	ft6,16(s6)

0000000080000264 <pfx.bb0.l7>:
    80000264:	3f897913          	andi	s2,s2,1016
    80000268:	00605b17          	auipc	s6,0x605
    8000026c:	d98b0b13          	addi	s6,s6,-616 # 80605000 <data3>
    80000270:	01690933          	add	s2,s2,s6
    80000274:	00093387          	fld	ft7,0(s2)

0000000080000278 <pfx.bb0.l8>:
    80000278:	3f8b7b13          	andi	s6,s6,1016
    8000027c:	00608a17          	auipc	s4,0x608
    80000280:	d84a0a13          	addi	s4,s4,-636 # 80608000 <data6>
    80000284:	014b0b33          	add	s6,s6,s4
    80000288:	010b3407          	fld	fs0,16(s6)

000000008000028c <pfx.bb0.l9>:
    8000028c:	3f8b7b13          	andi	s6,s6,1016
    80000290:	00607917          	auipc	s2,0x607
    80000294:	d7090913          	addi	s2,s2,-656 # 80607000 <data5>
    80000298:	012b0b33          	add	s6,s6,s2
    8000029c:	008b3487          	fld	fs1,8(s6)

00000000800002a0 <pfx.bb0.l10>:
    800002a0:	0f100913          	li	s2,241

00000000800002a4 <pfx.bb0.l11>:
    800002a4:	2d100993          	li	s3,721

00000000800002a8 <pfx.bb0.l12>:
    800002a8:	7c200a13          	li	s4,1986

00000000800002ac <pfx.bb0.l13>:
    800002ac:	66a00a93          	li	s5,1642

00000000800002b0 <pfx.bb0.l14>:
    800002b0:	12800b13          	li	s6,296

00000000800002b4 <pfx.bb0.l15>:
    800002b4:	01b00b93          	li	s7,27

00000000800002b8 <pfx.bb0.l16>:
    800002b8:	4df00c13          	li	s8,1247

00000000800002bc <pfx.bb0.l17>:
    800002bc:	79d00c93          	li	s9,1949

00000000800002c0 <pfx.bb0.l18>:
    800002c0:	5cc00d13          	li	s10,1484

00000000800002c4 <pfx.bb0.l19>:
    800002c4:	7b300d93          	li	s11,1971

00000000800002c8 <pfx.exit>:
    800002c8:	00100f13          	li	t5,1
    800002cc:	00002537          	lui	a0,0x2
    800002d0:	8005051b          	addiw	a0,a0,-2048
    800002d4:	30053073          	csrc	mstatus,a0
    800002d8:	00200297          	auipc	t0,0x200
    800002dc:	d2828293          	addi	t0,t0,-728 # 80200000 <pre_attack0>
    800002e0:	34129073          	csrw	mepc,t0
    800002e4:	30200073          	mret

00000000800002e8 <recv_end_m>:
    800002e8:	c0002ef3          	rdcycle	t4
    800002ec:	41ce8e33          	sub	t3,t4,t3
    800002f0:	00005597          	auipc	a1,0x5
    800002f4:	d9058593          	addi	a1,a1,-624 # 80005080 <timing>
    800002f8:	01c5b023          	sd	t3,0(a1)
    800002fc:	00100193          	li	gp,1
    80000300:	00900593          	li	a1,9
    80000304:	342022f3          	csrr	t0,mcause
    80000308:	00558463          	beq	a1,t0,80000310 <recv_end_m+0x28>
    8000030c:	00300193          	li	gp,3
    80000310:	00005517          	auipc	a0,0x5
    80000314:	cf050513          	addi	a0,a0,-784 # 80005000 <tohost>
    80000318:	00000013          	nop
    8000031c:	00353023          	sd	gp,0(a0)
    80000320:	ffdff06f          	j	8000031c <recv_end_m+0x34>

0000000080000324 <recv_end_s>:
    80000324:	c0002ef3          	rdcycle	t4
    80000328:	41ce8e33          	sub	t3,t4,t3
    8000032c:	00005597          	auipc	a1,0x5
    80000330:	d5458593          	addi	a1,a1,-684 # 80005080 <timing>
    80000334:	01c5b023          	sd	t3,0(a1)
    80000338:	00100193          	li	gp,1
    8000033c:	00800593          	li	a1,8
    80000340:	142022f3          	csrr	t0,scause
    80000344:	00558463          	beq	a1,t0,8000034c <recv_end_s+0x28>
    80000348:	00300193          	li	gp,3
    8000034c:	00005517          	auipc	a0,0x5
    80000350:	cb450513          	addi	a0,a0,-844 # 80005000 <tohost>
    80000354:	00000013          	nop
    80000358:	00353023          	sd	gp,0(a0)
    8000035c:	ffdff06f          	j	80000358 <recv_end_s+0x34>

0000000080000360 <xcpt>:
    80000360:	08000513          	li	a0,128
    80000364:	30053073          	csrc	mstatus,a0
    80000368:	00001537          	lui	a0,0x1
    8000036c:	8005051b          	addiw	a0,a0,-2048
    80000370:	30453073          	csrc	mie,a0
    80000374:	00000517          	auipc	a0,0x0
    80000378:	f7450513          	addi	a0,a0,-140 # 800002e8 <recv_end_m>
    8000037c:	30551073          	csrw	mtvec,a0
    80000380:	00000517          	auipc	a0,0x0
    80000384:	fa450513          	addi	a0,a0,-92 # 80000324 <recv_end_s>
    80000388:	10551073          	csrw	stvec,a0
    8000038c:	0c002537          	lui	a0,0xc002
    80000390:	00000293          	li	t0,0
    80000394:	00552023          	sw	t0,0(a0) # c002000 <_start-0x73ffe000>
    80000398:	c0002e73          	rdcycle	t3
    8000039c:	00002537          	lui	a0,0x2
    800003a0:	8005051b          	addiw	a0,a0,-2048
    800003a4:	30053073          	csrc	mstatus,a0
    800003a8:	00800297          	auipc	t0,0x800
    800003ac:	c5828293          	addi	t0,t0,-936 # 80800000 <receive>
    800003b0:	34129073          	csrw	mepc,t0
    800003b4:	30200073          	mret

00000000800003b8 <pmp_boot>:
    800003b8:	fe010113          	addi	sp,sp,-32
    800003bc:	00813c23          	sd	s0,24(sp)
    800003c0:	02010413          	addi	s0,sp,32
    800003c4:	01f00793          	li	a5,31
    800003c8:	fef43423          	sd	a5,-24(s0)
    800003cc:	fff00793          	li	a5,-1
    800003d0:	00b7d793          	srli	a5,a5,0xb
    800003d4:	fef43023          	sd	a5,-32(s0)
    800003d8:	fe843783          	ld	a5,-24(s0)
    800003dc:	fe043703          	ld	a4,-32(s0)
    800003e0:	00000297          	auipc	t0,0x0
    800003e4:	01c28293          	addi	t0,t0,28 # 800003fc <pmp_boot+0x44>
    800003e8:	305292f3          	csrrw	t0,mtvec,t0
    800003ec:	3b771073          	csrw	pmpaddr7,a4
    800003f0:	00078513          	mv	a0,a5
    800003f4:	03851513          	slli	a0,a0,0x38
    800003f8:	3a051073          	csrw	pmpcfg0,a0
    800003fc:	30529073          	csrw	mtvec,t0
    80000400:	00000013          	nop
    80000404:	01813403          	ld	s0,24(sp)
    80000408:	02010113          	addi	sp,sp,32
    8000040c:	00008067          	ret

0000000080000410 <lfsr63>:
    80000410:	fd010113          	addi	sp,sp,-48
    80000414:	02813423          	sd	s0,40(sp)
    80000418:	03010413          	addi	s0,sp,48
    8000041c:	fca43c23          	sd	a0,-40(s0)
    80000420:	fd843783          	ld	a5,-40(s0)
    80000424:	0017d713          	srli	a4,a5,0x1
    80000428:	fd843783          	ld	a5,-40(s0)
    8000042c:	00f747b3          	xor	a5,a4,a5
    80000430:	0017f793          	andi	a5,a5,1
    80000434:	fef43423          	sd	a5,-24(s0)
    80000438:	fd843783          	ld	a5,-40(s0)
    8000043c:	0017d713          	srli	a4,a5,0x1
    80000440:	fe843783          	ld	a5,-24(s0)
    80000444:	03e79793          	slli	a5,a5,0x3e
    80000448:	00f767b3          	or	a5,a4,a5
    8000044c:	00078513          	mv	a0,a5
    80000450:	02813403          	ld	s0,40(sp)
    80000454:	03010113          	addi	sp,sp,48
    80000458:	00008067          	ret

000000008000045c <vm_boot>:
    8000045c:	fd010113          	addi	sp,sp,-48
    80000460:	02113423          	sd	ra,40(sp)
    80000464:	02813023          	sd	s0,32(sp)
    80000468:	03010413          	addi	s0,sp,48
    8000046c:	00002797          	auipc	a5,0x2
    80000470:	b9478793          	addi	a5,a5,-1132 # 80002000 <pt+0x1000>
    80000474:	00c7d793          	srli	a5,a5,0xc
    80000478:	00a79793          	slli	a5,a5,0xa
    8000047c:	0017e713          	ori	a4,a5,1
    80000480:	00001797          	auipc	a5,0x1
    80000484:	b8078793          	addi	a5,a5,-1152 # 80001000 <pt>
    80000488:	00e7b823          	sd	a4,16(a5)
    8000048c:	00001717          	auipc	a4,0x1
    80000490:	b7470713          	addi	a4,a4,-1164 # 80001000 <pt>
    80000494:	000017b7          	lui	a5,0x1
    80000498:	00f707b3          	add	a5,a4,a5
    8000049c:	20000737          	lui	a4,0x20000
    800004a0:	0cf70713          	addi	a4,a4,207 # 200000cf <_start-0x5fffff31>
    800004a4:	00e7b023          	sd	a4,0(a5) # 1000 <_start-0x7ffff000>
    800004a8:	00200797          	auipc	a5,0x200
    800004ac:	b5878793          	addi	a5,a5,-1192 # 80200000 <pre_attack0>
    800004b0:	00c7d793          	srli	a5,a5,0xc
    800004b4:	00a79713          	slli	a4,a5,0xa
    800004b8:	00200797          	auipc	a5,0x200
    800004bc:	b4878793          	addi	a5,a5,-1208 # 80200000 <pre_attack0>
    800004c0:	0157d793          	srli	a5,a5,0x15
    800004c4:	1ff7f793          	andi	a5,a5,511
    800004c8:	0db76713          	ori	a4,a4,219
    800004cc:	00001697          	auipc	a3,0x1
    800004d0:	b3468693          	addi	a3,a3,-1228 # 80001000 <pt>
    800004d4:	20078793          	addi	a5,a5,512
    800004d8:	00379793          	slli	a5,a5,0x3
    800004dc:	00f687b3          	add	a5,a3,a5
    800004e0:	00e7b023          	sd	a4,0(a5)
    800004e4:	00400797          	auipc	a5,0x400
    800004e8:	b1c78793          	addi	a5,a5,-1252 # 80400000 <pre_attack1>
    800004ec:	00c7d793          	srli	a5,a5,0xc
    800004f0:	00a79713          	slli	a4,a5,0xa
    800004f4:	00400797          	auipc	a5,0x400
    800004f8:	b0c78793          	addi	a5,a5,-1268 # 80400000 <pre_attack1>
    800004fc:	0157d793          	srli	a5,a5,0x15
    80000500:	1ff7f793          	andi	a5,a5,511
    80000504:	0db76713          	ori	a4,a4,219
    80000508:	00001697          	auipc	a3,0x1
    8000050c:	af868693          	addi	a3,a3,-1288 # 80001000 <pt>
    80000510:	20078793          	addi	a5,a5,512
    80000514:	00379793          	slli	a5,a5,0x3
    80000518:	00f687b3          	add	a5,a3,a5
    8000051c:	00e7b023          	sd	a4,0(a5)
    80000520:	00003797          	auipc	a5,0x3
    80000524:	ae078793          	addi	a5,a5,-1312 # 80003000 <pt+0x2000>
    80000528:	00c7d793          	srli	a5,a5,0xc
    8000052c:	00a79713          	slli	a4,a5,0xa
    80000530:	00600797          	auipc	a5,0x600
    80000534:	ad078793          	addi	a5,a5,-1328 # 80600000 <attack>
    80000538:	0157d793          	srli	a5,a5,0x15
    8000053c:	1ff7f793          	andi	a5,a5,511
    80000540:	00176713          	ori	a4,a4,1
    80000544:	00001697          	auipc	a3,0x1
    80000548:	abc68693          	addi	a3,a3,-1348 # 80001000 <pt>
    8000054c:	20078793          	addi	a5,a5,512
    80000550:	00379793          	slli	a5,a5,0x3
    80000554:	00f687b3          	add	a5,a3,a5
    80000558:	00e7b023          	sd	a4,0(a5)
    8000055c:	00800797          	auipc	a5,0x800
    80000560:	aa478793          	addi	a5,a5,-1372 # 80800000 <receive>
    80000564:	00c7d793          	srli	a5,a5,0xc
    80000568:	00a79713          	slli	a4,a5,0xa
    8000056c:	00800797          	auipc	a5,0x800
    80000570:	a9478793          	addi	a5,a5,-1388 # 80800000 <receive>
    80000574:	0157d793          	srli	a5,a5,0x15
    80000578:	1ff7f793          	andi	a5,a5,511
    8000057c:	0db76713          	ori	a4,a4,219
    80000580:	00001697          	auipc	a3,0x1
    80000584:	a8068693          	addi	a3,a3,-1408 # 80001000 <pt>
    80000588:	20078793          	addi	a5,a5,512
    8000058c:	00379793          	slli	a5,a5,0x3
    80000590:	00f687b3          	add	a5,a3,a5
    80000594:	00e7b023          	sd	a4,0(a5)
    80000598:	00004797          	auipc	a5,0x4
    8000059c:	a6878793          	addi	a5,a5,-1432 # 80004000 <pt+0x3000>
    800005a0:	00c7d793          	srli	a5,a5,0xc
    800005a4:	00a79713          	slli	a4,a5,0xa
    800005a8:	00600697          	auipc	a3,0x600
    800005ac:	a5868693          	addi	a3,a3,-1448 # 80600000 <attack>
    800005b0:	004007b7          	lui	a5,0x400
    800005b4:	00f687b3          	add	a5,a3,a5
    800005b8:	0157d793          	srli	a5,a5,0x15
    800005bc:	1ff7f793          	andi	a5,a5,511
    800005c0:	00176713          	ori	a4,a4,1
    800005c4:	00001697          	auipc	a3,0x1
    800005c8:	a3c68693          	addi	a3,a3,-1476 # 80001000 <pt>
    800005cc:	20078793          	addi	a5,a5,512 # 400200 <_start-0x7fbffe00>
    800005d0:	00379793          	slli	a5,a5,0x3
    800005d4:	00f687b3          	add	a5,a3,a5
    800005d8:	00e7b023          	sd	a4,0(a5)
    800005dc:	00c00797          	auipc	a5,0xc00
    800005e0:	a2478793          	addi	a5,a5,-1500 # 80c00000 <secret>
    800005e4:	00c7d793          	srli	a5,a5,0xc
    800005e8:	00a79713          	slli	a4,a5,0xa
    800005ec:	00c00797          	auipc	a5,0xc00
    800005f0:	a1478793          	addi	a5,a5,-1516 # 80c00000 <secret>
    800005f4:	0157d793          	srli	a5,a5,0x15
    800005f8:	1ff7f793          	andi	a5,a5,511
    800005fc:	0c776713          	ori	a4,a4,199
    80000600:	00001697          	auipc	a3,0x1
    80000604:	a0068693          	addi	a3,a3,-1536 # 80001000 <pt>
    80000608:	20078793          	addi	a5,a5,512
    8000060c:	00379793          	slli	a5,a5,0x3
    80000610:	00f687b3          	add	a5,a3,a5
    80000614:	00e7b023          	sd	a4,0(a5)
    80000618:	2a67f7b7          	lui	a5,0x2a67f
    8000061c:	db878793          	addi	a5,a5,-584 # 2a67edb8 <_start-0x55981248>
    80000620:	fef43423          	sd	a5,-24(s0)
    80000624:	fe843503          	ld	a0,-24(s0)
    80000628:	124000ef          	jal	ra,8000074c <config>
    8000062c:	00800793          	li	a5,8
    80000630:	fef43023          	sd	a5,-32(s0)
    80000634:	fe043783          	ld	a5,-32(s0)
    80000638:	03c79713          	slli	a4,a5,0x3c
    8000063c:	00001797          	auipc	a5,0x1
    80000640:	9c478793          	addi	a5,a5,-1596 # 80001000 <pt>
    80000644:	00c7d793          	srli	a5,a5,0xc
    80000648:	00f767b3          	or	a5,a4,a5
    8000064c:	fcf43c23          	sd	a5,-40(s0)
    80000650:	fd843783          	ld	a5,-40(s0)
    80000654:	18079073          	csrw	satp,a5
    80000658:	0000b7b7          	lui	a5,0xb
    8000065c:	1557879b          	addiw	a5,a5,341
    80000660:	30279073          	csrw	medeleg,a5
    80000664:	12000073          	sfence.vma
    80000668:	00000013          	nop
    8000066c:	02813083          	ld	ra,40(sp)
    80000670:	02013403          	ld	s0,32(sp)
    80000674:	03010113          	addi	sp,sp,48
    80000678:	00008067          	ret

000000008000067c <set_pte_attack>:
    8000067c:	fd010113          	addi	sp,sp,-48
    80000680:	02813423          	sd	s0,40(sp)
    80000684:	03010413          	addi	s0,sp,48
    80000688:	fca43c23          	sd	a0,-40(s0)
    8000068c:	fcb43823          	sd	a1,-48(s0)
    80000690:	fd843783          	ld	a5,-40(s0)
    80000694:	00c7d793          	srli	a5,a5,0xc
    80000698:	1ff7f793          	andi	a5,a5,511
    8000069c:	fef43423          	sd	a5,-24(s0)
    800006a0:	fd843783          	ld	a5,-40(s0)
    800006a4:	00c7d793          	srli	a5,a5,0xc
    800006a8:	00a79713          	slli	a4,a5,0xa
    800006ac:	fd043783          	ld	a5,-48(s0)
    800006b0:	00f76733          	or	a4,a4,a5
    800006b4:	00001697          	auipc	a3,0x1
    800006b8:	94c68693          	addi	a3,a3,-1716 # 80001000 <pt>
    800006bc:	fe843783          	ld	a5,-24(s0)
    800006c0:	40078793          	addi	a5,a5,1024 # b400 <_start-0x7fff4c00>
    800006c4:	00379793          	slli	a5,a5,0x3
    800006c8:	00f687b3          	add	a5,a3,a5
    800006cc:	00e7b023          	sd	a4,0(a5)
    800006d0:	00000013          	nop
    800006d4:	02813403          	ld	s0,40(sp)
    800006d8:	03010113          	addi	sp,sp,48
    800006dc:	00008067          	ret

00000000800006e0 <set_pte_user>:
    800006e0:	fd010113          	addi	sp,sp,-48
    800006e4:	02813423          	sd	s0,40(sp)
    800006e8:	03010413          	addi	s0,sp,48
    800006ec:	fca43c23          	sd	a0,-40(s0)
    800006f0:	fcb43823          	sd	a1,-48(s0)
    800006f4:	fd843703          	ld	a4,-40(s0)
    800006f8:	004007b7          	lui	a5,0x400
    800006fc:	00f707b3          	add	a5,a4,a5
    80000700:	00c7d793          	srli	a5,a5,0xc
    80000704:	1ff7f793          	andi	a5,a5,511
    80000708:	fef43423          	sd	a5,-24(s0)
    8000070c:	fd843783          	ld	a5,-40(s0)
    80000710:	00c7d793          	srli	a5,a5,0xc
    80000714:	00a79713          	slli	a4,a5,0xa
    80000718:	fd043783          	ld	a5,-48(s0)
    8000071c:	00f76733          	or	a4,a4,a5
    80000720:	00001697          	auipc	a3,0x1
    80000724:	8e068693          	addi	a3,a3,-1824 # 80001000 <pt>
    80000728:	fe843783          	ld	a5,-24(s0)
    8000072c:	60078793          	addi	a5,a5,1536 # 400600 <_start-0x7fbffa00>
    80000730:	00379793          	slli	a5,a5,0x3
    80000734:	00f687b3          	add	a5,a3,a5
    80000738:	00e7b023          	sd	a4,0(a5)
    8000073c:	00000013          	nop
    80000740:	02813403          	ld	s0,40(sp)
    80000744:	03010113          	addi	sp,sp,48
    80000748:	00008067          	ret

000000008000074c <config>:
    8000074c:	fd010113          	addi	sp,sp,-48
    80000750:	02113423          	sd	ra,40(sp)
    80000754:	02813023          	sd	s0,32(sp)
    80000758:	03010413          	addi	s0,sp,48
    8000075c:	fca43c23          	sd	a0,-40(s0)
    80000760:	00600797          	auipc	a5,0x600
    80000764:	8a078793          	addi	a5,a5,-1888 # 80600000 <attack>
    80000768:	0df00593          	li	a1,223
    8000076c:	00078513          	mv	a0,a5
    80000770:	f0dff0ef          	jal	ra,8000067c <set_pte_attack>
    80000774:	00601797          	auipc	a5,0x601
    80000778:	88c78793          	addi	a5,a5,-1908 # 80601000 <shared>
    8000077c:	0db00593          	li	a1,219
    80000780:	00078513          	mv	a0,a5
    80000784:	ef9ff0ef          	jal	ra,8000067c <set_pte_attack>
    80000788:	00600797          	auipc	a5,0x600
    8000078c:	87878793          	addi	a5,a5,-1928 # 80600000 <attack>
    80000790:	0df00593          	li	a1,223
    80000794:	00078513          	mv	a0,a5
    80000798:	f49ff0ef          	jal	ra,800006e0 <set_pte_user>
    8000079c:	00601797          	auipc	a5,0x601
    800007a0:	86478793          	addi	a5,a5,-1948 # 80601000 <shared>
    800007a4:	0db00593          	li	a1,219
    800007a8:	00078513          	mv	a0,a5
    800007ac:	f35ff0ef          	jal	ra,800006e0 <set_pte_user>
    800007b0:	fe042623          	sw	zero,-20(s0)
    800007b4:	0580006f          	j	8000080c <config+0xc0>
    800007b8:	0d700793          	li	a5,215
    800007bc:	fef43023          	sd	a5,-32(s0)
    800007c0:	fec42783          	lw	a5,-20(s0)
    800007c4:	00c79713          	slli	a4,a5,0xc
    800007c8:	00602797          	auipc	a5,0x602
    800007cc:	83878793          	addi	a5,a5,-1992 # 80602000 <data>
    800007d0:	00f707b3          	add	a5,a4,a5
    800007d4:	fe043583          	ld	a1,-32(s0)
    800007d8:	00078513          	mv	a0,a5
    800007dc:	ea1ff0ef          	jal	ra,8000067c <set_pte_attack>
    800007e0:	fec42783          	lw	a5,-20(s0)
    800007e4:	00c79713          	slli	a4,a5,0xc
    800007e8:	00602797          	auipc	a5,0x602
    800007ec:	81878793          	addi	a5,a5,-2024 # 80602000 <data>
    800007f0:	00f707b3          	add	a5,a4,a5
    800007f4:	0d700593          	li	a1,215
    800007f8:	00078513          	mv	a0,a5
    800007fc:	ee5ff0ef          	jal	ra,800006e0 <set_pte_user>
    80000800:	fec42783          	lw	a5,-20(s0)
    80000804:	0017879b          	addiw	a5,a5,1
    80000808:	fef42623          	sw	a5,-20(s0)
    8000080c:	fec42783          	lw	a5,-20(s0)
    80000810:	0007871b          	sext.w	a4,a5
    80000814:	00700793          	li	a5,7
    80000818:	fae7d0e3          	bge	a5,a4,800007b8 <config+0x6c>
    8000081c:	00000013          	nop
    80000820:	00000013          	nop
    80000824:	02813083          	ld	ra,40(sp)
    80000828:	02013403          	ld	s0,32(sp)
    8000082c:	03010113          	addi	sp,sp,48
    80000830:	00008067          	ret

Disassembly of section .bss:

0000000080001000 <pt>:
	...

Disassembly of section .tohost:

0000000080005000 <tohost>:
	...

0000000080005040 <fromhost>:
	...

0000000080005080 <timing>:
	...

Disassembly of section .text.preattack0:

0000000080200000 <pre_attack0>:
    80200000:	0a41804f          	fnmadd.d	ft0,ft3,ft4,ft1,rne

0000000080200004 <prp0.entry.l1>:
    80200004:	1d7a6a93          	ori	s5,s4,471

0000000080200008 <prp0.entry.l2>:
    80200008:	00401097          	auipc	ra,0x401
    8020000c:	048080e7          	jalr	72(ra) # 80601050 <fn1.exit>

0000000080200010 <prp0.entry.l3>:
    80200010:	0000100f          	fence.i

0000000080200014 <prp0.entry.l4>:
    80200014:	c0127b53          	fcvt.wu.s	s6,ft4

0000000080200018 <prp0.entry.l5>:
    80200018:	00cb1a93          	slli	s5,s6,0xc

000000008020001c <prp0.entry.l6>:
    8020001c:	58024153          	fsqrt.s	ft2,ft4,rmm

0000000080200020 <prp0.entry.l7>:
    80200020:	2a409053          	fmax.d	ft0,ft1,ft4

0000000080200024 <prp0.entry.l8>:
    80200024:	032b69b3          	rem	s3,s6,s2

0000000080200028 <prp0.entry.l9>:
    80200028:	0040096f          	jal	s2,8020002c <prp0.bb0>

000000008020002c <prp0.bb0>:
    8020002c:	e2011b53          	fclass.d	s6,ft2

0000000080200030 <prp0.bb0.l1>:
    80200030:	1220b053          	fmul.d	ft0,ft1,ft2,rup

0000000080200034 <prp0.bb0.l2>:
    80200034:	74092a93          	slti	s5,s2,1856

0000000080200038 <prp0.bb0.l3>:
    80200038:	007a1a9b          	slliw	s5,s4,0x7

000000008020003c <prp0.bb0.l4>:
    8020003c:	1a0220c3          	fmadd.d	ft1,ft4,ft0,ft3,rdn

0000000080200040 <prp0.bb0.l5>:
    80200040:	03696ab3          	rem	s5,s2,s6

0000000080200044 <prp0.bb0.l6>:
    80200044:	d20a0053          	fcvt.d.w	ft0,s4

0000000080200048 <prp0.bb0.l7>:
    80200048:	c0127ad3          	fcvt.wu.s	s5,ft4

000000008020004c <prp0.bb0.l8>:
    8020004c:	055a6863          	bltu	s4,s5,8020009c <pre_attack0_end>

0000000080200050 <prp0.bb1>:
    80200050:	012b39b3          	sltu	s3,s6,s2

0000000080200054 <prp0.bb1.l1>:
    80200054:	182200cb          	fnmsub.s	ft1,ft4,ft2,ft3,rne

0000000080200058 <prp0.bb1.l2>:
    80200058:	1a3030d3          	fdiv.d	ft1,ft0,ft3,rup

000000008020005c <prp0.bb1.l3>:
    8020005c:	2000a153          	fsgnjx.s	ft2,ft1,ft0

0000000080200060 <prp0.bb1.l4>:
    80200060:	015b4a33          	xor	s4,s6,s5

0000000080200064 <prp0.bb1.l5>:
    80200064:	f00b0153          	fmv.w.x	ft2,s6

0000000080200068 <prp0.bb1.l6>:
    80200068:	00401097          	auipc	ra,0x401
    8020006c:	f98080e7          	jalr	-104(ra) # 80601000 <shared>

0000000080200070 <prp0.bb1.l7>:
    80200070:	28320053          	fmin.s	ft0,ft4,ft3

0000000080200074 <prp0.bb1.l8>:
    80200074:	224110d3          	fsgnjn.d	ft1,ft2,ft4

0000000080200078 <prp0.bb1.l9>:
    80200078:	0000a1d3          	fadd.s	ft3,ft1,ft0,rdn

000000008020007c <prp0.bb1.l10>:
    8020007c:	0329d063          	bge	s3,s2,8020009c <pre_attack0_end>

0000000080200080 <prp0.bb2>:
    80200080:	d20a8053          	fcvt.d.w	ft0,s5

0000000080200084 <prp0.bb2.l1>:
    80200084:	03397b33          	remu	s6,s2,s3

0000000080200088 <prp0.bb2.l2>:
    80200088:	013b5ab3          	srl	s5,s6,s3

000000008020008c <prp0.bb2.l3>:
    8020008c:	22301153          	fsgnjn.d	ft2,ft0,ft3

0000000080200090 <prp0.bb2.l4>:
    80200090:	034af9b3          	remu	s3,s5,s4

0000000080200094 <prp0.bb2.l5>:
    80200094:	f20a80d3          	fmv.d.x	ft1,s5

0000000080200098 <prp0.bb2.l6>:
    80200098:	012b1263          	bne	s6,s2,8020009c <pre_attack0_end>

000000008020009c <pre_attack0_end>:
    8020009c:	00200097          	auipc	ra,0x200
    802000a0:	f64080e7          	jalr	-156(ra) # 80400000 <pre_attack1>

Disassembly of section .text.preattack1:

0000000080400000 <pre_attack1>:
    80400000:	a0418b53          	fle.s	s6,ft3,ft4

0000000080400004 <prp1.entry.l1>:
    80400004:	a2020ad3          	fle.d	s5,ft4,ft0

0000000080400008 <prp1.entry.l2>:
    80400008:	223130cf          	fnmadd.d	ft1,ft2,ft3,ft4,rup

000000008040000c <prp1.entry.l3>:
    8040000c:	00201097          	auipc	ra,0x201
    80400010:	080080e7          	jalr	128(ra) # 8060108c <fn3.exit>

0000000080400014 <prp1.entry.l4>:
    80400014:	d02af1d3          	fcvt.s.l	ft3,s5

0000000080400018 <prp1.entry.l5>:
    80400018:	20310253          	fsgnj.s	ft4,ft2,ft3

000000008040001c <prp1.entry.l6>:
    8040001c:	05390a93          	addi	s5,s2,83

0000000080400020 <prp1.entry.l7>:
    80400020:	015b5263          	bge	s6,s5,80400024 <prp1.bb0>

0000000080400024 <prp1.bb0>:
    80400024:	033b6ab3          	rem	s5,s6,s3

0000000080400028 <prp1.bb0.l1>:
    80400028:	0329fa3b          	remuw	s4,s3,s2

000000008040002c <prp1.bb0.l2>:
    8040002c:	01599933          	sll	s2,s3,s5

0000000080400030 <prp1.bb0.l3>:
    80400030:	0ff0000f          	fence

0000000080400034 <prp1.bb0.l4>:
    80400034:	0129da33          	srl	s4,s3,s2

0000000080400038 <prp1.bb0.l5>:
    80400038:	024170cb          	fnmsub.d	ft1,ft2,ft4,ft0

000000008040003c <prp1.bb0.l6>:
    8040003c:	00201097          	auipc	ra,0x201
    80400040:	014080e7          	jalr	20(ra) # 80601050 <fn1.exit>

0000000080400044 <prp1.bb0.l7>:
    80400044:	054b4e63          	blt	s6,s4,804000a0 <prp1.bb3>

0000000080400048 <prp1.bb1>:
    80400048:	0ff0000f          	fence

000000008040004c <prp1.bb1.l1>:
    8040004c:	052afa63          	bgeu	s5,s2,804000a0 <prp1.bb3>

0000000080400050 <prp1.bb1.l2>:
    80400050:	540a3b13          	sltiu	s6,s4,1344

0000000080400054 <prp1.bb1.l3>:
    80400054:	036a1063          	bne	s4,s6,80400074 <prp1.bb2>

0000000080400058 <prp1.bb1.l4>:
    80400058:	00201097          	auipc	ra,0x201
    8040005c:	ff8080e7          	jalr	-8(ra) # 80601050 <fn1.exit>

0000000080400060 <prp1.bb1.l5>:
    80400060:	00201097          	auipc	ra,0x201
    80400064:	ff0080e7          	jalr	-16(ra) # 80601050 <fn1.exit>

0000000080400068 <prp1.bb1.l6>:
    80400068:	1619aa13          	slti	s4,s3,353

000000008040006c <prp1.bb1.l7>:
    8040006c:	014b7933          	and	s2,s6,s4

0000000080400070 <prp1.bb1.l8>:
    80400070:	015a0263          	beq	s4,s5,80400074 <prp1.bb2>

0000000080400074 <prp1.bb2>:
    80400074:	00201097          	auipc	ra,0x201
    80400078:	018080e7          	jalr	24(ra) # 8060108c <fn3.exit>

000000008040007c <prp1.bb2.l1>:
    8040007c:	203000c7          	fmsub.s	ft1,ft0,ft3,ft4,rne

0000000080400080 <prp1.bb2.l2>:
    80400080:	00201097          	auipc	ra,0x201
    80400084:	f80080e7          	jalr	-128(ra) # 80601000 <shared>

0000000080400088 <prp1.bb2.l3>:
    80400088:	2a4010d3          	fmax.d	ft1,ft0,ft4

000000008040008c <prp1.bb2.l4>:
    8040008c:	023130cb          	fnmsub.d	ft1,ft2,ft3,ft0,rup

0000000080400090 <prp1.bb2.l5>:
    80400090:	42020253          	fcvt.d.s	ft4,ft4

0000000080400094 <prp1.bb2.l6>:
    80400094:	074af463          	bgeu	s5,s4,804000fc <pre_attack1_end>

0000000080400098 <prp1.bb2.l7>:
    80400098:	d23b7053          	fcvt.d.lu	ft0,s6

000000008040009c <prp1.bb2.l8>:
    8040009c:	0040096f          	jal	s2,804000a0 <prp1.bb3>

00000000804000a0 <prp1.bb3>:
    804000a0:	4c59099b          	addiw	s3,s2,1221

00000000804000a4 <prp1.bb3.l1>:
    804000a4:	000121d3          	fadd.s	ft3,ft2,ft0,rdn

00000000804000a8 <prp1.bb3.l2>:
    804000a8:	00201097          	auipc	ra,0x201
    804000ac:	f7c080e7          	jalr	-132(ra) # 80601024 <fn0.exit>

00000000804000b0 <prp1.bb3.l3>:
    804000b0:	03595063          	bge	s2,s5,804000d0 <prp1.bb4>

00000000804000b4 <prp1.bb3.l4>:
    804000b4:	473b4a93          	xori	s5,s6,1139

00000000804000b8 <prp1.bb3.l5>:
    804000b8:	098b2a93          	slti	s5,s6,152

00000000804000bc <prp1.bb3.l6>:
    804000bc:	1a413053          	fdiv.d	ft0,ft2,ft4,rup

00000000804000c0 <prp1.bb3.l7>:
    804000c0:	5c293a13          	sltiu	s4,s2,1474

00000000804000c4 <prp1.bb3.l8>:
    804000c4:	2011a253          	fsgnjx.s	ft4,ft3,ft1

00000000804000c8 <prp1.bb3.l9>:
    804000c8:	20308153          	fsgnj.s	ft2,ft1,ft3

00000000804000cc <prp1.bb3.l10>:
    804000cc:	0149e263          	bltu	s3,s4,804000d0 <prp1.bb4>

00000000804000d0 <prp1.bb4>:
    804000d0:	032a49b3          	div	s3,s4,s2

00000000804000d4 <prp1.bb4.l1>:
    804000d4:	00201097          	auipc	ra,0x201
    804000d8:	f50080e7          	jalr	-176(ra) # 80601024 <fn0.exit>

00000000804000dc <prp1.bb4.l2>:
    804000dc:	035b4063          	blt	s6,s5,804000fc <pre_attack1_end>

00000000804000e0 <prp1.bb4.l3>:
    804000e0:	035b5a3b          	divuw	s4,s6,s5

00000000804000e4 <prp1.bb4.l4>:
    804000e4:	f2090253          	fmv.d.x	ft4,s2

00000000804000e8 <prp1.bb4.l5>:
    804000e8:	d2098153          	fcvt.d.w	ft2,s3

00000000804000ec <prp1.bb4.l6>:
    804000ec:	00201097          	auipc	ra,0x201
    804000f0:	f80080e7          	jalr	-128(ra) # 8060106c <fn2.exit>

00000000804000f4 <prp1.bb4.l7>:
    804000f4:	004040d3          	fadd.s	ft1,ft0,ft4,rmm

00000000804000f8 <prp1.bb4.l8>:
    804000f8:	00400aef          	jal	s5,804000fc <pre_attack1_end>

00000000804000fc <pre_attack1_end>:
    804000fc:	00200097          	auipc	ra,0x200
    80400100:	f04080e7          	jalr	-252(ra) # 80600000 <attack>

Disassembly of section .text.attack:

0000000080600000 <attack>:
    80600000:	035b2a33          	mulhsu	s4,s6,s5

0000000080600004 <tc.entry.l1>:
    80600004:	28410053          	fmin.s	ft0,ft2,ft4

0000000080600008 <tc.entry.l2>:
    80600008:	0349ec63          	bltu	s3,s4,80600040 <tc.bb0>
    8060000c:	0ff0000f          	fence
    80600010:	00000517          	auipc	a0,0x0
    80600014:	2f050513          	addi	a0,a0,752 # 80600300 <spdoc>
    80600018:	00100293          	li	t0,1
    8060001c:	00553023          	sd	t0,0(a0)
    80600020:	0000006f          	j	80600020 <tc.entry.l2+0x18>

0000000080600024 <tc.entry.l3>:
    80600024:	0169c933          	xor	s2,s3,s6

0000000080600028 <tc.entry.l4>:
    80600028:	3f8b7b13          	andi	s6,s6,1016
    8060002c:	00007a97          	auipc	s5,0x7
    80600030:	fd4a8a93          	addi	s5,s5,-44 # 80607000 <data5>
    80600034:	015b0b33          	add	s6,s6,s5
    80600038:	814b292f          	amomin.w	s2,s4,(s6)

000000008060003c <tc.entry.l5>:
    8060003c:	215b4a63          	blt	s6,s5,80600250 <tc.bb1>

0000000080600040 <tc.bb0>:
    80600040:	28730453          	fmin.s	fs0,ft6,ft7

0000000080600044 <tsx.entry.l1>:
    80600044:	3f8cfc93          	andi	s9,s9,1016
    80600048:	00003d97          	auipc	s11,0x3
    8060004c:	fb8d8d93          	addi	s11,s11,-72 # 80603000 <data1>
    80600050:	01bc8cb3          	add	s9,s9,s11
    80600054:	01acbc2f          	amoadd.d	s8,s10,(s9)

0000000080600058 <tsx.entry.l2>:
    80600058:	1a7444d3          	fdiv.d	fs1,fs0,ft7,rmm

000000008060005c <tsx.entry.l3>:
    8060005c:	220d6b93          	ori	s7,s10,544

0000000080600060 <tsx.entry.l4>:
    80600060:	7c5000ef          	jal	ra,80601024 <fn0.exit>

0000000080600064 <tsx.entry.l5>:
    80600064:	3f8bfb93          	andi	s7,s7,1016
    80600068:	00006c17          	auipc	s8,0x6
    8060006c:	f98c0c13          	addi	s8,s8,-104 # 80606000 <data4>
    80600070:	018b8bb3          	add	s7,s7,s8
    80600074:	01abbdaf          	amoadd.d	s11,s10,(s7)

0000000080600078 <tsx.entry.l6>:
    80600078:	20540353          	fsgnj.s	ft6,fs0,ft5

000000008060007c <tsx.entry.l7>:
    8060007c:	07abfa63          	bgeu	s7,s10,806000f0 <tsx.bb2>

0000000080600080 <tsx.bb0>:
    80600080:	004c9b9b          	slliw	s7,s9,0x4

0000000080600084 <tsx.bb0.l1>:
    80600084:	2282a353          	fsgnjx.d	ft6,ft5,fs0

0000000080600088 <tsx.bb0.l2>:
    80600088:	00fddc9b          	srliw	s9,s11,0xf

000000008060008c <tsx.bb0.l3>:
    8060008c:	7e1000ef          	jal	ra,8060106c <fn2.exit>

0000000080600090 <tsx.bb0.l4>:
    80600090:	a0729dd3          	flt.s	s11,ft5,ft7

0000000080600094 <tsx.bb0.l5>:
    80600094:	5804f353          	fsqrt.s	ft6,fs1

0000000080600098 <tsx.bb0.l6>:
    80600098:	05800c6f          	jal	s8,806000f0 <tsx.bb2>

000000008060009c <tsx.bb1>:
    8060009c:	3f8dfd93          	andi	s11,s11,1016
    806000a0:	00002c97          	auipc	s9,0x2
    806000a4:	f60c8c93          	addi	s9,s9,-160 # 80602000 <data>
    806000a8:	019d8db3          	add	s11,s11,s9
    806000ac:	417dbc2f          	amoor.d	s8,s7,(s11)

00000000806000b0 <tsx.bb1.l1>:
    806000b0:	386294cf          	fnmadd.s	fs1,ft5,ft6,ft7,rtz

00000000806000b4 <tsx.bb1.l2>:
    806000b4:	2a74734b          	fnmsub.d	ft6,fs0,ft7,ft5

00000000806000b8 <tsx.bb1.l3>:
    806000b8:	3f8d7d13          	andi	s10,s10,1016
    806000bc:	00005c97          	auipc	s9,0x5
    806000c0:	f44c8c93          	addi	s9,s9,-188 # 80605000 <data3>
    806000c4:	019d0d33          	add	s10,s10,s9
    806000c8:	100d3c2f          	lr.d	s8,(s10)

00000000806000cc <tsx.bb1.l4>:
    806000cc:	7a1000ef          	jal	ra,8060106c <fn2.exit>

00000000806000d0 <tsx.bb1.l5>:
    806000d0:	781000ef          	jal	ra,80601050 <fn1.exit>

00000000806000d4 <tsx.bb1.l6>:
    806000d4:	3f8c7c13          	andi	s8,s8,1016
    806000d8:	00003b97          	auipc	s7,0x3
    806000dc:	f28b8b93          	addi	s7,s7,-216 # 80603000 <data1>
    806000e0:	017c0c33          	add	s8,s8,s7
    806000e4:	19bc2d2f          	sc.w	s10,s11,(s8)

00000000806000e8 <tsx.bb1.l7>:
    806000e8:	2253a353          	fsgnjx.d	ft6,ft7,ft5

00000000806000ec <tsx.bb1.l8>:
    806000ec:	01bbe263          	bltu	s7,s11,806000f0 <tsx.bb2>

00000000806000f0 <tsx.bb2>:
    806000f0:	3f8cfc93          	andi	s9,s9,1016
    806000f4:	00006b97          	auipc	s7,0x6
    806000f8:	f0cb8b93          	addi	s7,s7,-244 # 80606000 <data4>
    806000fc:	017c8cb3          	add	s9,s9,s7
    80600100:	012c9c03          	lh	s8,18(s9)

0000000080600104 <tsx.bb2.l1>:
    80600104:	3f8cfc93          	andi	s9,s9,1016
    80600108:	00009d17          	auipc	s10,0x9
    8060010c:	ef8d0d13          	addi	s10,s10,-264 # 80609000 <data7>
    80600110:	01ac8cb3          	add	s9,s9,s10
    80600114:	e1bcbbaf          	amomaxu.d	s7,s11,(s9)

0000000080600118 <tsx.bb2.l2>:
    80600118:	00dd3db7          	lui	s11,0xdd3

000000008060011c <tsx.bb2.l3>:
    8060011c:	41abdc1b          	sraiw	s8,s7,0x1a

0000000080600120 <tsx.bb2.l4>:
    80600120:	c033fd53          	fcvt.lu.s	s10,ft7

0000000080600124 <tsx.bb2.l5>:
    80600124:	769000ef          	jal	ra,8060108c <fn3.exit>

0000000080600128 <tsx.bb2.l6>:
    80600128:	3f8cfc93          	andi	s9,s9,1016
    8060012c:	00002d97          	auipc	s11,0x2
    80600130:	ed4d8d93          	addi	s11,s11,-300 # 80602000 <data>
    80600134:	01bc8cb3          	add	s9,s9,s11
    80600138:	618cbd2f          	amoand.d	s10,s8,(s9)

000000008060013c <tsx.bb2.l7>:
    8060013c:	00000b97          	auipc	s7,0x0
    80600140:	0c4b8b93          	addi	s7,s7,196 # 80600200 <tsx.bb3>
    80600144:	000b8c67          	jalr	s8,s7
    80600148:	00000013          	nop
    8060014c:	00000013          	nop
    80600150:	00000013          	nop
    80600154:	00000013          	nop
    80600158:	00000013          	nop
    8060015c:	00000013          	nop
    80600160:	00000013          	nop
    80600164:	00000013          	nop
    80600168:	00000013          	nop
    8060016c:	00000013          	nop
    80600170:	00000013          	nop
    80600174:	00000013          	nop
    80600178:	00000013          	nop
    8060017c:	00000013          	nop
    80600180:	00000013          	nop
    80600184:	00000013          	nop
    80600188:	00000013          	nop
    8060018c:	00000013          	nop
    80600190:	00000013          	nop
    80600194:	00000013          	nop
    80600198:	00000013          	nop
    8060019c:	00000013          	nop
    806001a0:	00000013          	nop
    806001a4:	00000013          	nop
    806001a8:	00000013          	nop
    806001ac:	00000013          	nop
    806001b0:	00000013          	nop
    806001b4:	00000013          	nop
    806001b8:	00000013          	nop
    806001bc:	00000013          	nop
    806001c0:	00000013          	nop
    806001c4:	00000013          	nop
    806001c8:	00000013          	nop
    806001cc:	00000013          	nop
    806001d0:	00000013          	nop
    806001d4:	00000013          	nop
    806001d8:	00000013          	nop
    806001dc:	00000013          	nop
    806001e0:	00000013          	nop
    806001e4:	00000013          	nop
    806001e8:	00000013          	nop
    806001ec:	00000013          	nop
    806001f0:	00000013          	nop
    806001f4:	00000013          	nop
    806001f8:	00000013          	nop
    806001fc:	00000013          	nop

0000000080600200 <tsx.bb3>:
    80600200:	207492d3          	fsgnjn.s	ft5,fs1,ft7

0000000080600204 <tsx.bb3.l1>:
    80600204:	417d8cb3          	sub	s9,s11,s7

0000000080600208 <tsx.bb3.l2>:
    80600208:	019bfdb3          	and	s11,s7,s9

000000008060020c <tsx.bb3.l3>:
    8060020c:	d23cf453          	fcvt.d.lu	fs0,s9

0000000080600210 <tsx.bb3.l4>:
    80600210:	039d4bb3          	div	s7,s10,s9

0000000080600214 <tsx.bb3.l5>:
    80600214:	03bc7cbb          	remuw	s9,s8,s11

0000000080600218 <tsx.bb3.l6>:
    80600218:	d21c02d3          	fcvt.d.wu	ft5,s8

000000008060021c <tsx.bb3.l7>:
    8060021c:	1854a353          	fdiv.s	ft6,fs1,ft5,rdn

0000000080600220 <tsx.bb3.l8>:
    80600220:	013d9b9b          	slliw	s7,s11,0x13

0000000080600224 <tsx.bb3.l9>:
    80600224:	0a933453          	fsub.d	fs0,ft6,fs1,rup

0000000080600228 <tsx.bb3.l10>:
    80600228:	019df263          	bgeu	s11,s9,8060022c <tc.bb0.l0>

000000008060022c <tc.bb0.l0>:
    8060022c:	0349eb3b          	remw	s6,s3,s4

0000000080600230 <tc.bb0.l1>:
    80600230:	016a59b3          	srl	s3,s4,s6

0000000080600234 <tc.bb0.l2>:
    80600234:	5f1000ef          	jal	ra,80601024 <fn0.exit>

0000000080600238 <tc.bb0.l3>:
    80600238:	a2119ad3          	flt.d	s5,ft3,ft1

000000008060023c <tc.bb0.l4>:
    8060023c:	615000ef          	jal	ra,80601050 <fn1.exit>

0000000080600240 <tc.bb0.l5>:
    80600240:	c030fad3          	fcvt.lu.s	s5,ft1

0000000080600244 <tc.bb0.l6>:
    80600244:	016a6663          	bltu	s4,s6,80600250 <tc.bb1>

0000000080600248 <tc.bb0.l7>:
    80600248:	2211c04b          	fnmsub.d	ft0,ft3,ft1,ft4,rmm

000000008060024c <tc.bb0.l8>:
    8060024c:	0b69d263          	bge	s3,s6,806002f0 <attack_end>

0000000080600250 <tc.bb1>:
    80600250:	1820b1d3          	fdiv.s	ft3,ft1,ft2,rup

0000000080600254 <tc.bb1.l1>:
    80600254:	5fd000ef          	jal	ra,80601050 <fn1.exit>

0000000080600258 <tc.bb1.l2>:
    80600258:	630a8b1b          	addiw	s6,s5,1584

000000008060025c <tc.bb1.l3>:
    8060025c:	100091c7          	fmsub.s	ft3,ft1,ft0,ft2,rtz

0000000080600260 <tc.bb1.l4>:
    80600260:	3f8a7a13          	andi	s4,s4,1016
    80600264:	00007a97          	auipc	s5,0x7
    80600268:	d9ca8a93          	addi	s5,s5,-612 # 80607000 <data5>
    8060026c:	015a0a33          	add	s4,s4,s5
    80600270:	000a2983          	lw	s3,0(s4)

0000000080600274 <tc.bb1.l5>:
    80600274:	1a40c143          	fmadd.d	ft2,ft1,ft4,ft3,rmm

0000000080600278 <tc.bb1.l6>:
    80600278:	032a3b33          	mulhu	s6,s4,s2

000000008060027c <tc.bb1.l7>:
    8060027c:	3f897913          	andi	s2,s2,1016
    80600280:	00008b17          	auipc	s6,0x8
    80600284:	d80b0b13          	addi	s6,s6,-640 # 80608000 <data6>
    80600288:	01690933          	add	s2,s2,s6
    8060028c:	c1392a2f          	amominu.w	s4,s3,(s2)

0000000080600290 <tc.bb1.l8>:
    80600290:	3f897913          	andi	s2,s2,1016
    80600294:	00002b17          	auipc	s6,0x2
    80600298:	d6cb0b13          	addi	s6,s6,-660 # 80602000 <data>
    8060029c:	01690933          	add	s2,s2,s6
    806002a0:	61392aaf          	amoand.w	s5,s3,(s2)

00000000806002a4 <tc.bb1.l9>:
    806002a4:	04c009ef          	jal	s3,806002f0 <attack_end>

00000000806002a8 <tc.bb2>:
    806002a8:	1800f253          	fdiv.s	ft4,ft1,ft0

00000000806002ac <tc.bb2.l1>:
    806002ac:	555000ef          	jal	ra,80601000 <shared>

00000000806002b0 <tc.bb2.l2>:
    806002b0:	03691a33          	mulh	s4,s2,s6

00000000806002b4 <tc.bb2.l3>:
    806002b4:	3f8a7a13          	andi	s4,s4,1016
    806002b8:	00002b17          	auipc	s6,0x2
    806002bc:	d48b0b13          	addi	s6,s6,-696 # 80602000 <data>
    806002c0:	016a0a33          	add	s4,s4,s6
    806002c4:	a12a39af          	amomax.d	s3,s2,(s4)

00000000806002c8 <tc.bb2.l4>:
    806002c8:	01693ab3          	sltu	s5,s2,s6

00000000806002cc <tc.bb2.l5>:
    806002cc:	f20900d3          	fmv.d.x	ft1,s2

00000000806002d0 <tc.bb2.l6>:
    806002d0:	3f897913          	andi	s2,s2,1016
    806002d4:	00008997          	auipc	s3,0x8
    806002d8:	d2c98993          	addi	s3,s3,-724 # 80608000 <data6>
    806002dc:	01390933          	add	s2,s2,s3
    806002e0:	00093007          	fld	ft0,0(s2)

00000000806002e4 <tc.bb2.l7>:
    806002e4:	103270c3          	fmadd.s	ft1,ft4,ft3,ft2

00000000806002e8 <tc.bb2.l8>:
    806002e8:	03da5a93          	srli	s5,s4,0x3d

00000000806002ec <tc.bb2.l9>:
    806002ec:	00400aef          	jal	s5,806002f0 <attack_end>

00000000806002f0 <attack_end>:
    806002f0:	00000073          	ecall
    806002f4:	00000013          	nop
    806002f8:	00000013          	nop
    806002fc:	00000013          	nop

0000000080600300 <spdoc>:
	...
    80600308:	00000013          	nop
    8060030c:	00000013          	nop
    80600310:	00000013          	nop
    80600314:	00000013          	nop
    80600318:	00000013          	nop
    8060031c:	00000013          	nop
    80600320:	00000013          	nop
    80600324:	00000013          	nop
    80600328:	00000013          	nop
    8060032c:	00000013          	nop
    80600330:	00000013          	nop
    80600334:	00000013          	nop
    80600338:	00000013          	nop
    8060033c:	00000013          	nop
    80600340:	00000013          	nop
    80600344:	00000013          	nop
    80600348:	00000013          	nop
    8060034c:	00000013          	nop
    80600350:	00000013          	nop
    80600354:	00000013          	nop
    80600358:	00000013          	nop
    8060035c:	00000013          	nop
    80600360:	00000013          	nop
    80600364:	00000013          	nop
    80600368:	00000013          	nop
    8060036c:	00000013          	nop
    80600370:	00000013          	nop
    80600374:	00000013          	nop
    80600378:	00000013          	nop
    8060037c:	00000013          	nop
    80600380:	00000013          	nop
    80600384:	00000013          	nop
    80600388:	00000013          	nop
    8060038c:	00000013          	nop
    80600390:	00000013          	nop
    80600394:	00000013          	nop
    80600398:	00000013          	nop
    8060039c:	00000013          	nop
    806003a0:	00000013          	nop
    806003a4:	00000013          	nop
    806003a8:	00000013          	nop
    806003ac:	00000013          	nop
    806003b0:	00000013          	nop
    806003b4:	00000013          	nop
    806003b8:	00000013          	nop
    806003bc:	00000013          	nop
    806003c0:	00000013          	nop
    806003c4:	00000013          	nop
    806003c8:	00000013          	nop
    806003cc:	00000013          	nop
    806003d0:	00000013          	nop
    806003d4:	00000013          	nop
    806003d8:	00000013          	nop
    806003dc:	00000013          	nop
    806003e0:	00000013          	nop
    806003e4:	00000013          	nop
    806003e8:	00000013          	nop
    806003ec:	00000013          	nop
    806003f0:	00000013          	nop
    806003f4:	00000013          	nop
    806003f8:	00000013          	nop
    806003fc:	00000013          	nop
    80600400:	00000013          	nop
    80600404:	00000013          	nop
    80600408:	00000013          	nop
    8060040c:	00000013          	nop
    80600410:	00000013          	nop
    80600414:	00000013          	nop
    80600418:	00000013          	nop
    8060041c:	00000013          	nop
    80600420:	00000013          	nop
    80600424:	00000013          	nop
    80600428:	00000013          	nop
    8060042c:	00000013          	nop
    80600430:	00000013          	nop
    80600434:	00000013          	nop
    80600438:	00000013          	nop
    8060043c:	00000013          	nop
    80600440:	00000013          	nop
    80600444:	00000013          	nop
    80600448:	00000013          	nop
    8060044c:	00000013          	nop
    80600450:	00000013          	nop
    80600454:	00000013          	nop
    80600458:	00000013          	nop
    8060045c:	00000013          	nop
    80600460:	00000013          	nop
    80600464:	00000013          	nop
    80600468:	00000013          	nop
    8060046c:	00000013          	nop
    80600470:	00000013          	nop
    80600474:	00000013          	nop
    80600478:	00000013          	nop
    8060047c:	00000013          	nop
    80600480:	00000013          	nop
    80600484:	00000013          	nop
    80600488:	00000013          	nop
    8060048c:	00000013          	nop
    80600490:	00000013          	nop
    80600494:	00000013          	nop
    80600498:	00000013          	nop
    8060049c:	00000013          	nop
    806004a0:	00000013          	nop
    806004a4:	00000013          	nop
    806004a8:	00000013          	nop
    806004ac:	00000013          	nop
    806004b0:	00000013          	nop
    806004b4:	00000013          	nop
    806004b8:	00000013          	nop
    806004bc:	00000013          	nop
    806004c0:	00000013          	nop
    806004c4:	00000013          	nop
    806004c8:	00000013          	nop
    806004cc:	00000013          	nop
    806004d0:	00000013          	nop
    806004d4:	00000013          	nop
    806004d8:	00000013          	nop
    806004dc:	00000013          	nop
    806004e0:	00000013          	nop
    806004e4:	00000013          	nop
    806004e8:	00000013          	nop
    806004ec:	00000013          	nop
    806004f0:	00000013          	nop
    806004f4:	00000013          	nop
    806004f8:	00000013          	nop
    806004fc:	00000013          	nop
    80600500:	00000013          	nop
    80600504:	00000013          	nop
    80600508:	00000013          	nop
    8060050c:	00000013          	nop
    80600510:	00000013          	nop
    80600514:	00000013          	nop
    80600518:	00000013          	nop
    8060051c:	00000013          	nop
    80600520:	00000013          	nop
    80600524:	00000013          	nop
    80600528:	00000013          	nop
    8060052c:	00000013          	nop
    80600530:	00000013          	nop
    80600534:	00000013          	nop
    80600538:	00000013          	nop
    8060053c:	00000013          	nop
    80600540:	00000013          	nop
    80600544:	00000013          	nop
    80600548:	00000013          	nop
    8060054c:	00000013          	nop
    80600550:	00000013          	nop
    80600554:	00000013          	nop
    80600558:	00000013          	nop
    8060055c:	00000013          	nop
    80600560:	00000013          	nop
    80600564:	00000013          	nop
    80600568:	00000013          	nop
    8060056c:	00000013          	nop
    80600570:	00000013          	nop
    80600574:	00000013          	nop
    80600578:	00000013          	nop
    8060057c:	00000013          	nop
    80600580:	00000013          	nop
    80600584:	00000013          	nop
    80600588:	00000013          	nop
    8060058c:	00000013          	nop
    80600590:	00000013          	nop
    80600594:	00000013          	nop
    80600598:	00000013          	nop
    8060059c:	00000013          	nop
    806005a0:	00000013          	nop
    806005a4:	00000013          	nop
    806005a8:	00000013          	nop
    806005ac:	00000013          	nop
    806005b0:	00000013          	nop
    806005b4:	00000013          	nop
    806005b8:	00000013          	nop
    806005bc:	00000013          	nop
    806005c0:	00000013          	nop
    806005c4:	00000013          	nop
    806005c8:	00000013          	nop
    806005cc:	00000013          	nop
    806005d0:	00000013          	nop
    806005d4:	00000013          	nop
    806005d8:	00000013          	nop
    806005dc:	00000013          	nop
    806005e0:	00000013          	nop
    806005e4:	00000013          	nop
    806005e8:	00000013          	nop
    806005ec:	00000013          	nop
    806005f0:	00000013          	nop
    806005f4:	00000013          	nop
    806005f8:	00000013          	nop
    806005fc:	00000013          	nop
    80600600:	00000013          	nop
    80600604:	00000013          	nop
    80600608:	00000013          	nop
    8060060c:	00000013          	nop
    80600610:	00000013          	nop
    80600614:	00000013          	nop
    80600618:	00000013          	nop
    8060061c:	00000013          	nop
    80600620:	00000013          	nop
    80600624:	00000013          	nop
    80600628:	00000013          	nop
    8060062c:	00000013          	nop
    80600630:	00000013          	nop
    80600634:	00000013          	nop
    80600638:	00000013          	nop
    8060063c:	00000013          	nop
    80600640:	00000013          	nop
    80600644:	00000013          	nop
    80600648:	00000013          	nop
    8060064c:	00000013          	nop
    80600650:	00000013          	nop
    80600654:	00000013          	nop
    80600658:	00000013          	nop
    8060065c:	00000013          	nop
    80600660:	00000013          	nop
    80600664:	00000013          	nop
    80600668:	00000013          	nop
    8060066c:	00000013          	nop
    80600670:	00000013          	nop
    80600674:	00000013          	nop
    80600678:	00000013          	nop
    8060067c:	00000013          	nop
    80600680:	00000013          	nop
    80600684:	00000013          	nop
    80600688:	00000013          	nop
    8060068c:	00000013          	nop
    80600690:	00000013          	nop
    80600694:	00000013          	nop
    80600698:	00000013          	nop
    8060069c:	00000013          	nop
    806006a0:	00000013          	nop
    806006a4:	00000013          	nop
    806006a8:	00000013          	nop
    806006ac:	00000013          	nop
    806006b0:	00000013          	nop
    806006b4:	00000013          	nop
    806006b8:	00000013          	nop
    806006bc:	00000013          	nop
    806006c0:	00000013          	nop
    806006c4:	00000013          	nop
    806006c8:	00000013          	nop
    806006cc:	00000013          	nop
    806006d0:	00000013          	nop
    806006d4:	00000013          	nop
    806006d8:	00000013          	nop
    806006dc:	00000013          	nop
    806006e0:	00000013          	nop
    806006e4:	00000013          	nop
    806006e8:	00000013          	nop
    806006ec:	00000013          	nop
    806006f0:	00000013          	nop
    806006f4:	00000013          	nop
    806006f8:	00000013          	nop
    806006fc:	00000013          	nop
    80600700:	00000013          	nop
    80600704:	00000013          	nop
    80600708:	00000013          	nop
    8060070c:	00000013          	nop
    80600710:	00000013          	nop
    80600714:	00000013          	nop
    80600718:	00000013          	nop
    8060071c:	00000013          	nop
    80600720:	00000013          	nop
    80600724:	00000013          	nop
    80600728:	00000013          	nop
    8060072c:	00000013          	nop
    80600730:	00000013          	nop
    80600734:	00000013          	nop
    80600738:	00000013          	nop
    8060073c:	00000013          	nop
    80600740:	00000013          	nop
    80600744:	00000013          	nop
    80600748:	00000013          	nop
    8060074c:	00000013          	nop
    80600750:	00000013          	nop
    80600754:	00000013          	nop
    80600758:	00000013          	nop
    8060075c:	00000013          	nop
    80600760:	00000013          	nop
    80600764:	00000013          	nop
    80600768:	00000013          	nop
    8060076c:	00000013          	nop
    80600770:	00000013          	nop
    80600774:	00000013          	nop
    80600778:	00000013          	nop
    8060077c:	00000013          	nop
    80600780:	00000013          	nop
    80600784:	00000013          	nop
    80600788:	00000013          	nop
    8060078c:	00000013          	nop
    80600790:	00000013          	nop
    80600794:	00000013          	nop
    80600798:	00000013          	nop
    8060079c:	00000013          	nop
    806007a0:	00000013          	nop
    806007a4:	00000013          	nop
    806007a8:	00000013          	nop
    806007ac:	00000013          	nop
    806007b0:	00000013          	nop
    806007b4:	00000013          	nop
    806007b8:	00000013          	nop
    806007bc:	00000013          	nop
    806007c0:	00000013          	nop
    806007c4:	00000013          	nop
    806007c8:	00000013          	nop
    806007cc:	00000013          	nop
    806007d0:	00000013          	nop
    806007d4:	00000013          	nop
    806007d8:	00000013          	nop
    806007dc:	00000013          	nop
    806007e0:	00000013          	nop
    806007e4:	00000013          	nop
    806007e8:	00000013          	nop
    806007ec:	00000013          	nop
    806007f0:	00000013          	nop
    806007f4:	00000013          	nop
    806007f8:	00000013          	nop
    806007fc:	00000013          	nop
    80600800:	00000013          	nop
    80600804:	00000013          	nop
    80600808:	00000013          	nop
    8060080c:	00000013          	nop
    80600810:	00000013          	nop
    80600814:	00000013          	nop
    80600818:	00000013          	nop
    8060081c:	00000013          	nop
    80600820:	00000013          	nop
    80600824:	00000013          	nop
    80600828:	00000013          	nop
    8060082c:	00000013          	nop
    80600830:	00000013          	nop
    80600834:	00000013          	nop
    80600838:	00000013          	nop
    8060083c:	00000013          	nop
    80600840:	00000013          	nop
    80600844:	00000013          	nop
    80600848:	00000013          	nop
    8060084c:	00000013          	nop
    80600850:	00000013          	nop
    80600854:	00000013          	nop
    80600858:	00000013          	nop
    8060085c:	00000013          	nop
    80600860:	00000013          	nop
    80600864:	00000013          	nop
    80600868:	00000013          	nop
    8060086c:	00000013          	nop
    80600870:	00000013          	nop
    80600874:	00000013          	nop
    80600878:	00000013          	nop
    8060087c:	00000013          	nop
    80600880:	00000013          	nop
    80600884:	00000013          	nop
    80600888:	00000013          	nop
    8060088c:	00000013          	nop
    80600890:	00000013          	nop
    80600894:	00000013          	nop
    80600898:	00000013          	nop
    8060089c:	00000013          	nop
    806008a0:	00000013          	nop
    806008a4:	00000013          	nop
    806008a8:	00000013          	nop
    806008ac:	00000013          	nop
    806008b0:	00000013          	nop
    806008b4:	00000013          	nop
    806008b8:	00000013          	nop
    806008bc:	00000013          	nop
    806008c0:	00000013          	nop
    806008c4:	00000013          	nop
    806008c8:	00000013          	nop
    806008cc:	00000013          	nop
    806008d0:	00000013          	nop
    806008d4:	00000013          	nop
    806008d8:	00000013          	nop
    806008dc:	00000013          	nop
    806008e0:	00000013          	nop
    806008e4:	00000013          	nop
    806008e8:	00000013          	nop
    806008ec:	00000013          	nop
    806008f0:	00000013          	nop
    806008f4:	00000013          	nop
    806008f8:	00000013          	nop
    806008fc:	00000013          	nop
    80600900:	00000013          	nop
    80600904:	00000013          	nop
    80600908:	00000013          	nop
    8060090c:	00000013          	nop
    80600910:	00000013          	nop
    80600914:	00000013          	nop
    80600918:	00000013          	nop
    8060091c:	00000013          	nop
    80600920:	00000013          	nop
    80600924:	00000013          	nop
    80600928:	00000013          	nop
    8060092c:	00000013          	nop
    80600930:	00000013          	nop
    80600934:	00000013          	nop
    80600938:	00000013          	nop
    8060093c:	00000013          	nop
    80600940:	00000013          	nop
    80600944:	00000013          	nop
    80600948:	00000013          	nop
    8060094c:	00000013          	nop
    80600950:	00000013          	nop
    80600954:	00000013          	nop
    80600958:	00000013          	nop
    8060095c:	00000013          	nop
    80600960:	00000013          	nop
    80600964:	00000013          	nop
    80600968:	00000013          	nop
    8060096c:	00000013          	nop
    80600970:	00000013          	nop
    80600974:	00000013          	nop
    80600978:	00000013          	nop
    8060097c:	00000013          	nop
    80600980:	00000013          	nop
    80600984:	00000013          	nop
    80600988:	00000013          	nop
    8060098c:	00000013          	nop
    80600990:	00000013          	nop
    80600994:	00000013          	nop
    80600998:	00000013          	nop
    8060099c:	00000013          	nop
    806009a0:	00000013          	nop
    806009a4:	00000013          	nop
    806009a8:	00000013          	nop
    806009ac:	00000013          	nop
    806009b0:	00000013          	nop
    806009b4:	00000013          	nop
    806009b8:	00000013          	nop
    806009bc:	00000013          	nop
    806009c0:	00000013          	nop
    806009c4:	00000013          	nop
    806009c8:	00000013          	nop
    806009cc:	00000013          	nop
    806009d0:	00000013          	nop
    806009d4:	00000013          	nop
    806009d8:	00000013          	nop
    806009dc:	00000013          	nop
    806009e0:	00000013          	nop
    806009e4:	00000013          	nop
    806009e8:	00000013          	nop
    806009ec:	00000013          	nop
    806009f0:	00000013          	nop
    806009f4:	00000013          	nop
    806009f8:	00000013          	nop
    806009fc:	00000013          	nop
    80600a00:	00000013          	nop
    80600a04:	00000013          	nop
    80600a08:	00000013          	nop
    80600a0c:	00000013          	nop
    80600a10:	00000013          	nop
    80600a14:	00000013          	nop
    80600a18:	00000013          	nop
    80600a1c:	00000013          	nop
    80600a20:	00000013          	nop
    80600a24:	00000013          	nop
    80600a28:	00000013          	nop
    80600a2c:	00000013          	nop
    80600a30:	00000013          	nop
    80600a34:	00000013          	nop
    80600a38:	00000013          	nop
    80600a3c:	00000013          	nop
    80600a40:	00000013          	nop
    80600a44:	00000013          	nop
    80600a48:	00000013          	nop
    80600a4c:	00000013          	nop
    80600a50:	00000013          	nop
    80600a54:	00000013          	nop
    80600a58:	00000013          	nop
    80600a5c:	00000013          	nop
    80600a60:	00000013          	nop
    80600a64:	00000013          	nop
    80600a68:	00000013          	nop
    80600a6c:	00000013          	nop
    80600a70:	00000013          	nop
    80600a74:	00000013          	nop
    80600a78:	00000013          	nop
    80600a7c:	00000013          	nop
    80600a80:	00000013          	nop
    80600a84:	00000013          	nop
    80600a88:	00000013          	nop
    80600a8c:	00000013          	nop
    80600a90:	00000013          	nop
    80600a94:	00000013          	nop
    80600a98:	00000013          	nop
    80600a9c:	00000013          	nop
    80600aa0:	00000013          	nop
    80600aa4:	00000013          	nop
    80600aa8:	00000013          	nop
    80600aac:	00000013          	nop
    80600ab0:	00000013          	nop
    80600ab4:	00000013          	nop
    80600ab8:	00000013          	nop
    80600abc:	00000013          	nop
    80600ac0:	00000013          	nop
    80600ac4:	00000013          	nop
    80600ac8:	00000013          	nop
    80600acc:	00000013          	nop
    80600ad0:	00000013          	nop
    80600ad4:	00000013          	nop
    80600ad8:	00000013          	nop
    80600adc:	00000013          	nop
    80600ae0:	00000013          	nop
    80600ae4:	00000013          	nop
    80600ae8:	00000013          	nop
    80600aec:	00000013          	nop
    80600af0:	00000013          	nop
    80600af4:	00000013          	nop
    80600af8:	00000013          	nop
    80600afc:	00000013          	nop
    80600b00:	00000013          	nop
    80600b04:	00000013          	nop
    80600b08:	00000013          	nop
    80600b0c:	00000013          	nop
    80600b10:	00000013          	nop
    80600b14:	00000013          	nop
    80600b18:	00000013          	nop
    80600b1c:	00000013          	nop
    80600b20:	00000013          	nop
    80600b24:	00000013          	nop
    80600b28:	00000013          	nop
    80600b2c:	00000013          	nop
    80600b30:	00000013          	nop
    80600b34:	00000013          	nop
    80600b38:	00000013          	nop
    80600b3c:	00000013          	nop
    80600b40:	00000013          	nop
    80600b44:	00000013          	nop
    80600b48:	00000013          	nop
    80600b4c:	00000013          	nop
    80600b50:	00000013          	nop
    80600b54:	00000013          	nop
    80600b58:	00000013          	nop
    80600b5c:	00000013          	nop
    80600b60:	00000013          	nop
    80600b64:	00000013          	nop
    80600b68:	00000013          	nop
    80600b6c:	00000013          	nop
    80600b70:	00000013          	nop
    80600b74:	00000013          	nop
    80600b78:	00000013          	nop
    80600b7c:	00000013          	nop
    80600b80:	00000013          	nop
    80600b84:	00000013          	nop
    80600b88:	00000013          	nop
    80600b8c:	00000013          	nop
    80600b90:	00000013          	nop
    80600b94:	00000013          	nop
    80600b98:	00000013          	nop
    80600b9c:	00000013          	nop
    80600ba0:	00000013          	nop
    80600ba4:	00000013          	nop
    80600ba8:	00000013          	nop
    80600bac:	00000013          	nop
    80600bb0:	00000013          	nop
    80600bb4:	00000013          	nop
    80600bb8:	00000013          	nop
    80600bbc:	00000013          	nop
    80600bc0:	00000013          	nop
    80600bc4:	00000013          	nop
    80600bc8:	00000013          	nop
    80600bcc:	00000013          	nop
    80600bd0:	00000013          	nop
    80600bd4:	00000013          	nop
    80600bd8:	00000013          	nop
    80600bdc:	00000013          	nop
    80600be0:	00000013          	nop
    80600be4:	00000013          	nop
    80600be8:	00000013          	nop
    80600bec:	00000013          	nop
    80600bf0:	00000013          	nop
    80600bf4:	00000013          	nop
    80600bf8:	00000013          	nop
    80600bfc:	00000013          	nop
    80600c00:	00000013          	nop
    80600c04:	00000013          	nop
    80600c08:	00000013          	nop
    80600c0c:	00000013          	nop
    80600c10:	00000013          	nop
    80600c14:	00000013          	nop
    80600c18:	00000013          	nop
    80600c1c:	00000013          	nop
    80600c20:	00000013          	nop
    80600c24:	00000013          	nop
    80600c28:	00000013          	nop
    80600c2c:	00000013          	nop
    80600c30:	00000013          	nop
    80600c34:	00000013          	nop
    80600c38:	00000013          	nop
    80600c3c:	00000013          	nop
    80600c40:	00000013          	nop
    80600c44:	00000013          	nop
    80600c48:	00000013          	nop
    80600c4c:	00000013          	nop
    80600c50:	00000013          	nop
    80600c54:	00000013          	nop
    80600c58:	00000013          	nop
    80600c5c:	00000013          	nop
    80600c60:	00000013          	nop
    80600c64:	00000013          	nop
    80600c68:	00000013          	nop
    80600c6c:	00000013          	nop
    80600c70:	00000013          	nop
    80600c74:	00000013          	nop
    80600c78:	00000013          	nop
    80600c7c:	00000013          	nop
    80600c80:	00000013          	nop
    80600c84:	00000013          	nop
    80600c88:	00000013          	nop
    80600c8c:	00000013          	nop
    80600c90:	00000013          	nop
    80600c94:	00000013          	nop
    80600c98:	00000013          	nop
    80600c9c:	00000013          	nop
    80600ca0:	00000013          	nop
    80600ca4:	00000013          	nop
    80600ca8:	00000013          	nop
    80600cac:	00000013          	nop
    80600cb0:	00000013          	nop
    80600cb4:	00000013          	nop
    80600cb8:	00000013          	nop
    80600cbc:	00000013          	nop
    80600cc0:	00000013          	nop
    80600cc4:	00000013          	nop
    80600cc8:	00000013          	nop
    80600ccc:	00000013          	nop
    80600cd0:	00000013          	nop
    80600cd4:	00000013          	nop
    80600cd8:	00000013          	nop
    80600cdc:	00000013          	nop
    80600ce0:	00000013          	nop
    80600ce4:	00000013          	nop
    80600ce8:	00000013          	nop
    80600cec:	00000013          	nop
    80600cf0:	00000013          	nop
    80600cf4:	00000013          	nop
    80600cf8:	00000013          	nop
    80600cfc:	00000013          	nop
    80600d00:	00000013          	nop
    80600d04:	00000013          	nop
    80600d08:	00000013          	nop
    80600d0c:	00000013          	nop
    80600d10:	00000013          	nop
    80600d14:	00000013          	nop
    80600d18:	00000013          	nop
    80600d1c:	00000013          	nop
    80600d20:	00000013          	nop
    80600d24:	00000013          	nop
    80600d28:	00000013          	nop
    80600d2c:	00000013          	nop
    80600d30:	00000013          	nop
    80600d34:	00000013          	nop
    80600d38:	00000013          	nop
    80600d3c:	00000013          	nop
    80600d40:	00000013          	nop
    80600d44:	00000013          	nop
    80600d48:	00000013          	nop
    80600d4c:	00000013          	nop
    80600d50:	00000013          	nop
    80600d54:	00000013          	nop
    80600d58:	00000013          	nop
    80600d5c:	00000013          	nop
    80600d60:	00000013          	nop
    80600d64:	00000013          	nop
    80600d68:	00000013          	nop
    80600d6c:	00000013          	nop
    80600d70:	00000013          	nop
    80600d74:	00000013          	nop
    80600d78:	00000013          	nop
    80600d7c:	00000013          	nop
    80600d80:	00000013          	nop
    80600d84:	00000013          	nop
    80600d88:	00000013          	nop
    80600d8c:	00000013          	nop
    80600d90:	00000013          	nop
    80600d94:	00000013          	nop
    80600d98:	00000013          	nop
    80600d9c:	00000013          	nop
    80600da0:	00000013          	nop
    80600da4:	00000013          	nop
    80600da8:	00000013          	nop
    80600dac:	00000013          	nop
    80600db0:	00000013          	nop
    80600db4:	00000013          	nop
    80600db8:	00000013          	nop
    80600dbc:	00000013          	nop
    80600dc0:	00000013          	nop
    80600dc4:	00000013          	nop
    80600dc8:	00000013          	nop
    80600dcc:	00000013          	nop
    80600dd0:	00000013          	nop
    80600dd4:	00000013          	nop
    80600dd8:	00000013          	nop
    80600ddc:	00000013          	nop
    80600de0:	00000013          	nop
    80600de4:	00000013          	nop
    80600de8:	00000013          	nop
    80600dec:	00000013          	nop
    80600df0:	00000013          	nop
    80600df4:	00000013          	nop
    80600df8:	00000013          	nop
    80600dfc:	00000013          	nop
    80600e00:	00000013          	nop
    80600e04:	00000013          	nop
    80600e08:	00000013          	nop
    80600e0c:	00000013          	nop
    80600e10:	00000013          	nop
    80600e14:	00000013          	nop
    80600e18:	00000013          	nop
    80600e1c:	00000013          	nop
    80600e20:	00000013          	nop
    80600e24:	00000013          	nop
    80600e28:	00000013          	nop
    80600e2c:	00000013          	nop
    80600e30:	00000013          	nop
    80600e34:	00000013          	nop
    80600e38:	00000013          	nop
    80600e3c:	00000013          	nop
    80600e40:	00000013          	nop
    80600e44:	00000013          	nop
    80600e48:	00000013          	nop
    80600e4c:	00000013          	nop
    80600e50:	00000013          	nop
    80600e54:	00000013          	nop
    80600e58:	00000013          	nop
    80600e5c:	00000013          	nop
    80600e60:	00000013          	nop
    80600e64:	00000013          	nop
    80600e68:	00000013          	nop
    80600e6c:	00000013          	nop
    80600e70:	00000013          	nop
    80600e74:	00000013          	nop
    80600e78:	00000013          	nop
    80600e7c:	00000013          	nop
    80600e80:	00000013          	nop
    80600e84:	00000013          	nop
    80600e88:	00000013          	nop
    80600e8c:	00000013          	nop
    80600e90:	00000013          	nop
    80600e94:	00000013          	nop
    80600e98:	00000013          	nop
    80600e9c:	00000013          	nop
    80600ea0:	00000013          	nop
    80600ea4:	00000013          	nop
    80600ea8:	00000013          	nop
    80600eac:	00000013          	nop
    80600eb0:	00000013          	nop
    80600eb4:	00000013          	nop
    80600eb8:	00000013          	nop
    80600ebc:	00000013          	nop
    80600ec0:	00000013          	nop
    80600ec4:	00000013          	nop
    80600ec8:	00000013          	nop
    80600ecc:	00000013          	nop
    80600ed0:	00000013          	nop
    80600ed4:	00000013          	nop
    80600ed8:	00000013          	nop
    80600edc:	00000013          	nop
    80600ee0:	00000013          	nop
    80600ee4:	00000013          	nop
    80600ee8:	00000013          	nop
    80600eec:	00000013          	nop
    80600ef0:	00000013          	nop
    80600ef4:	00000013          	nop
    80600ef8:	00000013          	nop
    80600efc:	00000013          	nop
    80600f00:	00000013          	nop
    80600f04:	00000013          	nop
    80600f08:	00000013          	nop
    80600f0c:	00000013          	nop
    80600f10:	00000013          	nop
    80600f14:	00000013          	nop
    80600f18:	00000013          	nop
    80600f1c:	00000013          	nop
    80600f20:	00000013          	nop
    80600f24:	00000013          	nop
    80600f28:	00000013          	nop
    80600f2c:	00000013          	nop
    80600f30:	00000013          	nop
    80600f34:	00000013          	nop
    80600f38:	00000013          	nop
    80600f3c:	00000013          	nop
    80600f40:	00000013          	nop
    80600f44:	00000013          	nop
    80600f48:	00000013          	nop
    80600f4c:	00000013          	nop
    80600f50:	00000013          	nop
    80600f54:	00000013          	nop
    80600f58:	00000013          	nop
    80600f5c:	00000013          	nop
    80600f60:	00000013          	nop
    80600f64:	00000013          	nop
    80600f68:	00000013          	nop
    80600f6c:	00000013          	nop
    80600f70:	00000013          	nop
    80600f74:	00000013          	nop
    80600f78:	00000013          	nop
    80600f7c:	00000013          	nop
    80600f80:	00000013          	nop
    80600f84:	00000013          	nop
    80600f88:	00000013          	nop
    80600f8c:	00000013          	nop
    80600f90:	00000013          	nop
    80600f94:	00000013          	nop
    80600f98:	00000013          	nop
    80600f9c:	00000013          	nop
    80600fa0:	00000013          	nop
    80600fa4:	00000013          	nop
    80600fa8:	00000013          	nop
    80600fac:	00000013          	nop
    80600fb0:	00000013          	nop
    80600fb4:	00000013          	nop
    80600fb8:	00000013          	nop
    80600fbc:	00000013          	nop
    80600fc0:	00000013          	nop
    80600fc4:	00000013          	nop
    80600fc8:	00000013          	nop
    80600fcc:	00000013          	nop
    80600fd0:	00000013          	nop
    80600fd4:	00000013          	nop
    80600fd8:	00000013          	nop
    80600fdc:	00000013          	nop
    80600fe0:	00000013          	nop
    80600fe4:	00000013          	nop
    80600fe8:	00000013          	nop
    80600fec:	00000013          	nop
    80600ff0:	00000013          	nop
    80600ff4:	00000013          	nop
    80600ff8:	00000013          	nop
    80600ffc:	00000013          	nop

0000000080601000 <shared>:
    80601000:	22539353          	fsgnjn.d	ft6,ft7,ft5

0000000080601004 <fn0.entry.l1>:
    80601004:	c2247d53          	fcvt.l.d	s10,fs0

0000000080601008 <fn0.entry.l2>:
    80601008:	58049353          	fsqrt.s	ft6,fs1,rtz

000000008060100c <fn0.entry.l3>:
    8060100c:	03accdb3          	div	s11,s9,s10

0000000080601010 <fn0.entry.l4>:
    80601010:	081c7b93          	andi	s7,s8,129

0000000080601014 <fn0.entry.l5>:
    80601014:	418c8d33          	sub	s10,s9,s8

0000000080601018 <fn0.entry.l6>:
    80601018:	c202fc53          	fcvt.w.d	s8,ft5

000000008060101c <fn0.entry.l7>:
    8060101c:	039d0dbb          	mulw	s11,s10,s9

0000000080601020 <fn0.entry.l8>:
    80601020:	00008067          	ret

0000000080601024 <fn0.exit>:
    80601024:	03bd3bb3          	mulhu	s7,s10,s11

0000000080601028 <fn1.entry.l1>:
    80601028:	a2540dd3          	fle.d	s11,fs0,ft5

000000008060102c <fn1.entry.l2>:
    8060102c:	a2831bd3          	flt.d	s7,ft6,fs0

0000000080601030 <fn1.entry.l3>:
    80601030:	017d4c33          	xor	s8,s10,s7

0000000080601034 <fn1.entry.l4>:
    80601034:	5baccb93          	xori	s7,s9,1466

0000000080601038 <fn1.entry.l5>:
    80601038:	4013f3d3          	fcvt.s.d	ft7,ft7

000000008060103c <fn1.entry.l6>:
    8060103c:	e2030cd3          	fmv.x.d	s9,ft6

0000000080601040 <fn1.entry.l7>:
    80601040:	5a0492d3          	fsqrt.d	ft5,fs1,rtz

0000000080601044 <fn1.entry.l8>:
    80601044:	037d1c33          	mulh	s8,s10,s7

0000000080601048 <fn1.entry.l9>:
    80601048:	03abbcb3          	mulhu	s9,s7,s10

000000008060104c <fn1.entry.l10>:
    8060104c:	00008067          	ret

0000000080601050 <fn1.exit>:
    80601050:	410ddc9b          	sraiw	s9,s11,0x10

0000000080601054 <fn2.entry.l1>:
    80601054:	037c1d33          	mulh	s10,s8,s7

0000000080601058 <fn2.entry.l2>:
    80601058:	289402d3          	fmin.s	ft5,fs0,fs1

000000008060105c <fn2.entry.l3>:
    8060105c:	08628453          	fsub.s	fs0,ft5,ft6,rne

0000000080601060 <fn2.entry.l4>:
    80601060:	03bd0bb3          	mul	s7,s10,s11

0000000080601064 <fn2.entry.l5>:
    80601064:	472c8d1b          	addiw	s10,s9,1138

0000000080601068 <fn2.entry.l6>:
    80601068:	00008067          	ret

000000008060106c <fn2.exit>:
    8060106c:	125373d3          	fmul.d	ft7,ft6,ft5

0000000080601070 <fn3.entry.l1>:
    80601070:	03ac5cbb          	divuw	s9,s8,s10

0000000080601074 <fn3.entry.l2>:
    80601074:	188394d3          	fdiv.s	fs1,ft7,fs0,rtz

0000000080601078 <fn3.entry.l3>:
    80601078:	015d1c1b          	slliw	s8,s10,0x15

000000008060107c <fn3.entry.l4>:
    8060107c:	4014f4d3          	fcvt.s.d	fs1,fs1

0000000080601080 <fn3.entry.l5>:
    80601080:	2262a453          	fsgnjx.d	fs0,ft5,ft6

0000000080601084 <fn3.entry.l6>:
    80601084:	007bdd9b          	srliw	s11,s7,0x7

0000000080601088 <fn3.entry.l7>:
    80601088:	00008067          	ret

000000008060108c <fn3.exit>:
    8060108c:	00000013          	nop
    80601090:	00000013          	nop
    80601094:	00000013          	nop
    80601098:	00000013          	nop
    8060109c:	00000013          	nop
    806010a0:	00000013          	nop
    806010a4:	00000013          	nop
    806010a8:	00000013          	nop
    806010ac:	00000013          	nop
    806010b0:	00000013          	nop
    806010b4:	00000013          	nop
    806010b8:	00000013          	nop
    806010bc:	00000013          	nop
    806010c0:	00000013          	nop
    806010c4:	00000013          	nop
    806010c8:	00000013          	nop
    806010cc:	00000013          	nop
    806010d0:	00000013          	nop
    806010d4:	00000013          	nop
    806010d8:	00000013          	nop
    806010dc:	00000013          	nop
    806010e0:	00000013          	nop
    806010e4:	00000013          	nop
    806010e8:	00000013          	nop
    806010ec:	00000013          	nop
    806010f0:	00000013          	nop
    806010f4:	00000013          	nop
    806010f8:	00000013          	nop
    806010fc:	00000013          	nop

0000000080601100 <fn4.entry>:
    80601100:	037d0c33          	mul	s8,s10,s7

0000000080601104 <fn4.entry.l1>:
    80601104:	00628d17          	auipc	s10,0x628

0000000080601108 <fn4.entry.l2>:
    80601108:	038bad33          	mulhsu	s10,s7,s8

000000008060110c <fn4.entry.l3>:
    8060110c:	382c7d13          	andi	s10,s8,898

0000000080601110 <fn4.entry.l4>:
    80601110:	01bc3cb3          	sltu	s9,s8,s11

0000000080601114 <fn4.entry.l5>:
    80601114:	00008067          	ret

0000000080601118 <fn4.exit>:
	...

Disassembly of section .data:

0000000080602000 <data>:
    80602000:	6818                	ld	a4,16(s0)
    80602002:	752d                	lui	a0,0xfffeb
    80602004:	6136                	ld	sp,328(sp)
    80602006:	3564                	fld	fs1,232(a0)
    80602008:	380e                	fld	fa6,224(sp)
    8060200a:	1e19                	addi	t3,t3,-26
    8060200c:	cf7d                	beqz	a4,8060210a <data+0x10a>
    8060200e:	c089                	beqz	s1,80602010 <data+0x10>
    80602010:	4a8c                	lw	a1,16(a3)
    80602012:	0309                	addi	t1,t1,2
    80602014:	7c6c                	ld	a1,248(s0)
    80602016:	0ab1                	addi	s5,s5,12
    80602018:	80c8f73b          	0x80c8f73b
    8060201c:	250c                	fld	fa1,8(a0)
    8060201e:	b464                	fsd	fs1,232(s0)
    80602020:	5131                	li	sp,-20
    80602022:	2d0c                	fld	fa1,24(a0)
    80602024:	533fe2eb          	0x533fe2eb
    80602028:	a949                	j	806024ba <data+0x4ba>
    8060202a:	dfe68b83          	lb	s7,-514(a3)
    8060202e:	8ae2                	mv	s5,s8
    80602030:	91d74df3          	0x91d74df3
    80602034:	00da                	slli	ra,ra,0x16
    80602036:	200f5cb7          	lui	s9,0x200f5
    8060203a:	55f6                	lw	a1,124(sp)
    8060203c:	683f18ef          	jal	a7,806f3ebe <data7+0xeaebe>
    80602040:	6d94                	ld	a3,24(a1)
    80602042:	b9f1                	j	80601d1e <fn4.exit+0xc06>
    80602044:	d5f4                	sw	a3,108(a1)
    80602046:	1371                	addi	t1,t1,-4
    80602048:	3319                	addiw	t1,t1,-26
    8060204a:	5bf1                	li	s7,-4
    8060204c:	8418                	0x8418
    8060204e:	58b5                	li	a7,-19
    80602050:	5f94                	lw	a3,56(a5)
    80602052:	607a                	0x607a
    80602054:	a56e                	fsd	fs11,136(sp)
    80602056:	3d2e                	fld	fs10,232(sp)
    80602058:	b2fd                	j	80601a46 <fn4.exit+0x92e>
    8060205a:	3d686f03          	lwu	t5,982(a6)
    8060205e:	dc15                	beqz	s0,80601f9a <fn4.exit+0xe82>
    80602060:	d140                	sw	s0,36(a0)
    80602062:	c516                	sw	t0,136(sp)
    80602064:	d011                	beqz	s0,80601f68 <fn4.exit+0xe50>
    80602066:	b6eeb83f d46fad25 	0xd46fad25b6eeb83f
    8060206e:	b876                	fsd	ft9,48(sp)
    80602070:	8988                	0x8988
    80602072:	e8f2                	sd	t3,80(sp)
    80602074:	61d8                	ld	a4,128(a1)
    80602076:	eb95                	bnez	a5,806020aa <data+0xaa>
    80602078:	4352                	lw	t1,20(sp)
    8060207a:	2979                	addiw	s2,s2,30
    8060207c:	ee3dd1c7          	fmsub.q	ft3,fs11,ft3,ft9,unknown
    80602080:	7b00                	ld	s0,48(a4)
    80602082:	0a48                	addi	a0,sp,276
    80602084:	d671                	beqz	a2,80602050 <data+0x50>
    80602086:	9598                	0x9598
    80602088:	69ae85af          	0x69ae85af
    8060208c:	63a6ab33          	0x63a6ab33
    80602090:	00bd                	addi	ra,ra,15
    80602092:	bf40                	fsd	fs0,184(a4)
    80602094:	6831                	lui	a6,0xc
    80602096:	ccc1                	beqz	s1,8060212e <data+0x12e>
    80602098:	6118                	ld	a4,0(a0)
    8060209a:	2f94                	fld	fa3,24(a5)
    8060209c:	3642                	fld	fa2,48(sp)
    8060209e:	43b6                	lw	t2,76(sp)
    806020a0:	739c                	ld	a5,32(a5)
    806020a2:	34e5                	addiw	s1,s1,-7
    806020a4:	54a8                	lw	a0,104(s1)
    806020a6:	ae58                	fsd	fa4,152(a2)
    806020a8:	51f2                	lw	gp,60(sp)
    806020aa:	5d91                	li	s11,-28
    806020ac:	3132                	fld	ft2,296(sp)
    806020ae:	4db9                	li	s11,14
    806020b0:	df88                	sw	a0,56(a5)
    806020b2:	08cc                	addi	a1,sp,84
    806020b4:	6046                	0x6046
    806020b6:	f02c                	sd	a1,96(s0)
    806020b8:	df1c                	sw	a5,56(a4)
    806020ba:	351e048b          	0x351e048b
    806020be:	beae                	fsd	fa1,376(sp)
    806020c0:	9bf5543b          	0x9bf5543b
    806020c4:	2cd9                	addiw	s9,s9,22
    806020c6:	618a                	ld	gp,128(sp)
    806020c8:	ff90                	sd	a2,56(a5)
    806020ca:	27c4                	fld	fs1,136(a5)
    806020cc:	f936                	sd	a3,176(sp)
    806020ce:	bb11                	j	80601de2 <fn4.exit+0xcca>
    806020d0:	1d26                	slli	s10,s10,0x29
    806020d2:	c050                	sw	a2,4(s0)
    806020d4:	1b65                	addi	s6,s6,-7
    806020d6:	9658                	0x9658
    806020d8:	80113dbb          	0x80113dbb
    806020dc:	8969                	andi	a0,a0,26
    806020de:	4856                	lw	a6,84(sp)
    806020e0:	59d8                	lw	a4,52(a1)
    806020e2:	523efb53          	0x523efb53
    806020e6:	7599                	lui	a1,0xfffe6
    806020e8:	47a8                	lw	a0,72(a5)
    806020ea:	42d0a2ab          	0x42d0a2ab
    806020ee:	b6a5                	j	80601c56 <fn4.exit+0xb3e>
    806020f0:	2661ae63          	0x2661ae63
    806020f4:	a5f5                	j	806027e0 <data+0x7e0>
    806020f6:	2190                	fld	fa2,0(a1)
    806020f8:	27ec1bcf          	fnmadd.q	fs7,fs8,ft10,ft4,rtz
    806020fc:	b416                	fsd	ft5,40(sp)
    806020fe:	08a6                	slli	a7,a7,0x9
    80602100:	6e749457          	0x6e749457
    80602104:	5eba                	lw	t4,172(sp)
    80602106:	a5b9                	j	80602754 <data+0x754>
    80602108:	c19c                	sw	a5,0(a1)
    8060210a:	c3e18cef          	jal	s9,8051a548 <pre_attack1_end+0x11a44c>
    8060210e:	225a                	fld	ft4,400(sp)
    80602110:	e5ad                	bnez	a1,8060217a <data+0x17a>
    80602112:	3d938723          	sb	s9,974(t2)
    80602116:	00cd                	addi	ra,ra,19
    80602118:	677d                	lui	a4,0x1f
    8060211a:	4d2e884b          	0x4d2e884b
    8060211e:	197e                	slli	s2,s2,0x3f
    80602120:	2e248d63          	beq	s1,sp,8060241a <data+0x41a>
    80602124:	47f0                	lw	a2,76(a5)
    80602126:	e7a0ec53          	0xe7a0ec53
    8060212a:	9d1379d3          	0x9d1379d3
    8060212e:	f532                	sd	a2,168(sp)
    80602130:	b22f23bf 7290aea4 	0x7290aea4b22f23bf
    80602138:	71e4                	ld	s1,224(a1)
    8060213a:	65c1                	lui	a1,0x10
    8060213c:	087e                	slli	a6,a6,0x1f
    8060213e:	8b7e                	mv	s6,t6
    80602140:	d37ed7d3          	0xd37ed7d3
    80602144:	c82e                	sw	a1,16(sp)
    80602146:	8358                	0x8358
    80602148:	7d29                	lui	s10,0xfffea
    8060214a:	df56                	sw	s5,188(sp)
    8060214c:	c8795673          	csrrwi	a2,hpmcounter7h,18
    80602150:	60a2                	ld	ra,8(sp)
    80602152:	6d5f 8418 6a50      	0x6a5084186d5f
    80602158:	24fe                	fld	fs1,472(sp)
    8060215a:	32dfa76b          	0x32dfa76b
    8060215e:	5011                	c.li	zero,-28
    80602160:	b132                	fsd	fa2,160(sp)
    80602162:	86b2                	mv	a3,a2
    80602164:	2bd0                	fld	fa2,144(a5)
    80602166:	2954                	fld	fa3,144(a0)
    80602168:	8495                	srai	s1,s1,0x5
    8060216a:	4a19                	li	s4,6
    8060216c:	fd70                	sd	a2,248(a0)
    8060216e:	1da6                	slli	s11,s11,0x29
    80602170:	18e4685b          	0x18e4685b
    80602174:	518d                	li	gp,-29
    80602176:	f051                	bnez	s0,806020fa <data+0xfa>
    80602178:	d86e                	sw	s11,48(sp)
    8060217a:	8ae0                	0x8ae0
    8060217c:	9fd1                	0x9fd1
    8060217e:	6c98                	ld	a4,24(s1)
    80602180:	0f25                	addi	t5,t5,9
    80602182:	282a                	fld	fa6,136(sp)
    80602184:	5774                	lw	a3,108(a4)
    80602186:	2f6c                	fld	fa1,216(a4)
    80602188:	82f9                	srli	a3,a3,0x1e
    8060218a:	cac686af          	0xcac686af
    8060218e:	053a                	slli	a0,a0,0xe
    80602190:	d11f0b73          	0xd11f0b73
    80602194:	2c3d                	addiw	s8,s8,15
    80602196:	d870                	sw	a2,116(s0)
    80602198:	1e0d                	addi	t3,t3,-29
    8060219a:	0578f0e7          	0x578f0e7
    8060219e:	c8c1                	beqz	s1,8060222e <data+0x22e>
    806021a0:	1429                	addi	s0,s0,-22
    806021a2:	ba3a                	fsd	fa4,304(sp)
    806021a4:	71b8                	ld	a4,96(a1)
    806021a6:	4699                	li	a3,6
    806021a8:	7732                	ld	a4,296(sp)
    806021aa:	cd09                	beqz	a0,806021c4 <data+0x1c4>
    806021ac:	516d0e8b          	0x516d0e8b
    806021b0:	d93a                	sw	a4,176(sp)
    806021b2:	034d                	addi	t1,t1,19
    806021b4:	2a50                	fld	fa2,144(a2)
    806021b6:	d2fc                	sw	a5,100(a3)
    806021b8:	8c5c                	0x8c5c
    806021ba:	c715                	beqz	a4,806021e6 <data+0x1e6>
    806021bc:	51914417          	auipc	s0,0x51914
    806021c0:	3d7c                	fld	fa5,248(a0)
    806021c2:	c614                	sw	a3,8(a2)
    806021c4:	4110                	lw	a2,0(a0)
    806021c6:	f401                	bnez	s0,806020ce <data+0xce>
    806021c8:	c2ce                	sw	s3,68(sp)
    806021ca:	0f76                	slli	t5,t5,0x1d
    806021cc:	2924                	fld	fs1,80(a0)
    806021ce:	ac55                	j	80602482 <data+0x482>
    806021d0:	156e                	slli	a0,a0,0x3b
    806021d2:	617e                	ld	sp,472(sp)
    806021d4:	a79e8cbf c2a0cfb9 	0xc2a0cfb9a79e8cbf
    806021dc:	9246                	add	tp,tp,a7
    806021de:	86c58e53          	0x86c58e53
    806021e2:	8b92                	mv	s7,tp
    806021e4:	9731                	srai	a4,a4,0x2c
    806021e6:	0f533eaf          	amoswap.d.aqrl	t4,s5,(t1)
    806021ea:	21294df3          	0x21294df3
    806021ee:	e019                	bnez	s0,806021f4 <data+0x1f4>
    806021f0:	fd0a                	sd	sp,184(sp)
    806021f2:	1241                	addi	tp,tp,-16
    806021f4:	55a7cc0f          	0x55a7cc0f
    806021f8:	980a                	add	a6,a6,sp
    806021fa:	6391                	lui	t2,0x4
    806021fc:	28b6                	fld	fa7,328(sp)
    806021fe:	296d                	addiw	s2,s2,27
    80602200:	54d08df7          	0x54d08df7
    80602204:	a198                	fsd	fa4,0(a1)
    80602206:	8514                	0x8514
    80602208:	b2c4                	fsd	fs1,160(a3)
    8060220a:	1a1c                	addi	a5,sp,304
    8060220c:	e9c4dcd3          	0xe9c4dcd3
    80602210:	b9bc                	fsd	fa5,112(a1)
    80602212:	8bea                	mv	s7,s10
    80602214:	fb50                	sd	a2,176(a4)
    80602216:	e5ff                	0xe5ff
    80602218:	9be6                	add	s7,s7,s9
    8060221a:	e2f9                	bnez	a3,806022e0 <data+0x2e0>
    8060221c:	29e2                	fld	fs3,24(sp)
    8060221e:	5a6a                	lw	s4,184(sp)
    80602220:	ad09                	j	80602832 <data+0x832>
    80602222:	6962                	ld	s2,24(sp)
    80602224:	6b4c                	ld	a1,144(a4)
    80602226:	9fdc                	0x9fdc
    80602228:	cbb0                	sw	a2,80(a5)
    8060222a:	2cad                	addiw	s9,s9,11
    8060222c:	eca4                	sd	s1,88(s1)
    8060222e:	e2011cdb          	0xe2011cdb
    80602232:	7fb4                	ld	a3,120(a5)
    80602234:	26e8fa4b          	fnmsub.q	fs4,fa7,fa4,ft4
    80602238:	8039                	srli	s0,s0,0xe
    8060223a:	7e39                	lui	t3,0xfffee
    8060223c:	cbd0c447          	fmsub.d	fs0,ft1,ft9,fs9,rmm
    80602240:	f0969d2b          	0xf0969d2b
    80602244:	8d81c4f7          	0x8d81c4f7
    80602248:	140059ab          	0x140059ab
    8060224c:	54bc                	lw	a5,104(s1)
    8060224e:	698c                	ld	a1,16(a1)
    80602250:	a734                	fsd	fa3,72(a4)
    80602252:	f57bcec3          	0xf57bcec3
    80602256:	72bd                	lui	t0,0xfffef
    80602258:	fad8                	sd	a4,176(a3)
    8060225a:	eddf e36d 6caf      	0x6cafe36deddf
    80602260:	4701                	li	a4,0
    80602262:	badd                	j	80601c58 <fn4.exit+0xb40>
    80602264:	f3c4                	sd	s1,160(a5)
    80602266:	42b5d957          	0x42b5d957
    8060226a:	2c52                	fld	fs8,272(sp)
    8060226c:	67ed                	lui	a5,0x1b
    8060226e:	d7a95417          	auipc	s0,0xd7a95
    80602272:	8f92                	mv	t6,tp
    80602274:	6224                	ld	s1,64(a2)
    80602276:	3e87ffe3          	bgeu	a5,s0,80602e74 <data+0xe74>
    8060227a:	417d                	li	sp,31
    8060227c:	20f0                	fld	fa2,192(s1)
    8060227e:	890e                	mv	s2,gp
    80602280:	c741                	beqz	a4,80602308 <data+0x308>
    80602282:	3b9981e3          	beq	s3,s9,80602e24 <data+0xe24>
    80602286:	2992                	fld	fs3,256(sp)
    80602288:	61f1                	lui	gp,0x1c
    8060228a:	82d8                	0x82d8
    8060228c:	43c6                	lw	t2,80(sp)
    8060228e:	1f67a86f          	jal	a6,8067c484 <data7+0x73484>
    80602292:	6921                	lui	s2,0x8
    80602294:	62c1c397          	auipc	t2,0x62c1c
    80602298:	17a1                	addi	a5,a5,-24
    8060229a:	d6d2                	sw	s4,108(sp)
    8060229c:	6715                	lui	a4,0x5
    8060229e:	08b5                	addi	a7,a7,13
    806022a0:	105adde3          	bge	s5,t0,80602bba <data+0xbba>
    806022a4:	5b15                	li	s6,-27
    806022a6:	d1dd                	beqz	a1,8060224c <data+0x24c>
    806022a8:	b06d                	j	80601b52 <fn4.exit+0xa3a>
    806022aa:	0404                	addi	s1,sp,512
    806022ac:	9164                	0x9164
    806022ae:	bbd5                	j	806020a2 <data+0xa2>
    806022b0:	9bb2                	add	s7,s7,a2
    806022b2:	b9ed024f          	fnmadd.s	ft4,fs10,ft10,fs7,rne
    806022b6:	b41d                	j	80601cdc <fn4.exit+0xbc4>
    806022b8:	3a1c                	fld	fa5,48(a2)
    806022ba:	6ef0                	ld	a2,216(a3)
    806022bc:	426c                	lw	a1,68(a2)
    806022be:	8bcdc827          	fsq	ft8,-1872(s11)
    806022c2:	76f2                	ld	a3,312(sp)
    806022c4:	c36a                	sw	s10,132(sp)
    806022c6:	35652a5b          	0x35652a5b
    806022ca:	bfd044d3          	0xbfd044d3
    806022ce:	2790                	fld	fa2,8(a5)
    806022d0:	75bc                	ld	a5,104(a1)
    806022d2:	f1bd                	bnez	a1,80602238 <data+0x238>
    806022d4:	fd75                	bnez	a0,806022d0 <data+0x2d0>
    806022d6:	471e                	lw	a4,196(sp)
    806022d8:	b180                	fsd	fs0,32(a1)
    806022da:	62a5                	lui	t0,0x9
    806022dc:	b4dc                	fsd	fa5,168(s1)
    806022de:	13de                	slli	t2,t2,0x37
    806022e0:	317a35d7          	0x317a35d7
    806022e4:	d7f6                	sw	t4,236(sp)
    806022e6:	7cc9                	lui	s9,0xffff2
    806022e8:	40b0                	lw	a2,64(s1)
    806022ea:	8e75                	and	a2,a2,a3
    806022ec:	92bc                	0x92bc
    806022ee:	d382                	sw	zero,228(sp)
    806022f0:	4d66                	lw	s10,88(sp)
    806022f2:	37ee                	fld	fa5,248(sp)
    806022f4:	d66d                	beqz	a2,806022de <data+0x2de>
    806022f6:	dd0d                	beqz	a0,80602230 <data+0x230>
    806022f8:	6096                	ld	ra,320(sp)
    806022fa:	760369cb          	fnmsub.q	fs3,ft6,ft0,fa4,unknown
    806022fe:	7550                	ld	a2,168(a0)
    80602300:	3f64                	fld	fs1,248(a4)
    80602302:	c366                	sw	s9,132(sp)
    80602304:	00d0                	addi	a2,sp,68
    80602306:	c5c2                	sw	a6,200(sp)
    80602308:	c4e62caf          	amominu.w.aq	s9,a4,(a2)
    8060230c:	d06f22af          	0xd06f22af
    80602310:	e54d                	bnez	a0,806023ba <data+0x3ba>
    80602312:	2d57fdd7          	0x2d57fdd7
    80602316:	5f5a                	lw	t5,180(sp)
    80602318:	85d5                	srai	a1,a1,0x15
    8060231a:	edf2                	sd	t3,216(sp)
    8060231c:	605c10fb          	0x605c10fb
    80602320:	091d                	addi	s2,s2,7
    80602322:	b35e                	fsd	fs7,416(sp)
    80602324:	2ac0f083          	0x2ac0f083
    80602328:	b5ad                	j	80602192 <data+0x192>
    8060232a:	9f9e                	add	t6,t6,t2
    8060232c:	315a                	fld	ft2,432(sp)
    8060232e:	1086592f          	0x1086592f
    80602332:	638a                	ld	t2,128(sp)
    80602334:	e9fd8efb          	0xe9fd8efb
    80602338:	8da2                	mv	s11,s0
    8060233a:	6091                	lui	ra,0x4
    8060233c:	ad18                	fsd	fa4,24(a0)
    8060233e:	de6a                	sw	s10,60(sp)
    80602340:	12ea952f          	0x12ea952f
    80602344:	ef8e                	sd	gp,472(sp)
    80602346:	e87b83fb          	0xe87b83fb
    8060234a:	3e0a                	fld	ft8,160(sp)
    8060234c:	67ac                	ld	a1,72(a5)
    8060234e:	0a48                	addi	a0,sp,276
    80602350:	479e                	lw	a5,196(sp)
    80602352:	bcde                	fsd	fs7,120(sp)
    80602354:	ed4c                	sd	a1,152(a0)
    80602356:	8a7e                	mv	s4,t6
    80602358:	4fda                	lw	t6,148(sp)
    8060235a:	622e                	ld	tp,200(sp)
    8060235c:	3dd12843          	0x3dd12843
    80602360:	9c13ea83          	lwu	s5,-1599(t2) # e321dc55 <secret+0x6261dc55>
    80602364:	cc70                	sw	a2,92(s0)
    80602366:	562d                	li	a2,-21
    80602368:	ca8670d7          	0xca8670d7
    8060236c:	c8f0                	sw	a2,84(s1)
    8060236e:	c849                	beqz	s0,80602400 <data+0x400>
    80602370:	17b0                	addi	a2,sp,1000
    80602372:	4aac                	lw	a1,80(a3)
    80602374:	2b88                	fld	fa0,16(a5)
    80602376:	1799                	addi	a5,a5,-26
    80602378:	99e8                	0x99e8
    8060237a:	a354                	fsd	fa3,128(a4)
    8060237c:	bacc                	fsd	fa1,176(a3)
    8060237e:	34a1                	addiw	s1,s1,-24
    80602380:	9dd1                	0x9dd1
    80602382:	6c18                	ld	a4,24(s0)
    80602384:	6329                	lui	t1,0xa
    80602386:	01c5                	addi	gp,gp,17
    80602388:	dc69                	beqz	s0,80602362 <data+0x362>
    8060238a:	14dbd853          	0x14dbd853
    8060238e:	592a                	lw	s2,168(sp)
    80602390:	2999                	addiw	s3,s3,6
    80602392:	d50d                	beqz	a0,806022bc <data+0x2bc>
    80602394:	b679                	j	80601f22 <fn4.exit+0xe0a>
    80602396:	6e79                	lui	t3,0x1e
    80602398:	ff3c                	sd	a5,120(a4)
    8060239a:	d544                	sw	s1,44(a0)
    8060239c:	0f76                	slli	t5,t5,0x1d
    8060239e:	e95d                	bnez	a0,80602454 <data+0x454>
    806023a0:	3ad5                	addiw	s5,s5,-11
    806023a2:	fb6e                	sd	s11,432(sp)
    806023a4:	c7486de3          	bltu	a6,s4,8060201e <data+0x1e>
    806023a8:	95be0b27          	0x95be0b27
    806023ac:	13b4                	addi	a3,sp,488
    806023ae:	a409                	j	806025b0 <data+0x5b0>
    806023b0:	ab3c3bdb          	0xab3c3bdb
    806023b4:	e89c                	sd	a5,16(s1)
    806023b6:	5141                	li	sp,-16
    806023b8:	11ff                	0x11ff
    806023ba:	e8df 1cea 7f0b      	0x7f0b1ceae8df
    806023c0:	f118                	sd	a4,32(a0)
    806023c2:	9f1e                	add	t5,t5,t2
    806023c4:	c83385b7          	lui	a1,0xc8338
    806023c8:	4741                	li	a4,16
    806023ca:	3460                	fld	fs0,232(s0)
    806023cc:	c51a                	sw	t1,136(sp)
    806023ce:	b5d045b7          	lui	a1,0xb5d04
    806023d2:	b07e                	fsd	ft11,32(sp)
    806023d4:	ee241fab          	0xee241fab
    806023d8:	e085                	bnez	s1,806023f8 <data+0x3f8>
    806023da:	1840                	addi	s0,sp,52
    806023dc:	9272caf7          	0x9272caf7
    806023e0:	48c643bb          	0x48c643bb
    806023e4:	e7ea                	sd	s10,456(sp)
    806023e6:	7d8b7b93          	andi	s7,s6,2008
    806023ea:	aaa60b6b          	0xaaa60b6b
    806023ee:	38d5                	addiw	a7,a7,-11
    806023f0:	9d28                	0x9d28
    806023f2:	dbce                	sw	s3,244(sp)
    806023f4:	45ca                	lw	a1,144(sp)
    806023f6:	5470                	lw	a2,108(s0)
    806023f8:	5c50cb2f          	0x5c50cb2f
    806023fc:	00a4                	addi	s1,sp,72
    806023fe:	250d                	addiw	a0,a0,3
	...

0000000080603000 <data1>:
    80603000:	b3b5                	j	80602d6c <data+0xd6c>
    80603002:	2e6d                	addiw	t3,t3,27
    80603004:	446fcd77          	0x446fcd77
    80603008:	7854                	ld	a3,176(s0)
    8060300a:	384d                	addiw	a6,a6,-13
    8060300c:	0d55                	addi	s10,s10,21
    8060300e:	d5f4                	sw	a3,108(a1)
    80603010:	1074                	addi	a3,sp,44
    80603012:	1e15                	addi	t3,t3,-27
    80603014:	f19d4887          	flq	fa7,-231(s10) # fffffffffffe9f19 <secret+0xffffffff7f3e9f19>
    80603018:	d05572f3          	csrrci	t0,0xd05,10
    8060301c:	de32                	sw	a2,60(sp)
    8060301e:	67aa                	ld	a5,136(sp)
    80603020:	5454                	lw	a3,44(s0)
    80603022:	ee4b3b73          	csrrc	s6,0xee4,s6
    80603026:	834d43ab          	0x834d43ab
    8060302a:	25407583          	0x25407583
    8060302e:	e1f1                	bnez	a1,806030f2 <data1+0xf2>
    80603030:	7247e4ef          	jal	s1,80681754 <data7+0x78754>
    80603034:	6556e55b          	0x6556e55b
    80603038:	b53a                	fsd	fa4,168(sp)
    8060303a:	42c9                	li	t0,18
    8060303c:	71a8                	ld	a0,96(a1)
    8060303e:	fb19                	bnez	a4,80602f54 <data+0xf54>
    80603040:	3639                	addiw	a2,a2,-18
    80603042:	6bf9                	lui	s7,0x1e
    80603044:	2c758de3          	beq	a1,t2,80603b1e <data1+0xb1e>
    80603048:	36fc                	fld	fa5,232(a3)
    8060304a:	d9ea                	sw	s10,240(sp)
    8060304c:	ebd0                	sd	a2,144(a5)
    8060304e:	c866                	sw	s9,16(sp)
    80603050:	493a                	lw	s2,140(sp)
    80603052:	5671                	li	a2,-4
    80603054:	c0c9                	beqz	s1,806030d6 <data1+0xd6>
    80603056:	efe0                	sd	s0,216(a5)
    80603058:	5278                	lw	a4,100(a2)
    8060305a:	0301                	addi	t1,t1,0
    8060305c:	4f9c                	lw	a5,24(a5)
    8060305e:	2342                	fld	ft6,16(sp)
    80603060:	81d9                	srli	a1,a1,0x16
    80603062:	7a7d                	lui	s4,0xfffff
    80603064:	2e0a                	fld	ft8,128(sp)
    80603066:	4e7c                	lw	a5,92(a2)
    80603068:	be8bbef3          	csrrc	t4,0xbe8,s7
    8060306c:	a778                	fsd	fa4,200(a4)
    8060306e:	0610                	addi	a2,sp,768
    80603070:	f06f4647          	fmsub.s	fa2,ft10,ft6,ft10,rmm
    80603074:	beec                	fsd	fa1,248(a3)
    80603076:	9af6                	add	s5,s5,t4
    80603078:	809d                	srli	s1,s1,0x7
    8060307a:	ebad                	bnez	a5,806030ec <data1+0xec>
    8060307c:	fdcb2b93          	slti	s7,s6,-36
    80603080:	e87c624b          	fnmsub.s	ft4,fs8,ft7,ft9,unknown
    80603084:	da0b0773          	0xda0b0773
    80603088:	6925                	lui	s2,0x9
    8060308a:	10e0f937          	lui	s2,0x10e0f
    8060308e:	5119                	li	sp,-26
    80603090:	fc42                	sd	a6,56(sp)
    80603092:	f559a997          	auipc	s3,0xf559a
    80603096:	16c4                	addi	s1,sp,868
    80603098:	15f5e2f3          	csrrsi	t0,0x15f,11
    8060309c:	c9ed                	beqz	a1,8060318e <data1+0x18e>
    8060309e:	a170                	fsd	fa2,192(a0)
    806030a0:	c388                	sw	a0,0(a5)
    806030a2:	241a                	fld	fs0,384(sp)
    806030a4:	ebf4                	sd	a3,208(a5)
    806030a6:	d214                	sw	a3,32(a2)
    806030a8:	03cd7297          	auipc	t0,0x3cd7
    806030ac:	63c1                	lui	t2,0x10
    806030ae:	a8de                	fsd	fs7,80(sp)
    806030b0:	6a4c                	ld	a1,144(a2)
    806030b2:	3d08                	fld	fa0,56(a0)
    806030b4:	d4ad                	beqz	s1,8060301e <data1+0x1e>
    806030b6:	5868                	lw	a0,116(s0)
    806030b8:	72d6                	ld	t0,368(sp)
    806030ba:	e3d0                	sd	a2,128(a5)
    806030bc:	82c3e7ef          	jal	a5,805410e8 <pre_attack1_end+0x140fec>
    806030c0:	d975                	beqz	a0,806030b4 <data1+0xb4>
    806030c2:	a4b5                	j	8060332e <data1+0x32e>
    806030c4:	6835                	lui	a6,0xd
    806030c6:	b1b8                	fsd	fa4,96(a1)
    806030c8:	541d                	li	s0,-25
    806030ca:	a094                	fsd	fa3,0(s1)
    806030cc:	e028                	sd	a0,64(s0)
    806030ce:	0259                	addi	tp,tp,22
    806030d0:	2c60                	fld	fs0,216(s0)
    806030d2:	07a6                	slli	a5,a5,0x9
    806030d4:	ac04                	fsd	fs1,24(s0)
    806030d6:	750a                	ld	a0,160(sp)
    806030d8:	a9089e4f          	fnmadd.s	ft8,fa7,fa6,fs5,rtz
    806030dc:	f961                	bnez	a0,806030ac <data1+0xac>
    806030de:	2dd0                	fld	fa2,152(a1)
    806030e0:	b0ff                	0xb0ff
    806030e2:	5592                	lw	a1,36(sp)
    806030e4:	d24a8863          	beq	s5,tp,80602614 <data+0x614>
    806030e8:	7909                	lui	s2,0xfffe2
    806030ea:	b06d                	j	80602994 <data+0x994>
    806030ec:	315c                	fld	fa5,160(a0)
    806030ee:	feff                	0xfeff
    806030f0:	3929                	addiw	s2,s2,-22
    806030f2:	712c                	ld	a1,96(a0)
    806030f4:	6598                	ld	a4,8(a1)
    806030f6:	5282                	lw	t0,32(sp)
    806030f8:	abd5                	j	806036ec <data1+0x6ec>
    806030fa:	b93c                	fsd	fa5,112(a0)
    806030fc:	0f20                	addi	s0,sp,920
    806030fe:	155b63e7          	0x155b63e7
    80603102:	976963b7          	lui	t2,0x97696
    80603106:	27596dc7          	fmsub.q	fs11,fs2,fs5,ft4,unknown
    8060310a:	c34d842b          	0xc34d842b
    8060310e:	23d9                	addiw	t2,t2,22
    80603110:	40fc                	lw	a5,68(s1)
    80603112:	e656                	sd	s5,264(sp)
    80603114:	cb04                	sw	s1,16(a4)
    80603116:	2756                	fld	fa4,336(sp)
    80603118:	971f 6445 0cf9      	0xcf96445971f
    8060311e:	2cdc                	fld	fa5,152(s1)
    80603120:	f5fd                	bnez	a1,8060310e <data1+0x10e>
    80603122:	2a78                	fld	fa4,208(a2)
    80603124:	544542a7          	fsq	ft4,1349(a0) # fffffffffffeb545 <secret+0xffffffff7f3eb545>
    80603128:	d3ed                	beqz	a5,8060310a <data1+0x10a>
    8060312a:	dc715863          	bge	sp,t2,806026fa <data+0x6fa>
    8060312e:	047c                	addi	a5,sp,524
    80603130:	a831                	j	8060314c <data1+0x14c>
    80603132:	99025cf7          	0x99025cf7
    80603136:	39ce                	fld	fs3,240(sp)
    80603138:	bd88                	fsd	fa0,56(a1)
    8060313a:	0990                	addi	a2,sp,208
    8060313c:	3518                	fld	fa4,40(a0)
    8060313e:	b334                	fsd	fa3,96(a4)
    80603140:	74a5                	lui	s1,0xfffe9
    80603142:	2bb2                	fld	fs7,264(sp)
    80603144:	738e                	ld	t2,224(sp)
    80603146:	572c                	lw	a1,104(a4)
    80603148:	d846                	sw	a7,48(sp)
    8060314a:	dda9                	beqz	a1,806030a4 <data1+0xa4>
    8060314c:	0d51                	addi	s10,s10,20
    8060314e:	0d9a                	slli	s11,s11,0x6
    80603150:	75ed                	lui	a1,0xffffb
    80603152:	cc7dac67          	0xcc7dac67
    80603156:	e836                	sd	a3,16(sp)
    80603158:	7e5a                	ld	t3,432(sp)
    8060315a:	9410                	0x9410
    8060315c:	afe4                	fsd	fs1,216(a5)
    8060315e:	4ad0                	lw	a2,20(a3)
    80603160:	0bd76a83          	lwu	s5,189(a4) # 50bd <_start-0x7fffaf43>
    80603164:	e75768eb          	0xe75768eb
    80603168:	0d74                	addi	a3,sp,668
    8060316a:	69c475b7          	lui	a1,0x69c47
    8060316e:	04955847          	0x4955847
    80603172:	5c38                	lw	a4,120(s0)
    80603174:	e1c5                	bnez	a1,80603214 <data1+0x214>
    80603176:	bd89                	j	80602fc8 <data+0xfc8>
    80603178:	8119                	srli	a0,a0,0x6
    8060317a:	5c8e                	lw	s9,224(sp)
    8060317c:	14d2                	slli	s1,s1,0x34
    8060317e:	f3f7456b          	0xf3f7456b
    80603182:	3ef2                	fld	ft9,312(sp)
    80603184:	9710                	0x9710
    80603186:	49eb727b          	0x49eb727b
    8060318a:	2c72                	fld	fs8,280(sp)
    8060318c:	ac25                	j	806033c4 <data1+0x3c4>
    8060318e:	5762                	lw	a4,56(sp)
    80603190:	2734                	fld	fa3,72(a4)
    80603192:	11c8                	addi	a0,sp,228
    80603194:	1928                	addi	a0,sp,184
    80603196:	4b56                	lw	s6,84(sp)
    80603198:	ddc8                	sw	a0,60(a1)
    8060319a:	f894                	sd	a3,48(s1)
    8060319c:	86a8                	0x86a8
    8060319e:	f57e                	sd	t6,168(sp)
    806031a0:	2029                	0x2029
    806031a2:	67303c43          	fmadd.q	fs8,ft0,fs3,fa2,rup
    806031a6:	271a                	fld	fa4,384(sp)
    806031a8:	ef85                	bnez	a5,806031e0 <data1+0x1e0>
    806031aa:	b232                	fsd	fa2,288(sp)
    806031ac:	8fe6                	mv	t6,s9
    806031ae:	b73c                	fsd	fa5,104(a4)
    806031b0:	2d7f                	0x2d7f
    806031b2:	d9c5                	beqz	a1,80603162 <data1+0x162>
    806031b4:	8cb85ddb          	0x8cb85ddb
    806031b8:	ed18                	sd	a4,24(a0)
    806031ba:	71b8                	ld	a4,96(a1)
    806031bc:	7c2e                	ld	s8,232(sp)
    806031be:	49657137          	lui	sp,0x49657
    806031c2:	46cd                	li	a3,19
    806031c4:	c35e562f          	0xc35e562f
    806031c8:	5b5ebfdb          	0x5b5ebfdb
    806031cc:	2cb4                	fld	fa3,88(s1)
    806031ce:	c92c                	sw	a1,80(a0)
    806031d0:	5bde                	lw	s7,244(sp)
    806031d2:	bc09                	j	80602be4 <data+0xbe4>
    806031d4:	7a89                	lui	s5,0xfffe2
    806031d6:	b135                	j	80602e02 <data+0xe02>
    806031d8:	8876                	mv	a6,t4
    806031da:	2262                	fld	ft4,24(sp)
    806031dc:	0b4ed2e3          	bge	t4,s4,80603a80 <data1+0xa80>
    806031e0:	7260                	ld	s0,224(a2)
    806031e2:	4685                	li	a3,1
    806031e4:	6589                	lui	a1,0x2
    806031e6:	41f1                	li	gp,28
    806031e8:	fdf2                	sd	t3,248(sp)
    806031ea:	947c                	0x947c
    806031ec:	05dd                	addi	a1,a1,23
    806031ee:	9915                	andi	a0,a0,-27
    806031f0:	034e9357          	0x34e9357
    806031f4:	5666                	lw	a2,120(sp)
    806031f6:	7192                	ld	gp,288(sp)
    806031f8:	a139                	j	80603606 <data1+0x606>
    806031fa:	bb69                	j	80602f94 <data+0xf94>
    806031fc:	2bc1                	addiw	s7,s7,16
    806031fe:	21b5                	addiw	gp,gp,13
    80603200:	68996e1b          	0x68996e1b
    80603204:	1b0a                	slli	s6,s6,0x22
    80603206:	ca49                	beqz	a2,80603298 <data1+0x298>
    80603208:	d45a                	sw	s6,40(sp)
    8060320a:	bb05                	j	80602f3a <data+0xf3a>
    8060320c:	645a                	ld	s0,400(sp)
    8060320e:	125c123f 621eb830 	0x621eb830125c123f
    80603216:	5b54                	lw	a3,52(a4)
    80603218:	a4cc                	fsd	fa1,136(s1)
    8060321a:	c185                	beqz	a1,8060323a <data1+0x23a>
    8060321c:	c2d4cde3          	blt	s1,a3,80602e56 <data+0xe56>
    80603220:	2e6a                	fld	ft8,152(sp)
    80603222:	0885                	addi	a7,a7,1
    80603224:	c25c                	sw	a5,4(a2)
    80603226:	279d                	addiw	a5,a5,7
    80603228:	8a3d                	andi	a2,a2,15
    8060322a:	3601                	addiw	a2,a2,-32
    8060322c:	e2e38913          	addi	s2,t2,-466 # ffffffff97695e2e <secret+0xffffffff16a95e2e>
    80603230:	149d                	addi	s1,s1,-25
    80603232:	f53a                	sd	a4,168(sp)
    80603234:	b245                	j	80602bd4 <data+0xbd4>
    80603236:	b424                	fsd	fs1,104(s0)
    80603238:	2b38                	fld	fa4,80(a4)
    8060323a:	e2386507          	0xe2386507
    8060323e:	17f2                	slli	a5,a5,0x3c
    80603240:	26de                	fld	fa3,464(sp)
    80603242:	2b5c9cdb          	0x2b5c9cdb
    80603246:	8e55                	or	a2,a2,a3
    80603248:	5c1d                	li	s8,-25
    8060324a:	feb2                	sd	a2,376(sp)
    8060324c:	ea92                	sd	tp,336(sp)
    8060324e:	6acc                	ld	a1,144(a3)
    80603250:	cced                	beqz	s1,8060334a <data1+0x34a>
    80603252:	a3fe9e2b          	0xa3fe9e2b
    80603256:	e0fc4cc7          	fmsub.s	fs9,fs8,fa5,ft8,rmm
    8060325a:	a91aef3b          	0xa91aef3b
    8060325e:	60cc                	ld	a1,128(s1)
    80603260:	dd50                	sw	a2,60(a0)
    80603262:	a0a2                	fsd	fs0,64(sp)
    80603264:	2cae                	fld	fs9,200(sp)
    80603266:	6fe6                	ld	t6,88(sp)
    80603268:	892c                	0x892c
    8060326a:	f136                	sd	a3,160(sp)
    8060326c:	6f32                	ld	t5,264(sp)
    8060326e:	152d5a3b          	0x152d5a3b
    80603272:	a079                	j	80603300 <data1+0x300>
    80603274:	55c6                	lw	a1,112(sp)
    80603276:	5d2e                	lw	s10,232(sp)
    80603278:	75d48aeb          	0x75d48aeb
    8060327c:	4032ae6f          	jal	t3,8062de7e <data7+0x24e7e>
    80603280:	eb3b33a3          	sd	s3,-345(s6)
    80603284:	ae2c3303          	ld	t1,-1310(s8)
    80603288:	397e                	fld	fs2,504(sp)
    8060328a:	08a8                	addi	a0,sp,88
    8060328c:	d8cd                	beqz	s1,8060323e <data1+0x23e>
    8060328e:	86b79f43          	fmadd.q	ft10,fa5,fa1,fa6,rtz
    80603292:	ac5b6ec3          	0xac5b6ec3
    80603296:	1f20                	addi	s0,sp,952
    80603298:	3621f3eb          	0x3621f3eb
    8060329c:	5d46                	lw	s10,112(sp)
    8060329e:	06ce                	slli	a3,a3,0x13
    806032a0:	7495                	lui	s1,0xfffe5
    806032a2:	e1a6                	sd	s1,192(sp)
    806032a4:	bf9a3483          	ld	s1,-1031(s4) # ffffffffffffebf9 <secret+0xffffffff7f3febf9>
    806032a8:	0f41                	addi	t5,t5,16
    806032aa:	940f826f          	jal	tp,805fb3ea <pre_attack1_end+0x1fb2ee>
    806032ae:	e835                	bnez	s0,80603322 <data1+0x322>
    806032b0:	d301                	beqz	a4,806031b0 <data1+0x1b0>
    806032b2:	3478                	fld	fa4,232(s0)
    806032b4:	b43c                	fsd	fa5,104(s0)
    806032b6:	316d                	addiw	sp,sp,-5
    806032b8:	0cdc                	addi	a5,sp,596
    806032ba:	39d0                	fld	fa2,176(a1)
    806032bc:	2378e94b          	fnmsub.d	fs2,fa7,fs7,ft4,unknown
    806032c0:	c524                	sw	s1,72(a0)
    806032c2:	25a0                	fld	fs0,72(a1)
    806032c4:	d376                	sw	t4,164(sp)
    806032c6:	8521                	srai	a0,a0,0x8
    806032c8:	71cd                	lui	gp,0xffff3
    806032ca:	ae7ebf7b          	0xae7ebf7b
    806032ce:	da8cde3b          	0xda8cde3b
    806032d2:	f09f 0776 8fbe      	0x8fbe0776f09f
    806032d8:	d814                	sw	a3,48(s0)
    806032da:	aaa4                	fsd	fs1,80(a3)
    806032dc:	ab61                	j	80603874 <data1+0x874>
    806032de:	1d860f67          	jalr	t5,472(a2)
    806032e2:	8565                	srai	a0,a0,0x19
    806032e4:	4d3a                	lw	s10,140(sp)
    806032e6:	1138                	addi	a4,sp,168
    806032e8:	2e82                	fld	ft9,0(sp)
    806032ea:	3e30                	fld	fa2,120(a2)
    806032ec:	ec75                	bnez	s0,806033e8 <data1+0x3e8>
    806032ee:	0200                	addi	s0,sp,256
    806032f0:	d9f3e3d3          	0xd9f3e3d3
    806032f4:	e0e9                	bnez	s1,806033b6 <data1+0x3b6>
    806032f6:	9dbc                	0x9dbc
    806032f8:	5104                	lw	s1,32(a0)
    806032fa:	2b85                	addiw	s7,s7,1
    806032fc:	934a                	add	t1,t1,s2
    806032fe:	04ca                	slli	s1,s1,0x12
    80603300:	9e30                	0x9e30
    80603302:	401c                	lw	a5,0(s0)
    80603304:	2ce9                	addiw	s9,s9,26
    80603306:	893abac3          	fmadd.s	fs5,fs5,fs3,fa7,rup
    8060330a:	06f8995b          	0x6f8995b
    8060330e:	2ee9                	addiw	t4,t4,26
    80603310:	bc5e                	fsd	fs7,56(sp)
    80603312:	d6f1                	beqz	a3,806032de <data1+0x2de>
    80603314:	e162810b          	0xe162810b
    80603318:	ccc9                	beqz	s1,806033b2 <data1+0x3b2>
    8060331a:	75fb68a7          	0x75fb68a7
    8060331e:	d79866c7          	fmsub.q	fa3,fa6,fs9,fs10,unknown
    80603322:	12ce                	slli	t0,t0,0x33
    80603324:	c73e                	sw	a5,140(sp)
    80603326:	610e6387          	0x610e6387
    8060332a:	f45e39ab          	0xf45e39ab
    8060332e:	031f ca3e e8e0      	0xe8e0ca3e031f
    80603334:	25d5                	addiw	a1,a1,21
    80603336:	7024                	ld	s1,96(s0)
    80603338:	8232                	mv	tp,a2
    8060333a:	ec59                	bnez	s0,806033d8 <data1+0x3d8>
    8060333c:	ce91fb87          	0xce91fb87
    80603340:	3462eaf3          	csrrsi	s5,0x346,5
    80603344:	0870                	addi	a2,sp,28
    80603346:	fddd                	bnez	a1,80603304 <data1+0x304>
    80603348:	137f                	0x137f
    8060334a:	6f92                	ld	t6,256(sp)
    8060334c:	6acd69f3          	csrrsi	s3,0x6ac,26
    80603350:	15d1                	addi	a1,a1,-12
    80603352:	9a80                	0x9a80
    80603354:	c90c                	sw	a1,16(a0)
    80603356:	70e2                	ld	ra,56(sp)
    80603358:	3f0e2437          	lui	s0,0x3f0e2
    8060335c:	28c8                	fld	fa0,144(s1)
    8060335e:	4ae9d86b          	0x4ae9d86b
    80603362:	13a1b737          	lui	a4,0x13a1b
    80603366:	3b8b0653          	0x3b8b0653
    8060336a:	8c75                	and	s0,s0,a3
    8060336c:	8c5e                	mv	s8,s7
    8060336e:	24501577          	0x24501577
    80603372:	9fdeb3c3          	fmadd.q	ft7,ft9,ft9,fs3,rup
    80603376:	6a24                	ld	s1,80(a2)
    80603378:	b218                	fsd	fa4,32(a2)
    8060337a:	d99fc987          	flq	fs3,-615(t6)
    8060337e:	4c6c                	lw	a1,92(s0)
    80603380:	efc1                	bnez	a5,80603418 <data1+0x418>
    80603382:	5191                	li	gp,-28
    80603384:	2026                	fld	ft0,72(sp)
    80603386:	de08                	sw	a0,56(a2)
    80603388:	727c                	ld	a5,224(a2)
    8060338a:	a8b5                	j	80603406 <data1+0x406>
    8060338c:	6789                	lui	a5,0x2
    8060338e:	42d2                	lw	t0,20(sp)
    80603390:	c7dcbaaf          	amominu.d.aqrl	s5,t4,(s9)
    80603394:	6ef2                	ld	t4,280(sp)
    80603396:	3c80                	fld	fs0,56(s1)
    80603398:	bfe6                	fsd	fs9,504(sp)
    8060339a:	d852                	sw	s4,48(sp)
    8060339c:	12f9                	addi	t0,t0,-2
    8060339e:	bf19                	j	806032b4 <data1+0x2b4>
    806033a0:	23c5                	addiw	t2,t2,17
    806033a2:	9f1e                	add	t5,t5,t2
    806033a4:	9619                	srai	a2,a2,0x26
    806033a6:	e082                	sd	zero,64(sp)
    806033a8:	bcf5                	j	80602ea4 <data+0xea4>
    806033aa:	6fb5                	lui	t6,0xd
    806033ac:	08e184eb          	0x8e184eb
    806033b0:	b7c2                	fsd	fa6,488(sp)
    806033b2:	b90e                	fsd	ft3,176(sp)
    806033b4:	f26e                	sd	s11,288(sp)
    806033b6:	086d                	addi	a6,a6,27
    806033b8:	894e                	mv	s2,s3
    806033ba:	5a2d                	li	s4,-21
    806033bc:	2445                	addiw	s0,s0,17
    806033be:	7ae39b6f          	jal	s6,8063cb6c <data7+0x33b6c>
    806033c2:	46f5                	li	a3,29
    806033c4:	adea                	fsd	fs10,216(sp)
    806033c6:	9bc9                	andi	a5,a5,-14
    806033c8:	6a39                	lui	s4,0xe
    806033ca:	f0a2623b          	0xf0a2623b
    806033ce:	62855a97          	auipc	s5,0x62855
    806033d2:	e7e8                	sd	a0,200(a5)
    806033d4:	35e5                	addiw	a1,a1,-7
    806033d6:	b889                	j	80602c28 <data+0xc28>
    806033d8:	5b9e                	lw	s7,228(sp)
    806033da:	95cc2573          	csrrs	a0,0x95c,s8
    806033de:	2cb2                	fld	fs9,264(sp)
    806033e0:	1f0e                	slli	t5,t5,0x23
    806033e2:	3296                	fld	ft5,352(sp)
    806033e4:	c492                	sw	tp,72(sp)
    806033e6:	67ec                	ld	a1,200(a5)
    806033e8:	f979                	bnez	a0,806033be <data1+0x3be>
    806033ea:	1565                	addi	a0,a0,-7
    806033ec:	71d5                	lui	gp,0xffff5
    806033ee:	52da                	lw	t0,180(sp)
    806033f0:	c381                	beqz	a5,806033f0 <data1+0x3f0>
    806033f2:	00e2                	slli	ra,ra,0x18
    806033f4:	b45c                	fsd	fa5,168(s0)
    806033f6:	67ec5bc7          	fmsub.q	fs7,fs8,ft10,fa2,unknown
    806033fa:	0899                	addi	a7,a7,6
    806033fc:	7ccc                	ld	a1,184(s1)
    806033fe:	000045c3          	fmadd.s	fa1,ft0,ft0,ft0,rmm
	...

0000000080604000 <data2>:
    80604000:	4ea688e3          	beq	a3,a0,80604cf0 <data2+0xcf0>
    80604004:	f1fa                	sd	t5,224(sp)
    80604006:	feb6                	sd	a3,376(sp)
    80604008:	af59                	j	8060479e <data2+0x79e>
    8060400a:	fee0                	sd	s0,248(a3)
    8060400c:	ee5220f3          	csrrs	ra,0xee5,tp
    80604010:	fbb7c1f3          	0xfbb7c1f3
    80604014:	aae1                	j	806041ec <data2+0x1ec>
    80604016:	2935                	addiw	s2,s2,13
    80604018:	f9d88b3b          	0xf9d88b3b
    8060401c:	1c70                	addi	a2,sp,572
    8060401e:	307f                	0x307f
    80604020:	1bff                	0x1bff
    80604022:	a468                	fsd	fa0,200(s0)
    80604024:	6cde                	ld	s9,464(sp)
    80604026:	1260fb67          	0x1260fb67
    8060402a:	d569                	beqz	a0,80603ff4 <data1+0xff4>
    8060402c:	b6123bc7          	fmsub.q	fs7,ft4,ft1,fs6,rup
    80604030:	245c                	fld	fa5,136(s0)
    80604032:	afa6fdb3          	0xafa6fdb3
    80604036:	7d5a                	ld	s10,432(sp)
    80604038:	43bd                	li	t2,15
    8060403a:	6a5d                	lui	s4,0x17
    8060403c:	d185d2f7          	0xd185d2f7
    80604040:	7996                	ld	s3,352(sp)
    80604042:	309c                	fld	fa5,32(s1)
    80604044:	49c04b83          	lbu	s7,1180(zero) # 49c <_start-0x7ffffb64>
    80604048:	eb44                	sd	s1,144(a4)
    8060404a:	5124                	lw	s1,96(a0)
    8060404c:	41aa                	lw	gp,136(sp)
    8060404e:	1966                	slli	s2,s2,0x39
    80604050:	58de                	lw	a7,244(sp)
    80604052:	31934dab          	0x31934dab
    80604056:	30881ad3          	0x30881ad3
    8060405a:	61b5                	lui	gp,0xd
    8060405c:	8ba5                	andi	a5,a5,9
    8060405e:	df76                	sw	t4,188(sp)
    80604060:	7e4c                	ld	a1,184(a2)
    80604062:	a2ad                	j	806041cc <data2+0x1cc>
    80604064:	dd54                	sw	a3,60(a0)
    80604066:	48d6                	lw	a7,84(sp)
    80604068:	bed218d7          	0xbed218d7
    8060406c:	eebd                	bnez	a3,806040ea <data2+0xea>
    8060406e:	952e                	add	a0,a0,a1
    80604070:	a750                	fsd	fa2,136(a4)
    80604072:	7314                	ld	a3,32(a4)
    80604074:	a6503953          	0xa6503953
    80604078:	2006                	fld	ft0,64(sp)
    8060407a:	32555fbf b93998be 	0xb93998be32555fbf
    80604082:	3bd9                	addiw	s7,s7,-10
    80604084:	63ec                	ld	a1,192(a5)
    80604086:	ce24                	sw	s1,88(a2)
    80604088:	f128                	sd	a0,96(a0)
    8060408a:	58f2                	lw	a7,60(sp)
    8060408c:	4b1485ef          	jal	a1,8064cd3c <data7+0x43d3c>
    80604090:	4d1e                	lw	s10,196(sp)
    80604092:	96e01f4b          	fnmsub.q	ft10,ft0,fa4,fs2,rtz
    80604096:	432c                	lw	a1,64(a4)
    80604098:	bf7c                	fsd	fa5,248(a4)
    8060409a:	64300e73          	0x64300e73
    8060409e:	3cec                	fld	fa1,248(s1)
    806040a0:	41228b0f          	0x41228b0f
    806040a4:	5711                	li	a4,-28
    806040a6:	b120d7f7          	0xb120d7f7
    806040aa:	44da                	lw	s1,148(sp)
    806040ac:	d89ac443          	fmadd.s	fs0,fs5,fs1,fs11,rmm
    806040b0:	b3da                	fsd	fs6,480(sp)
    806040b2:	f96c                	sd	a1,240(a0)
    806040b4:	1949a36f          	jal	t1,8069e248 <data7+0x95248>
    806040b8:	3ee1                	addiw	t4,t4,-8
    806040ba:	90f9                	srli	s1,s1,0x3e
    806040bc:	b9269643          	fmadd.s	fa2,fa3,fs2,fs7,rtz
    806040c0:	3430                	fld	fa2,104(s0)
    806040c2:	5a6a                	lw	s4,184(sp)
    806040c4:	e4e5                	bnez	s1,806041ac <data2+0x1ac>
    806040c6:	3124                	fld	fs1,96(a0)
    806040c8:	f238                	sd	a4,96(a2)
    806040ca:	4d36bf97          	auipc	t6,0x4d36b
    806040ce:	c6621cd7          	0xc6621cd7
    806040d2:	fd84                	sd	s1,56(a1)
    806040d4:	fb12                	sd	tp,432(sp)
    806040d6:	5b3e                	lw	s6,236(sp)
    806040d8:	ccbe                	sw	a5,88(sp)
    806040da:	736a                	ld	t1,184(sp)
    806040dc:	71fd                	lui	gp,0xfffff
    806040de:	9e61                	0x9e61
    806040e0:	aabd                	j	8060425e <data2+0x25e>
    806040e2:	0bad                	addi	s7,s7,11
    806040e4:	fd6985eb          	0xfd6985eb
    806040e8:	9e0a                	add	t3,t3,sp
    806040ea:	7089                	lui	ra,0xfffe2
    806040ec:	7096                	ld	ra,352(sp)
    806040ee:	17fd                	addi	a5,a5,-1
    806040f0:	8851                	andi	s0,s0,20
    806040f2:	4148                	lw	a0,4(a0)
    806040f4:	8a443a7b          	0x8a443a7b
    806040f8:	c02e                	sw	a1,0(sp)
    806040fa:	8141                	srli	a0,a0,0x10
    806040fc:	b838                	fsd	fa4,112(s0)
    806040fe:	dbd9                	beqz	a5,80604094 <data2+0x94>
    80604100:	95dc640b          	0x95dc640b
    80604104:	a4a1                	j	8060434c <data2+0x34c>
    80604106:	628d                	lui	t0,0x3
    80604108:	5a2370c3          	fmadd.d	ft1,ft6,ft2,fa1
    8060410c:	a1a2fdf7          	0xa1a2fdf7
    80604110:	e29f 1660 2918      	0x29181660e29f
    80604116:	3eccf613          	andi	a2,s9,1004
    8060411a:	877c                	0x877c
    8060411c:	5469                	li	s0,-6
    8060411e:	4db6                	lw	s11,76(sp)
    80604120:	78098bf3          	0x78098bf3
    80604124:	d5877d27          	0xd5877d27
    80604128:	5b3e4fa7          	fsq	fs3,1471(t3) # 1e5bf <_start-0x7ffe1a41>
    8060412c:	23ff                	0x23ff
    8060412e:	a3cc                	fsd	fa1,128(a5)
    80604130:	2156                	fld	ft2,336(sp)
    80604132:	83de                	mv	t2,s7
    80604134:	3576                	fld	fa0,376(sp)
    80604136:	ff18                	sd	a4,56(a4)
    80604138:	e159                	bnez	a0,806041be <data2+0x1be>
    8060413a:	cb2a05bb          	0xcb2a05bb
    8060413e:	1a18                	addi	a4,sp,304
    80604140:	e83e                	sd	a5,16(sp)
    80604142:	69ff                	0x69ff
    80604144:	c6b920c3          	fmadd.q	ft1,fs2,fa1,fs8,rdn
    80604148:	e5e1                	bnez	a1,80604210 <data2+0x210>
    8060414a:	35d4                	fld	fa3,168(a1)
    8060414c:	1ebc                	addi	a5,sp,888
    8060414e:	ea4c5253          	0xea4c5253
    80604152:	61f9                	lui	gp,0x1e
    80604154:	387f                	0x387f
    80604156:	1324                	addi	s1,sp,424
    80604158:	62e5                	lui	t0,0x19
    8060415a:	7a4d                	lui	s4,0xffff3
    8060415c:	2bc8                	fld	fa0,144(a5)
    8060415e:	d7aa214b          	fnmsub.q	ft2,fs4,fs10,fs10,rdn
    80604162:	d5cc                	sw	a1,44(a1)
    80604164:	3b91                	addiw	s7,s7,-28
    80604166:	1eed                	addi	t4,t4,-5
    80604168:	ee2e                	sd	a1,280(sp)
    8060416a:	9b96                	add	s7,s7,t0
    8060416c:	4b48                	lw	a0,20(a4)
    8060416e:	3b40                	fld	fs0,176(a4)
    80604170:	6e1c                	ld	a5,24(a2)
    80604172:	959c4c5b          	0x959c4c5b
    80604176:	be99                	j	80603ccc <data1+0xccc>
    80604178:	7395                	lui	t2,0xfffe5
    8060417a:	7124                	ld	s1,96(a0)
    8060417c:	d314                	sw	a3,32(a4)
    8060417e:	a3e6                	fsd	fs9,448(sp)
    80604180:	e824                	sd	s1,80(s0)
    80604182:	31df 66da 44e2      	0x44e266da31df
    80604188:	2668                	fld	fa0,200(a2)
    8060418a:	09c0                	addi	s0,sp,212
    8060418c:	deed8487          	0xdeed8487
    80604190:	b030                	fsd	fa2,96(s0)
    80604192:	aa5d                	j	80604348 <data2+0x348>
    80604194:	05b6                	slli	a1,a1,0xd
    80604196:	0c59                	addi	s8,s8,22
    80604198:	4484                	lw	s1,8(s1)
    8060419a:	447e                	lw	s0,220(sp)
    8060419c:	f575                	bnez	a0,80604188 <data2+0x188>
    8060419e:	270e                	fld	fa4,192(sp)
    806041a0:	e1e1                	bnez	a1,80604260 <data2+0x260>
    806041a2:	082787bf b1890b9c 	0xb1890b9c082787bf
    806041aa:	a0cd                	j	8060428c <data2+0x28c>
    806041ac:	e4209f8f          	0xe4209f8f
    806041b0:	bba332b3          	0xbba332b3
    806041b4:	0a0c                	addi	a1,sp,272
    806041b6:	7faa                	ld	t6,168(sp)
    806041b8:	7530                	ld	a2,104(a0)
    806041ba:	2da1                	addiw	s11,s11,8
    806041bc:	b2a2                	fsd	fs0,352(sp)
    806041be:	e39c                	sd	a5,0(a5)
    806041c0:	473f9cd3          	0x473f9cd3
    806041c4:	21cc                	fld	fa1,128(a1)
    806041c6:	de6c                	sw	a1,124(a2)
    806041c8:	605f 89f0 25c4      	0x25c489f0605f
    806041ce:	71f4                	ld	a3,224(a1)
    806041d0:	24d6                	fld	fs1,336(sp)
    806041d2:	af4f37fb          	0xaf4f37fb
    806041d6:	b0fa8717          	auipc	a4,0xb0fa8
    806041da:	9771                	srai	a4,a4,0x3c
    806041dc:	88e9                	andi	s1,s1,26
    806041de:	1ca2908b          	0x1ca2908b
    806041e2:	dc95                	beqz	s1,8060411e <data2+0x11e>
    806041e4:	f2a8                	sd	a0,96(a3)
    806041e6:	ea0fcdd3          	0xea0fcdd3
    806041ea:	4d3a                	lw	s10,140(sp)
    806041ec:	99faf9b3          	0x99faf9b3
    806041f0:	de891be3          	bne	s2,s0,80603fe6 <data1+0xfe6>
    806041f4:	b03e1e23          	sh	gp,-1252(t3)
    806041f8:	2fd2960f          	0x2fd2960f
    806041fc:	91f6                	add	gp,gp,t4
    806041fe:	6516                	ld	a0,320(sp)
    80604200:	79fd                	lui	s3,0xfffff
    80604202:	fac8                	sd	a0,176(a3)
    80604204:	c0f5                	beqz	s1,806042e8 <data2+0x2e8>
    80604206:	2e2e                	fld	ft8,200(sp)
    80604208:	97a1                	srai	a5,a5,0x28
    8060420a:	0699                	addi	a3,a3,6
    8060420c:	6a78                	ld	a4,208(a2)
    8060420e:	8280                	0x8280
    80604210:	ee22                	sd	s0,280(sp)
    80604212:	01e9                	addi	gp,gp,26
    80604214:	6a6a                	ld	s4,152(sp)
    80604216:	2550                	fld	fa2,136(a0)
    80604218:	d9f56c87          	0xd9f56c87
    8060421c:	f37c                	sd	a5,224(a4)
    8060421e:	2f7f                	0x2f7f
    80604220:	140c1353          	0x140c1353
    80604224:	0dc65eb7          	lui	t4,0xdc65
    80604228:	6612                	ld	a2,256(sp)
    8060422a:	03b29c8f          	0x3b29c8f
    8060422e:	7ed604e7          	jalr	s1,2029(a2)
    80604232:	c2d8                	sw	a4,4(a3)
    80604234:	db0183a3          	sb	a6,-601(gp) # 1dda7 <_start-0x7ffe2259>
    80604238:	0b7c                	addi	a5,sp,412
    8060423a:	630d                	lui	t1,0x3
    8060423c:	f7be                	sd	a5,488(sp)
    8060423e:	e3d8d10f          	0xe3d8d10f
    80604242:	2c73038f          	0x2c73038f
    80604246:	af8a                	fsd	ft2,472(sp)
    80604248:	26c0                	fld	fs0,136(a3)
    8060424a:	7862                	ld	a6,56(sp)
    8060424c:	488a                	lw	a7,128(sp)
    8060424e:	01ea                	slli	gp,gp,0x1a
    80604250:	b34c                	fsd	fa1,160(a4)
    80604252:	4f00                	lw	s0,24(a4)
    80604254:	fa298bef          	jal	s7,8059c9f6 <pre_attack1_end+0x19c8fa>
    80604258:	31b1                	addiw	gp,gp,-20
    8060425a:	efe2                	sd	s8,472(sp)
    8060425c:	a915                	j	80604690 <data2+0x690>
    8060425e:	9532                	add	a0,a0,a2
    80604260:	95ff                	0x95ff
    80604262:	e6ac                	sd	a1,72(a3)
    80604264:	c7a0                	sw	s0,72(a5)
    80604266:	60ad8e63          	beq	s11,a0,80604882 <data2+0x882>
    8060426a:	15e4e347          	0x15e4e347
    8060426e:	d062                	sw	s8,32(sp)
    80604270:	c35884cf          	fnmadd.d	fs1,fa7,fs5,fs8,rne
    80604274:	1e76                	slli	t3,t3,0x3d
    80604276:	be2e                	fsd	fa1,312(sp)
    80604278:	e8846d0f          	0xe8846d0f
    8060427c:	b34d                	j	8060401e <data2+0x1e>
    8060427e:	e358                	sd	a4,128(a4)
    80604280:	282d                	addiw	a6,a6,11
    80604282:	f6b4                	sd	a3,104(a3)
    80604284:	2319                	addiw	t1,t1,6
    80604286:	5c8dcd8b          	0x5c8dcd8b
    8060428a:	6796                	ld	a5,320(sp)
    8060428c:	b035                	j	80603ab8 <data1+0xab8>
    8060428e:	bcb8                	fsd	fa4,120(s1)
    80604290:	a499a74f          	0xa499a74f
    80604294:	cbcb50d3          	0xcbcb50d3
    80604298:	8dc9                	or	a1,a1,a0
    8060429a:	b0e6                	fsd	fs9,96(sp)
    8060429c:	5e476683          	lwu	a3,1508(a4) # 315ac7ba <_start-0x4ea53846>
    806042a0:	25889847          	0x25889847
    806042a4:	137f                	0x137f
    806042a6:	5c36                	lw	s8,108(sp)
    806042a8:	ae579ef3          	csrrw	t4,0xae5,a5
    806042ac:	ea0a0b53          	0xea0a0b53
    806042b0:	560d                	li	a2,-29
    806042b2:	afb5                	j	80604a2e <data2+0xa2e>
    806042b4:	1050                	addi	a2,sp,36
    806042b6:	001d                	c.nop	7
    806042b8:	be7f                	0xbe7f
    806042ba:	49a9                	li	s3,10
    806042bc:	bfaa                	fsd	fa0,504(sp)
    806042be:	faf8                	sd	a4,240(a3)
    806042c0:	8cee                	mv	s9,s11
    806042c2:	fdd4b893          	sltiu	a7,s1,-35
    806042c6:	0b51                	addi	s6,s6,20
    806042c8:	ff65                	bnez	a4,806042c0 <data2+0x2c0>
    806042ca:	e671                	bnez	a2,80604396 <data2+0x396>
    806042cc:	bcde                	fsd	fs7,120(sp)
    806042ce:	c164f39b          	0xc164f39b
    806042d2:	62f4                	ld	a3,192(a3)
    806042d4:	5b95                	li	s7,-27
    806042d6:	c7ea                	sw	s10,204(sp)
    806042d8:	dd69                	beqz	a0,806042b2 <data2+0x2b2>
    806042da:	27cd                	addiw	a5,a5,19
    806042dc:	b8b6                	fsd	fa3,112(sp)
    806042de:	306c                	fld	fa1,224(s0)
    806042e0:	4221                	li	tp,8
    806042e2:	765a                	ld	a2,432(sp)
    806042e4:	015efaeb          	0x15efaeb
    806042e8:	ba157f9b          	0xba157f9b
    806042ec:	bbd29f47          	fmsub.d	ft10,ft5,ft9,fs7,rtz
    806042f0:	3bb6                	fld	fs7,360(sp)
    806042f2:	655644cb          	0x655644cb
    806042f6:	b808                	fsd	fa0,48(s0)
    806042f8:	cbea                	sw	s10,212(sp)
    806042fa:	eecc                	sd	a1,152(a3)
    806042fc:	25c0                	fld	fs0,136(a1)
    806042fe:	e102                	sd	zero,128(sp)
    80604300:	f3ff                	0xf3ff
    80604302:	5700                	lw	s0,40(a4)
    80604304:	b8e8                	fsd	fa0,240(s1)
    80604306:	7af6                	ld	s5,376(sp)
    80604308:	d6c1                	beqz	a3,80604290 <data2+0x290>
    8060430a:	dbae9f63          	bne	t4,s10,806038c8 <data1+0x8c8>
    8060430e:	c6c6                	sw	a7,76(sp)
    80604310:	1f5e                	slli	t5,t5,0x37
    80604312:	1ce9                	addi	s9,s9,-6
    80604314:	db10                	sw	a2,48(a4)
    80604316:	5f7cf9b3          	0x5f7cf9b3
    8060431a:	178e9e6f          	jal	t3,806ed492 <data7+0xe4492>
    8060431e:	373e                	fld	fa4,488(sp)
    80604320:	29412717          	auipc	a4,0x29412
    80604324:	0c5f 37a4 0581      	0x58137a40c5f
    8060432a:	2efd857b          	0x2efd857b
    8060432e:	6c55                	lui	s8,0x15
    80604330:	f635                	bnez	a2,8060429c <data2+0x29c>
    80604332:	824a                	mv	tp,s2
    80604334:	b19a                	fsd	ft6,224(sp)
    80604336:	39e1                	addiw	s3,s3,-8
    80604338:	e474                	sd	a3,200(s0)
    8060433a:	6edd                	lui	t4,0x17
    8060433c:	f52c                	sd	a1,104(a0)
    8060433e:	d3c4                	sw	s1,36(a5)
    80604340:	33dd                	addiw	t2,t2,-9
    80604342:	054248ab          	0x54248ab
    80604346:	e2df a8ef a783      	0xa783a8efe2df
    8060434c:	eab5                	bnez	a3,806043c0 <data2+0x3c0>
    8060434e:	c74c                	sw	a1,12(a4)
    80604350:	a6d5710f          	0xa6d5710f
    80604354:	a86d                	j	8060440e <data2+0x40e>
    80604356:	16d8                	addi	a4,sp,868
    80604358:	5dec                	lw	a1,124(a1)
    8060435a:	ff54                	sd	a3,184(a4)
    8060435c:	3398                	fld	fa4,32(a5)
    8060435e:	417304f3          	0x417304f3
    80604362:	d07725c3          	fmadd.s	fa1,fa4,ft7,fs10,rdn
    80604366:	544eba0b          	0x544eba0b
    8060436a:	fb01                	bnez	a4,8060427a <data2+0x27a>
    8060436c:	41ca                	lw	gp,144(sp)
    8060436e:	d915                	beqz	a0,806042a2 <data2+0x2a2>
    80604370:	77c4e03b          	0x77c4e03b
    80604374:	2ae1                	addiw	s5,s5,24
    80604376:	fbd0                	sd	a2,176(a5)
    80604378:	47f2                	lw	a5,28(sp)
    8060437a:	d7e1                	beqz	a5,80604342 <data2+0x342>
    8060437c:	b738                	fsd	fa4,104(a4)
    8060437e:	4096                	lw	ra,68(sp)
    80604380:	c6e6                	sw	s9,76(sp)
    80604382:	0cba                	slli	s9,s9,0xe
    80604384:	406e5d53          	0x406e5d53
    80604388:	d80a                	sw	sp,48(sp)
    8060438a:	c4cc                	sw	a1,12(s1)
    8060438c:	9378                	0x9378
    8060438e:	2421                	addiw	s0,s0,8
    80604390:	cae6                	sw	s9,84(sp)
    80604392:	55c1                	li	a1,-16
    80604394:	89171107          	0x89171107
    80604398:	96e2c71b          	0x96e2c71b
    8060439c:	629e9d5b          	0x629e9d5b
    806043a0:	59294f8f          	0x59294f8f
    806043a4:	e44e                	sd	s3,8(sp)
    806043a6:	c2d4                	sw	a3,4(a3)
    806043a8:	2120                	fld	fs0,64(a0)
    806043aa:	0d7a                	slli	s10,s10,0x1e
    806043ac:	6f80                	ld	s0,24(a5)
    806043ae:	295f 96ea 6f43      	0x6f4396ea295f
    806043b4:	a87bc7a3          	0xa87bc7a3
    806043b8:	f4fa                	sd	t5,104(sp)
    806043ba:	4e61                	li	t3,24
    806043bc:	0c8c                	addi	a1,sp,592
    806043be:	d516                	sw	t0,168(sp)
    806043c0:	f9b0                	sd	a2,112(a1)
    806043c2:	e2259ba7          	0xe2259ba7
    806043c6:	4d28                	lw	a0,88(a0)
    806043c8:	912d                	srli	a0,a0,0x2b
    806043ca:	aa19                	j	806044e0 <data2+0x4e0>
    806043cc:	eb42                	sd	a6,400(sp)
    806043ce:	28e2                	fld	fa7,24(sp)
    806043d0:	6876                	ld	a6,344(sp)
    806043d2:	1ed9f307          	0x1ed9f307
    806043d6:	7a4d                	lui	s4,0xffff3
    806043d8:	0a3c                	addi	a5,sp,280
    806043da:	8e5a                	mv	t3,s6
    806043dc:	efdf c176 5df9      	0x5df9c176efdf
    806043e2:	3441                	addiw	s0,s0,-16
    806043e4:	8944                	0x8944
    806043e6:	7ed1                	lui	t4,0xffff4
    806043e8:	85b277e3          	bgeu	tp,s11,80603c36 <data1+0xc36>
    806043ec:	2872                	fld	fa6,280(sp)
    806043ee:	1d12                	slli	s10,s10,0x24
    806043f0:	29a1                	addiw	s3,s3,8
    806043f2:	8662                	mv	a2,s8
    806043f4:	247f                	0x247f
    806043f6:	6a08                	ld	a0,16(a2)
    806043f8:	f08c                	sd	a1,32(s1)
    806043fa:	204c                	fld	fa1,128(s0)
    806043fc:	3ada                	fld	fs5,432(sp)
    806043fe:	0000b70b          	0xb70b
	...

0000000080605000 <data3>:
    80605000:	4d0e                	lw	s10,192(sp)
    80605002:	c771                	beqz	a4,806050ce <data3+0xce>
    80605004:	6f4494c3          	fmadd.q	fs1,fs1,fs4,fa3,rtz
    80605008:	7aad                	lui	s5,0xfffeb
    8060500a:	88f9                	andi	s1,s1,30
    8060500c:	ebbd                	bnez	a5,80605082 <data3+0x82>
    8060500e:	886e                	mv	a6,s11
    80605010:	3b65                	addiw	s6,s6,-7
    80605012:	867a                	mv	a2,t5
    80605014:	4e2d                	li	t3,11
    80605016:	a9dc                	fsd	fa5,144(a1)
    80605018:	8d2a                	mv	s10,a0
    8060501a:	fe30                	sd	a2,120(a2)
    8060501c:	d917d7a7          	0xd917d7a7
    80605020:	0de2                	slli	s11,s11,0x18
    80605022:	20b4                	fld	fa3,64(s1)
    80605024:	3e0d                	addiw	t3,t3,-29
    80605026:	21c8                	fld	fa0,128(a1)
    80605028:	a4e4                	fsd	fs1,200(s1)
    8060502a:	d6ac                	sw	a1,104(a3)
    8060502c:	eede                	sd	s7,344(sp)
    8060502e:	2225                	addiw	tp,tp,9
    80605030:	0fa0                	addi	s0,sp,984
    80605032:	8f00                	0x8f00
    80605034:	408417fb          	0x408417fb
    80605038:	b3ad                	j	80604da2 <data2+0xda2>
    8060503a:	224e                	fld	ft4,208(sp)
    8060503c:	c2c4                	sw	s1,4(a3)
    8060503e:	b356                	fsd	fs5,416(sp)
    80605040:	4c30                	lw	a2,88(s0)
    80605042:	1e7d                	addi	t3,t3,-1
    80605044:	783e                	ld	a6,488(sp)
    80605046:	bd735b2f          	0xbd735b2f
    8060504a:	b746                	fsd	fa7,424(sp)
    8060504c:	6132                	ld	sp,264(sp)
    8060504e:	1ad298eb          	0x1ad298eb
    80605052:	61b00d67          	jalr	s10,1563(zero) # 0 <_start-0x80000000>
    80605056:	d65112d7          	0xd65112d7
    8060505a:	0a72                	slli	s4,s4,0x1c
    8060505c:	38ff6a77          	0x38ff6a77
    80605060:	8289                	srli	a3,a3,0x2
    80605062:	a418                	fsd	fa4,8(s0)
    80605064:	e1b7b113          	sltiu	sp,a5,-485
    80605068:	dd9c                	sw	a5,56(a1)
    8060506a:	e5a808fb          	0xe5a808fb
    8060506e:	bc00                	fsd	fs0,56(s0)
    80605070:	1629                	addi	a2,a2,-22
    80605072:	e8ad                	bnez	s1,806050e4 <data3+0xe4>
    80605074:	57aa                	lw	a5,168(sp)
    80605076:	7465                	lui	s0,0xffff9
    80605078:	db42                	sw	a6,180(sp)
    8060507a:	fe76                	sd	t4,312(sp)
    8060507c:	cbd1                	beqz	a5,80605110 <data3+0x110>
    8060507e:	6998                	ld	a4,16(a1)
    80605080:	a03d74ef          	jal	s1,805dca82 <pre_attack1_end+0x1dc986>
    80605084:	ad4e                	fsd	fs3,152(sp)
    80605086:	400a                	0x400a
    80605088:	2a1c                	fld	fa5,16(a2)
    8060508a:	89f1                	andi	a1,a1,28
    8060508c:	6f68                	ld	a0,216(a4)
    8060508e:	c559                	beqz	a0,8060511c <data3+0x11c>
    80605090:	c97267f3          	csrrsi	a5,hpmcounter23h,4
    80605094:	a3cec2db          	0xa3cec2db
    80605098:	7499                	lui	s1,0xfffe6
    8060509a:	216a                	fld	ft2,152(sp)
    8060509c:	9cb5                	addw	s1,s1,a3
    8060509e:	abd0                	fsd	fa2,144(a5)
    806050a0:	afbed067          	0xafbed067
    806050a4:	59d5                	li	s3,-11
    806050a6:	43fe                	lw	t2,220(sp)
    806050a8:	3fe1                	addiw	t6,t6,-8
    806050aa:	3ef6                	fld	ft9,376(sp)
    806050ac:	1560                	addi	s0,sp,684
    806050ae:	3ffe9273          	csrrw	tp,0x3ff,t4
    806050b2:	ba9a                	fsd	ft6,368(sp)
    806050b4:	8cea4873          	0x8cea4873
    806050b8:	d101                	beqz	a0,80604fb8 <data2+0xfb8>
    806050ba:	4e64                	lw	s1,92(a2)
    806050bc:	fd6afa93          	andi	s5,s5,-42
    806050c0:	75ec                	ld	a1,232(a1)
    806050c2:	2de46ffb          	0x2de46ffb
    806050c6:	c228                	sw	a0,64(a2)
    806050c8:	0e98                	addi	a4,sp,848
    806050ca:	8ce9                	and	s1,s1,a0
    806050cc:	cfce                	sw	s3,220(sp)
    806050ce:	df47a09b          	0xdf47a09b
    806050d2:	06c4                	addi	s1,sp,836
    806050d4:	49f8                	lw	a4,84(a1)
    806050d6:	406d                	c.li	zero,27
    806050d8:	eeb0                	sd	a2,88(a3)
    806050da:	ab8c                	fsd	fa1,16(a5)
    806050dc:	ca5a                	sw	s6,20(sp)
    806050de:	dc21                	beqz	s0,80605036 <data3+0x36>
    806050e0:	af0a                	fsd	ft2,408(sp)
    806050e2:	4004                	lw	s1,0(s0)
    806050e4:	0b76b20f          	0xb76b20f
    806050e8:	1c72                	slli	s8,s8,0x3c
    806050ea:	df2a                	sw	a0,188(sp)
    806050ec:	b89c                	fsd	fa5,48(s1)
    806050ee:	c918618b          	0xc918618b
    806050f2:	81c6                	mv	gp,a7
    806050f4:	41d5                	li	gp,21
    806050f6:	d63d6883          	lwu	a7,-669(s10)
    806050fa:	d91c                	sw	a5,48(a0)
    806050fc:	1302                	slli	t1,t1,0x20
    806050fe:	243a                	fld	fs0,392(sp)
    80605100:	1cda                	slli	s9,s9,0x36
    80605102:	42ecf99b          	0x42ecf99b
    80605106:	d239                	beqz	a2,8060504c <data3+0x4c>
    80605108:	2c18b877          	0x2c18b877
    8060510c:	b4e0                	fsd	fs0,232(s1)
    8060510e:	a728                	fsd	fa0,72(a4)
    80605110:	850e                	mv	a0,gp
    80605112:	b851                	j	806049a6 <data2+0x9a6>
    80605114:	d961                	beqz	a0,806050e4 <data3+0xe4>
    80605116:	98d6                	add	a7,a7,s5
    80605118:	d445                	beqz	s0,806050c0 <data3+0xc0>
    8060511a:	8dd66de3          	bltu	a2,t4,806049f4 <data2+0x9f4>
    8060511e:	4be4                	lw	s1,84(a5)
    80605120:	8ad9                	andi	a3,a3,22
    80605122:	a525                	j	8060574a <data3+0x74a>
    80605124:	fa69                	bnez	a2,806050f6 <data3+0xf6>
    80605126:	e481                	bnez	s1,8060512e <data3+0x12e>
    80605128:	7165                	addi	sp,sp,-400
    8060512a:	35fd3343          	0x35fd3343
    8060512e:	10e6                	slli	ra,ra,0x39
    80605130:	176e                	slli	a4,a4,0x3b
    80605132:	1dfa                	slli	s11,s11,0x3e
    80605134:	1ca9                	addi	s9,s9,-22
    80605136:	6b82                	ld	s7,0(sp)
    80605138:	ba97adab          	0xba97adab
    8060513c:	bc4aa697          	auipc	a3,0xbc4aa
    80605140:	3359                	addiw	t1,t1,-10
    80605142:	c65d                	beqz	a2,806051f0 <data3+0x1f0>
    80605144:	7899                	lui	a7,0xfffe6
    80605146:	13e2                	slli	t2,t2,0x38
    80605148:	a876                	fsd	ft9,16(sp)
    8060514a:	bbe9                	j	80604f24 <data2+0xf24>
    8060514c:	fc70                	sd	a2,248(s0)
    8060514e:	aed4a8b3          	0xaed4a8b3
    80605152:	dfba                	sw	a4,252(sp)
    80605154:	7ffc                	ld	a5,248(a5)
    80605156:	5db8                	lw	a4,120(a1)
    80605158:	9152                	add	sp,sp,s4
    8060515a:	d9529887          	0xd9529887
    8060515e:	9992                	add	s3,s3,tp
    80605160:	57039c2b          	0x57039c2b
    80605164:	67def6b7          	lui	a3,0x67def
    80605168:	c518                	sw	a4,8(a0)
    8060516a:	6971                	lui	s2,0x1c
    8060516c:	6d7f                	0x6d7f
    8060516e:	10e9                	addi	ra,ra,-6
    80605170:	2bbe                	fld	fs7,456(sp)
    80605172:	375e                	fld	fa4,496(sp)
    80605174:	3b0d13db          	0x3b0d13db
    80605178:	6538                	ld	a4,72(a0)
    8060517a:	7aff                	0x7aff
    8060517c:	a45a9a03          	lh	s4,-1467(s5) # fffffffffffeaa45 <secret+0xffffffff7f3eaa45>
    80605180:	2e68                	fld	fa0,216(a2)
    80605182:	6b4a                	ld	s6,144(sp)
    80605184:	bd14                	fsd	fa3,56(a0)
    80605186:	86f99607          	0x86f99607
    8060518a:	4620                	lw	s0,72(a2)
    8060518c:	08c0                	addi	s0,sp,84
    8060518e:	103a                	c.slli	zero,0x2e
    80605190:	ddb94307          	flq	ft6,-549(s2) # 1bddb <_start-0x7ffe4225>
    80605194:	5f64                	lw	s1,124(a4)
    80605196:	016d                	addi	sp,sp,27
    80605198:	be56                	fsd	fs5,312(sp)
    8060519a:	7117d66f          	jal	a2,806830aa <data7+0x7a0aa>
    8060519e:	3b9cd93f f537e320 	0xf537e3203b9cd93f
    806051a6:	ced4                	sw	a3,28(a3)
    806051a8:	a51d3137          	lui	sp,0xa51d3
    806051ac:	a2a9                	j	806052f6 <data3+0x2f6>
    806051ae:	7456                	ld	s0,368(sp)
    806051b0:	4ae0                	lw	s0,84(a3)
    806051b2:	74b6                	ld	s1,360(sp)
    806051b4:	d49d                	beqz	s1,806050e2 <data3+0xe2>
    806051b6:	2d08                	fld	fa0,24(a0)
    806051b8:	fbc3b9b3          	0xfbc3b9b3
    806051bc:	5544                	lw	s1,44(a0)
    806051be:	f68c                	sd	a1,40(a3)
    806051c0:	9ee2                	add	t4,t4,s8
    806051c2:	419d                	li	gp,7
    806051c4:	1a6d                	addi	s4,s4,-5
    806051c6:	89c6                	mv	s3,a7
    806051c8:	d68beca7          	0xd68beca7
    806051cc:	1d96                	slli	s11,s11,0x25
    806051ce:	2ad1                	addiw	s5,s5,20
    806051d0:	38039217          	auipc	tp,0x38039
    806051d4:	f309                	bnez	a4,806050d6 <data3+0xd6>
    806051d6:	6bc4                	ld	s1,144(a5)
    806051d8:	7e84                	ld	s1,56(a3)
    806051da:	73ec                	ld	a1,224(a5)
    806051dc:	14cd                	addi	s1,s1,-13
    806051de:	d822                	sw	s0,48(sp)
    806051e0:	2ee8                	fld	fa0,216(a3)
    806051e2:	c0ff                	0xc0ff
    806051e4:	f9f6                	sd	t4,240(sp)
    806051e6:	6120                	ld	s0,64(a0)
    806051e8:	586a2d4b          	fnmsub.s	fs10,fs4,ft6,fa1,rdn
    806051ec:	ba35                	j	80604b28 <data2+0xb28>
    806051ee:	b1b2                	fsd	fa2,224(sp)
    806051f0:	1169                	addi	sp,sp,-6
    806051f2:	e325                	bnez	a4,80605252 <data3+0x252>
    806051f4:	6484                	ld	s1,8(s1)
    806051f6:	b7f9                	j	806051c4 <data3+0x1c4>
    806051f8:	56f5                	li	a3,-3
    806051fa:	45da                	lw	a1,148(sp)
    806051fc:	e505                	bnez	a0,80605224 <data3+0x224>
    806051fe:	3461                	addiw	s0,s0,-8
    80605200:	828c                	0x828c
    80605202:	a732                	fsd	fa2,392(sp)
    80605204:	5e694cbf 31a93d2b 	0x31a93d2b5e694cbf
    8060520c:	29cc                	fld	fa1,144(a1)
    8060520e:	a861                	j	806052a6 <data3+0x2a6>
    80605210:	b698                	fsd	fa4,40(a3)
    80605212:	203a5f8f          	0x203a5f8f
    80605216:	471afa47          	fmsub.q	fs4,fs5,fa7,fs0
    8060521a:	dd763517          	auipc	a0,0xdd763
    8060521e:	fcb9                	bnez	s1,8060517c <data3+0x17c>
    80605220:	4aa1                	li	s5,8
    80605222:	3820                	fld	fs0,112(s0)
    80605224:	f8c6                	sd	a7,112(sp)
    80605226:	37a8                	fld	fa0,104(a5)
    80605228:	f9a4                	sd	s1,112(a1)
    8060522a:	f516                	sd	t0,168(sp)
    8060522c:	7f72                	ld	t5,312(sp)
    8060522e:	c40e                	sw	gp,8(sp)
    80605230:	9bda                	add	s7,s7,s6
    80605232:	0a1e                	slli	s4,s4,0x7
    80605234:	0194                	addi	a3,sp,192
    80605236:	89b8                	0x89b8
    80605238:	fca2                	sd	s0,120(sp)
    8060523a:	83c08423          	sb	t3,-2008(ra) # fffffffffffe1828 <secret+0xffffffff7f3e1828>
    8060523e:	f5ae                	sd	a1,232(sp)
    80605240:	30ac170b          	0x30ac170b
    80605244:	7c98                	ld	a4,56(s1)
    80605246:	9426                	add	s0,s0,s1
    80605248:	e791                	bnez	a5,80605254 <data3+0x254>
    8060524a:	2b31                	addiw	s6,s6,12
    8060524c:	e872                	sd	t3,16(sp)
    8060524e:	af94                	fsd	fa3,24(a5)
    80605250:	0c55                	addi	s8,s8,21
    80605252:	1dff                	0x1dff
    80605254:	9d92                	add	s11,s11,tp
    80605256:	62ae                	ld	t0,200(sp)
    80605258:	4bf1                	li	s7,28
    8060525a:	53d5                	li	t2,-11
    8060525c:	4b71                	li	s6,28
    8060525e:	c620                	sw	s0,72(a2)
    80605260:	6172                	ld	sp,280(sp)
    80605262:	0544                	addi	s1,sp,644
    80605264:	a9ff9c33          	0xa9ff9c33
    80605268:	a0a4                	fsd	fs1,64(s1)
    8060526a:	856d                	srai	a0,a0,0x1b
    8060526c:	f090                	sd	a2,32(s1)
    8060526e:	0eb9                	addi	t4,t4,14
    80605270:	1b624ce7          	0x1b624ce7
    80605274:	4e92                	lw	t4,4(sp)
    80605276:	ae78                	fsd	fa4,216(a2)
    80605278:	6095                	lui	ra,0x5
    8060527a:	65df 5dd0 2f13      	0x2f135dd065df
    80605280:	f4c4                	sd	s1,168(s1)
    80605282:	fcc4                	sd	s1,184(s1)
    80605284:	bc67509b          	0xbc67509b
    80605288:	79ed                	lui	s3,0xffffb
    8060528a:	580b14af          	0x580b14af
    8060528e:	900c                	0x900c
    80605290:	1f22                	slli	t5,t5,0x28
    80605292:	0b80                	addi	s0,sp,464
    80605294:	3359                	addiw	t1,t1,-10
    80605296:	1dad                	addi	s11,s11,-21
    80605298:	1f8a                	slli	t6,t6,0x22
    8060529a:	13dc                	addi	a5,sp,484
    8060529c:	a47e                	fsd	ft11,8(sp)
    8060529e:	b646                	fsd	fa7,296(sp)
    806052a0:	77408ca7          	0x77408ca7
    806052a4:	3b9c                	fld	fa5,48(a5)
    806052a6:	f98e                	sd	gp,240(sp)
    806052a8:	ddd8                	sw	a4,60(a1)
    806052aa:	3567d5ab          	0x3567d5ab
    806052ae:	0701                	addi	a4,a4,0
    806052b0:	c34baf8b          	0xc34baf8b
    806052b4:	e950                	sd	a2,144(a0)
    806052b6:	4360                	lw	s0,68(a4)
    806052b8:	5194                	lw	a3,32(a1)
    806052ba:	e760                	sd	s0,200(a4)
    806052bc:	9985                	andi	a1,a1,-31
    806052be:	6e55                	lui	t3,0x15
    806052c0:	993a                	add	s2,s2,a4
    806052c2:	91382feb          	0x91382feb
    806052c6:	e69c52ab          	0xe69c52ab
    806052ca:	cab0                	sw	a2,80(a3)
    806052cc:	b628                	fsd	fa0,104(a2)
    806052ce:	e32d                	bnez	a4,80605330 <data3+0x330>
    806052d0:	6d7db74f          	0x6d7db74f
    806052d4:	e524b307          	fld	ft6,-430(s1) # fffffffffffe5e52 <secret+0xffffffff7f3e5e52>
    806052d8:	0686                	slli	a3,a3,0x1
    806052da:	5635                	li	a2,-19
    806052dc:	a15f 9e5c 68df      	0x68df9e5ca15f
    806052e2:	1125                	addi	sp,sp,-23
    806052e4:	8197a693          	slti	a3,a5,-2023
    806052e8:	02fa                	slli	t0,t0,0x1e
    806052ea:	0668888f          	0x668888f
    806052ee:	28ba                	fld	fa7,392(sp)
    806052f0:	5a12                	lw	s4,36(sp)
    806052f2:	2100c85b          	0x2100c85b
    806052f6:	3918                	fld	fa4,48(a0)
    806052f8:	439f 8bc5 d4ee      	0xd4ee8bc5439f
    806052fe:	6e90                	ld	a2,24(a3)
    80605300:	598b9753          	0x598b9753
    80605304:	33e267b3          	0x33e267b3
    80605308:	cd65                	beqz	a0,80605400 <data3+0x400>
    8060530a:	7ae5                	lui	s5,0xffff9
    8060530c:	316a                	fld	ft2,184(sp)
    8060530e:	c4ab79eb          	0xc4ab79eb
    80605312:	62e4                	ld	s1,192(a3)
    80605314:	3bff                	0x3bff
    80605316:	67b5                	lui	a5,0xd
    80605318:	ef9f baa0 4417      	0x4417baa0ef9f
    8060531e:	5952                	lw	s2,52(sp)
    80605320:	19c0                	addi	s0,sp,244
    80605322:	84541bab          	0x84541bab
    80605326:	2ebc                	fld	fa5,88(a3)
    80605328:	178d                	addi	a5,a5,-29
    8060532a:	837f                	0x837f
    8060532c:	c3923347          	fmsub.d	ft6,ft4,fs9,fs8,rup
    80605330:	bf1d                	j	80605266 <data3+0x266>
    80605332:	23e6                	fld	ft7,88(sp)
    80605334:	421f db55 b6a3      	0xb6a3db55421f
    8060533a:	fbe8                	sd	a0,240(a5)
    8060533c:	3f20b443          	fmadd.q	fs0,ft1,fs2,ft7,rup
    80605340:	502bf5af          	0x502bf5af
    80605344:	442e0f67          	jalr	t5,1090(t3) # 15442 <_start-0x7ffeabbe>
    80605348:	b695                	j	80604eac <data2+0xeac>
    8060534a:	6d90                	ld	a2,24(a1)
    8060534c:	00fa                	slli	ra,ra,0x1e
    8060534e:	d7a6                	sw	s1,236(sp)
    80605350:	ad8c                	fsd	fa1,24(a1)
    80605352:	2f1eb287          	fld	ft5,753(t4) # ffffffffffff42f1 <secret+0xffffffff7f3f42f1>
    80605356:	4a00                	lw	s0,16(a2)
    80605358:	0c43f363          	bgeu	t2,tp,8060541e <data3+0x41e>
    8060535c:	d680                	sw	s0,40(a3)
    8060535e:	a91eb2c7          	fmsub.s	ft5,ft9,fa7,fs5,rup
    80605362:	e39e                	sd	t2,448(sp)
    80605364:	2f80                	fld	fs0,24(a5)
    80605366:	d311                	beqz	a4,8060526a <data3+0x26a>
    80605368:	6480                	ld	s0,8(s1)
    8060536a:	9e84dec7          	fmsub.q	ft9,fs1,fs0,fs3,unknown
    8060536e:	10ba                	slli	ra,ra,0x2e
    80605370:	7e45                	lui	t3,0xffff1
    80605372:	ebf70e97          	auipc	t4,0xebf70
    80605376:	09e9                	addi	s3,s3,26
    80605378:	7c99                	lui	s9,0xfffe6
    8060537a:	3c958c5b          	0x3c958c5b
    8060537e:	77c1                	lui	a5,0xffff0
    80605380:	35df 5758 5a0f      	0x5a0f575835df
    80605386:	3f90                	fld	fa2,56(a5)
    80605388:	73c6                	ld	t2,112(sp)
    8060538a:	1794                	addi	a3,sp,992
    8060538c:	53b2                	lw	t2,44(sp)
    8060538e:	434f6697          	auipc	a3,0x434f6
    80605392:	3430                	fld	fa2,104(s0)
    80605394:	1c123b43          	0x1c123b43
    80605398:	6cb6                	ld	s9,328(sp)
    8060539a:	4d78                	lw	a4,92(a0)
    8060539c:	8e45                	or	a2,a2,s1
    8060539e:	fe40                	sd	s0,184(a2)
    806053a0:	279c                	fld	fa5,8(a5)
    806053a2:	ac8c0207          	0xac8c0207
    806053a6:	4872                	lw	a6,28(sp)
    806053a8:	747c                	ld	a5,232(s0)
    806053aa:	7cd2                	ld	s9,304(sp)
    806053ac:	0618                	addi	a4,sp,768
    806053ae:	c462                	sw	s8,8(sp)
    806053b0:	3704                	fld	fs1,40(a4)
    806053b2:	0dc8                	addi	a0,sp,724
    806053b4:	549c                	lw	a5,40(s1)
    806053b6:	47c93207          	fld	ft4,1148(s2)
    806053ba:	891d                	andi	a0,a0,7
    806053bc:	40f0                	lw	a2,68(s1)
    806053be:	9fb8                	0x9fb8
    806053c0:	d492                	sw	tp,104(sp)
    806053c2:	89cd                	andi	a1,a1,19
    806053c4:	f25b8a2b          	0xf25b8a2b
    806053c8:	f6b0                	sd	a2,104(a3)
    806053ca:	b888                	fsd	fa0,48(s1)
    806053cc:	76ec                	ld	a1,232(a3)
    806053ce:	0bdf e293 d223      	0xd223e2930bdf
    806053d4:	3b50                	fld	fa2,176(a4)
    806053d6:	eece                	sd	s3,344(sp)
    806053d8:	4834                	lw	a3,80(s0)
    806053da:	449d                	li	s1,7
    806053dc:	b97e                	fsd	ft11,176(sp)
    806053de:	df6c25eb          	0xdf6c25eb
    806053e2:	ff9d                	bnez	a5,80605320 <data3+0x320>
    806053e4:	9300                	0x9300
    806053e6:	fa34                	sd	a3,112(a2)
    806053e8:	c028                	sw	a0,64(s0)
    806053ea:	8ec9                	or	a3,a3,a0
    806053ec:	a63fc8ab          	0xa63fc8ab
    806053f0:	55b84843          	0x55b84843
    806053f4:	8996                	mv	s3,t0
    806053f6:	5f37907b          	0x5f37907b
    806053fa:	1f61                	addi	t5,t5,-8
    806053fc:	b856                	fsd	fs5,48(sp)
    806053fe:	d271                	beqz	a2,806053c2 <data3+0x3c2>
	...

0000000080606000 <data4>:
    80606000:	c065                	beqz	s0,806060e0 <data4+0xe0>
    80606002:	e1f8                	sd	a4,192(a1)
    80606004:	e3c5                	bnez	a5,806060a4 <data4+0xa4>
    80606006:	750d                	lui	a0,0xfffe3
    80606008:	22532183          	lw	gp,549(t1) # 3225 <_start-0x7fffcddb>
    8060600c:	54ae                	lw	s1,232(sp)
    8060600e:	0534                	addi	a3,sp,648
    80606010:	629d                	lui	t0,0x7
    80606012:	c564                	sw	s1,76(a0)
    80606014:	ed90                	sd	a2,24(a1)
    80606016:	799e                	ld	s3,480(sp)
    80606018:	e26d                	bnez	a2,806060fa <data4+0xfa>
    8060601a:	8e1f dc75 1771      	0x1771dc758e1f
    80606020:	dea89853          	0xdea89853
    80606024:	8506                	mv	a0,ra
    80606026:	754a                	ld	a0,176(sp)
    80606028:	bd4a                	fsd	fs2,184(sp)
    8060602a:	c1a2                	sw	s0,192(sp)
    8060602c:	a3d4c437          	lui	s0,0xa3d4c
    80606030:	3742                	fld	fa4,48(sp)
    80606032:	712a9d63          	bne	s5,s2,8060674c <data4+0x74c>
    80606036:	d1c2                	sw	a6,224(sp)
    80606038:	892c                	0x892c
    8060603a:	e42c                	sd	a1,72(s0)
    8060603c:	230d                	addiw	t1,t1,3
    8060603e:	2446                	fld	fs0,80(sp)
    80606040:	2d09                	addiw	s10,s10,2
    80606042:	94e4                	0x94e4
    80606044:	e2d944c7          	fmsub.d	fs1,fs2,fa3,ft8,rmm
    80606048:	9786                	add	a5,a5,ra
    8060604a:	2506a38f          	0x2506a38f
    8060604e:	3222                	fld	ft4,40(sp)
    80606050:	dd36                	sw	a3,184(sp)
    80606052:	150e                	slli	a0,a0,0x23
    80606054:	ac7c                	fsd	fa5,216(s0)
    80606056:	0a119a07          	0xa119a07
    8060605a:	07401e4b          	fnmsub.q	ft8,ft0,fs4,ft0,rtz
    8060605e:	4d2c                	lw	a1,88(a0)
    80606060:	4d98                	lw	a4,24(a1)
    80606062:	3984                	fld	fs1,48(a1)
    80606064:	103e                	c.slli	zero,0x2f
    80606066:	b0a2                	fsd	fs0,96(sp)
    80606068:	2904                	fld	fs1,16(a0)
    8060606a:	b675                	j	80605c16 <data3+0xc16>
    8060606c:	01e5                	addi	gp,gp,25
    8060606e:	aff8                	fsd	fa4,216(a5)
    80606070:	2d92                	fld	fs11,256(sp)
    80606072:	5a1d                	li	s4,-25
    80606074:	7a37a0f3          	csrrs	ra,tdata3,a5
    80606078:	d88e                	sw	gp,112(sp)
    8060607a:	fa82                	sd	zero,368(sp)
    8060607c:	b9df eef1 780f      	0x780feef1b9df
    80606082:	9811                	andi	s0,s0,-28
    80606084:	22a4                	fld	fs1,64(a3)
    80606086:	02e5                	addi	t0,t0,25
    80606088:	a8f4                	fsd	fa3,208(s1)
    8060608a:	fd1f 5dab a7a3      	0xa7a35dabfd1f
    80606090:	691a                	ld	s2,384(sp)
    80606092:	5674                	lw	a3,108(a2)
    80606094:	6700                	ld	s0,8(a4)
    80606096:	f080                	sd	s0,32(s1)
    80606098:	102c                	addi	a1,sp,40
    8060609a:	604d                	c.lui	zero,0x13
    8060609c:	95e1                	srai	a1,a1,0x38
    8060609e:	bd64                	fsd	fs1,248(a0)
    806060a0:	2475                	addiw	s0,s0,29
    806060a2:	7b05                	lui	s6,0xfffe1
    806060a4:	8af1                	andi	a3,a3,28
    806060a6:	74ae                	ld	s1,232(sp)
    806060a8:	454d                	li	a0,19
    806060aa:	40aa077b          	0x40aa077b
    806060ae:	dbfe                	sw	t6,244(sp)
    806060b0:	aca99e1b          	0xaca99e1b
    806060b4:	916d                	srli	a0,a0,0x3b
    806060b6:	e0ad                	bnez	s1,80606118 <data4+0x118>
    806060b8:	fa4c                	sd	a1,176(a2)
    806060ba:	f8b2                	sd	a2,112(sp)
    806060bc:	e0c6                	sd	a7,64(sp)
    806060be:	ed81                	bnez	a1,806060d6 <data4+0xd6>
    806060c0:	388900c7          	fmsub.s	ft1,fs2,fs0,ft7,rne
    806060c4:	6fd8                	ld	a4,152(a5)
    806060c6:	6fde10e3          	bne	t3,t4,80606fa6 <data4+0xfa6>
    806060ca:	7aa8                	ld	a0,112(a3)
    806060cc:	32e9                	addiw	t0,t0,-6
    806060ce:	eeae                	sd	a1,344(sp)
    806060d0:	9b94                	0x9b94
    806060d2:	eba8                	sd	a0,80(a5)
    806060d4:	af34                	fsd	fa3,88(a4)
    806060d6:	a9b4                	fsd	fa3,80(a1)
    806060d8:	8cd0                	0x8cd0
    806060da:	d00e                	sw	gp,32(sp)
    806060dc:	a620                	fsd	fs0,72(a2)
    806060de:	e9a8                	sd	a0,80(a1)
    806060e0:	28d781fb          	0x28d781fb
    806060e4:	8db2                	mv	s11,a2
    806060e6:	d35d                	beqz	a4,8060608c <data4+0x8c>
    806060e8:	26a6                	fld	fa3,72(sp)
    806060ea:	fcda                	sd	s6,120(sp)
    806060ec:	7fed91f3          	csrrw	gp,0x7fe,s11
    806060f0:	f430                	sd	a2,104(s0)
    806060f2:	5ad1                	li	s5,-12
    806060f4:	9ef9                	0x9ef9
    806060f6:	419bebbb          	0x419bebbb
    806060fa:	1714                	addi	a3,sp,928
    806060fc:	ee51                	bnez	a2,80606198 <data4+0x198>
    806060fe:	a6d4                	fsd	fa3,136(a3)
    80606100:	603d                	c.lui	zero,0xf
    80606102:	40d6                	lw	ra,84(sp)
    80606104:	60aa                	ld	ra,136(sp)
    80606106:	322a                	fld	ft4,168(sp)
    80606108:	48c8                	lw	a0,20(s1)
    8060610a:	f0e5eacb          	fnmsub.s	fs5,fa1,fa4,ft10,unknown
    8060610e:	9d49                	0x9d49
    80606110:	fc99                	bnez	s1,8060602e <data4+0x2e>
    80606112:	c211                	beqz	a2,80606116 <data4+0x116>
    80606114:	38ee                	fld	fa7,248(sp)
    80606116:	e467ae47          	0xe467ae47
    8060611a:	4a551bf7          	0x4a551bf7
    8060611e:	d60fadeb          	0xd60fadeb
    80606122:	c5ed                	beqz	a1,8060620c <data4+0x20c>
    80606124:	bad8                	fsd	fa4,176(a3)
    80606126:	afb19c43          	fmadd.q	fs8,ft3,fs11,fs5,rtz
    8060612a:	336c                	fld	fa1,224(a4)
    8060612c:	add4                	fsd	fa3,152(a1)
    8060612e:	ddf0                	sw	a2,124(a1)
    80606130:	d09d                	beqz	s1,80606056 <data4+0x56>
    80606132:	9e969903          	lh	s2,-1559(a3) # c3afad77 <secret+0x42efad77>
    80606136:	930e                	add	t1,t1,gp
    80606138:	cf1da603          	lw	a2,-783(s11)
    8060613c:	ac8c                	fsd	fa1,24(s1)
    8060613e:	4f95                	li	t6,5
    80606140:	f818                	sd	a4,48(s0)
    80606142:	f1e2                	sd	s8,224(sp)
    80606144:	1d1d                	addi	s10,s10,-25
    80606146:	932a                	add	t1,t1,a0
    80606148:	30e4                	fld	fs1,224(s1)
    8060614a:	d47e                	sw	t6,40(sp)
    8060614c:	07f9ce93          	xori	t4,s3,127
    80606150:	4aa0                	lw	s0,80(a3)
    80606152:	7d84                	ld	s1,56(a1)
    80606154:	51d5                	li	gp,-11
    80606156:	8f01b21b          	0x8f01b21b
    8060615a:	091a                	slli	s2,s2,0x6
    8060615c:	f1ad                	bnez	a1,806060be <data4+0xbe>
    8060615e:	8bbc                	0x8bbc
    80606160:	e9f0                	sd	a2,208(a1)
    80606162:	7e3c                	ld	a5,120(a2)
    80606164:	6a08                	ld	a0,16(a2)
    80606166:	1aae7d37          	lui	s10,0x1aae7
    8060616a:	aef8                	fsd	fa4,216(a3)
    8060616c:	100d                	c.nop	-29
    8060616e:	914d38f7          	0x914d38f7
    80606172:	2fdb28af          	0x2fdb28af
    80606176:	70d5                	lui	ra,0xffff5
    80606178:	7fec                	ld	a1,248(a5)
    8060617a:	a2ff                	0xa2ff
    8060617c:	7041                	c.lui	zero,0xffff0
    8060617e:	2954                	fld	fa3,144(a0)
    80606180:	099a                	slli	s3,s3,0x6
    80606182:	4ca96def          	jal	s11,8069c64c <data7+0x9364c>
    80606186:	2e010e23          	sb	zero,764(sp) # ffffffffa51d32fc <secret+0xffffffff245d32fc>
    8060618a:	3b25                	addiw	s6,s6,-23
    8060618c:	3651                	addiw	a2,a2,-12
    8060618e:	0260                	addi	s0,sp,268
    80606190:	65a314d3          	0x65a314d3
    80606194:	41260427          	0x41260427
    80606198:	efe8                	sd	a0,216(a5)
    8060619a:	ba32                	fsd	fa2,304(sp)
    8060619c:	0bae                	slli	s7,s7,0xb
    8060619e:	2b758a4b          	fnmsub.d	fs4,fa1,fs7,ft5,rne
    806061a2:	18a2                	slli	a7,a7,0x28
    806061a4:	753309c7          	0x753309c7
    806061a8:	da0a                	sw	sp,52(sp)
    806061aa:	81bc                	0x81bc
    806061ac:	059d                	addi	a1,a1,7
    806061ae:	ef79ff2f          	0xef79ff2f
    806061b2:	f514                	sd	a3,40(a0)
    806061b4:	705176af          	0x705176af
    806061b8:	f222                	sd	s0,288(sp)
    806061ba:	efa2                	sd	s0,472(sp)
    806061bc:	14d2                	slli	s1,s1,0x34
    806061be:	212994cb          	fnmsub.s	fs1,fs3,fs2,ft4,rtz
    806061c2:	4ee6                	lw	t4,88(sp)
    806061c4:	e49a                	sd	t1,72(sp)
    806061c6:	2b9f f663 60b5      	0x60b5f6632b9f
    806061cc:	a7221187          	0xa7221187
    806061d0:	54f1aacb          	0x54f1aacb
    806061d4:	ccba                	sw	a4,88(sp)
    806061d6:	130e                	slli	t1,t1,0x23
    806061d8:	64f1                	lui	s1,0x1c
    806061da:	de74                	sw	a3,124(a2)
    806061dc:	a2a6                	fsd	fs1,320(sp)
    806061de:	31a4                	fld	fs1,96(a1)
    806061e0:	40ca                	lw	ra,144(sp)
    806061e2:	5a0e                	lw	s4,224(sp)
    806061e4:	b75d                	j	8060618a <data4+0x18a>
    806061e6:	45ba                	lw	a1,140(sp)
    806061e8:	67dd                	lui	a5,0x17
    806061ea:	8e49                	or	a2,a2,a0
    806061ec:	bbaa                	fsd	fa0,496(sp)
    806061ee:	248af6f7          	0x248af6f7
    806061f2:	17c8                	addi	a0,sp,996
    806061f4:	531e                	lw	t1,228(sp)
    806061f6:	b616                	fsd	ft5,296(sp)
    806061f8:	a3f1                	j	806067c4 <data4+0x7c4>
    806061fa:	9b02                	jalr	s6
    806061fc:	274a                	fld	fa4,144(sp)
    806061fe:	c84e                	sw	s3,16(sp)
    80606200:	dce2ef67          	0xdce2ef67
    80606204:	ea30                	sd	a2,80(a2)
    80606206:	cc00                	sw	s0,24(s0)
    80606208:	61e2                	ld	gp,24(sp)
    8060620a:	de3a                	sw	a4,60(sp)
    8060620c:	d378                	sw	a4,100(a4)
    8060620e:	811e                	mv	sp,t2
    80606210:	a1ccb2af          	amomax.d	t0,t3,(s9)
    80606214:	3c19df83          	lhu	t6,961(s3) # ffffffffffffb3c1 <secret+0xffffffff7f3fb3c1>
    80606218:	6b8ad997          	auipc	s3,0x6b8ad
    8060621c:	c950                	sw	a2,20(a0)
    8060621e:	9ad4                	0x9ad4
    80606220:	fc88                	sd	a0,56(s1)
    80606222:	8ade                	mv	s5,s7
    80606224:	521daff7          	0x521daff7
    80606228:	3b92                	fld	fs7,288(sp)
    8060622a:	305a                	fld	ft0,432(sp)
    8060622c:	6c393e77          	0x6c393e77
    80606230:	07b2                	slli	a5,a5,0xc
    80606232:	1dd8920b          	0x1dd8920b
    80606236:	a269ccb7          	lui	s9,0xa269c
    8060623a:	291f f0df 2370      	0x2370f0df291f
    80606240:	6cbb674f          	0x6cbb674f
    80606244:	2b78                	fld	fa4,208(a4)
    80606246:	74dc                	ld	a5,168(s1)
    80606248:	8951422b          	0x8951422b
    8060624c:	81b0                	0x81b0
    8060624e:	15c5                	addi	a1,a1,-15
    80606250:	058829ab          	0x58829ab
    80606254:	1d59                	addi	s10,s10,-10
    80606256:	4005934b          	fnmsub.s	ft6,fa1,ft0,fs0,rtz
    8060625a:	586a8aaf          	0x586a8aaf
    8060625e:	a2f4                	fsd	fa3,192(a3)
    80606260:	4805                	li	a6,1
    80606262:	b186                	fsd	ft1,224(sp)
    80606264:	e9aeab3f d4945ab7 	0xd4945ab7e9aeab3f
    8060626c:	25c9                	addiw	a1,a1,18
    8060626e:	b782                	fsd	ft0,488(sp)
    80606270:	2ba1                	addiw	s7,s7,8
    80606272:	b772                	fsd	ft8,424(sp)
    80606274:	8322                	mv	t1,s0
    80606276:	60a8                	ld	a0,64(s1)
    80606278:	662d                	lui	a2,0xb
    8060627a:	daa6                	sw	s1,116(sp)
    8060627c:	a4e5                	j	80606564 <data4+0x564>
    8060627e:	e6a0                	sd	s0,72(a3)
    80606280:	1196                	slli	gp,gp,0x25
    80606282:	f25c                	sd	a5,160(a2)
    80606284:	ec24                	sd	s1,88(s0)
    80606286:	733e                	ld	t1,488(sp)
    80606288:	e012                	sd	tp,0(sp)
    8060628a:	224435b7          	lui	a1,0x22443
    8060628e:	c94cd6cb          	fnmsub.s	fa3,fs9,fs4,fs9,unknown
    80606292:	363c                	fld	fa5,104(a2)
    80606294:	6aea                	ld	s5,152(sp)
    80606296:	5b03d373          	csrrwi	t1,0x5b0,7
    8060629a:	7722                	ld	a4,40(sp)
    8060629c:	8d76                	mv	s10,t4
    8060629e:	a316                	fsd	ft5,384(sp)
    806062a0:	4222                	lw	tp,8(sp)
    806062a2:	2e72                	fld	ft8,280(sp)
    806062a4:	836d                	srli	a4,a4,0x1b
    806062a6:	ed21                	bnez	a0,806062fe <data4+0x2fe>
    806062a8:	f945                	bnez	a0,80606258 <data4+0x258>
    806062aa:	f5c6                	sd	a7,232(sp)
    806062ac:	beaa                	fsd	fa0,376(sp)
    806062ae:	f3faba3b          	0xf3faba3b
    806062b2:	968d                	srai	a3,a3,0x23
    806062b4:	5eae                	lw	t4,232(sp)
    806062b6:	ae42                	fsd	fa6,280(sp)
    806062b8:	1644                	addi	s1,sp,804
    806062ba:	2824                	fld	fs1,80(s0)
    806062bc:	4d8d                	li	s11,3
    806062be:	f60d                	bnez	a2,806061e8 <data4+0x1e8>
    806062c0:	d7b2                	sw	a2,236(sp)
    806062c2:	2bf4                	fld	fa3,208(a5)
    806062c4:	5618                	lw	a4,40(a2)
    806062c6:	dfeeace7          	0xdfeeace7
    806062ca:	1444                	addi	s1,sp,548
    806062cc:	e999                	bnez	a1,806062e2 <data4+0x2e2>
    806062ce:	8189                	srli	a1,a1,0x2
    806062d0:	72c9                	lui	t0,0xffff2
    806062d2:	e9a2                	sd	s0,208(sp)
    806062d4:	8980                	0x8980
    806062d6:	6804                	ld	s1,16(s0)
    806062d8:	d6fa                	sw	t5,108(sp)
    806062da:	87f2                	mv	a5,t3
    806062dc:	a776                	fsd	ft9,392(sp)
    806062de:	af60                	fsd	fs0,216(a4)
    806062e0:	14c0                	addi	s0,sp,612
    806062e2:	4d0d                	li	s10,3
    806062e4:	73f80ab7          	lui	s5,0x73f80
    806062e8:	bd6e                	fsd	fs11,184(sp)
    806062ea:	927ff887          	0x927ff887
    806062ee:	7d31                	lui	s10,0xfffec
    806062f0:	9b676d93          	ori	s11,a4,-1610
    806062f4:	164ba7cb          	fnmsub.q	fa5,fs7,ft4,ft2,rdn
    806062f8:	e122                	sd	s0,128(sp)
    806062fa:	87b2                	mv	a5,a2
    806062fc:	6e84                	ld	s1,24(a3)
    806062fe:	ca66                	sw	s9,20(sp)
    80606300:	94bfb16f          	jal	sp,80601c4a <fn4.exit+0xb32>
    80606304:	48c94867          	0x48c94867
    80606308:	e676                	sd	t4,264(sp)
    8060630a:	333c                	fld	fa5,96(a4)
    8060630c:	7be2fb97          	auipc	s7,0x7be2f
    80606310:	a6fc                	fsd	fa5,200(a3)
    80606312:	6f61                	lui	t5,0x18
    80606314:	88be1fc7          	fmsub.s	ft11,ft8,fa1,fa7,rtz
    80606318:	83f6                	mv	t2,t4
    8060631a:	9f02                	jalr	t5
    8060631c:	5056                	0x5056
    8060631e:	fb68                	sd	a0,240(a4)
    80606320:	1c86                	slli	s9,s9,0x21
    80606322:	97b5                	srai	a5,a5,0x2d
    80606324:	cee1e7fb          	0xcee1e7fb
    80606328:	476d9a4f          	fnmadd.q	fs4,fs11,fs6,fs0,rtz
    8060632c:	fff99f03          	lh	t5,-1(s3) # ebeb3217 <secret+0x6b2b3217>
    80606330:	3111                	addiw	sp,sp,-28
    80606332:	2c40b1f3          	csrrc	gp,0x2c4,ra
    80606336:	6505                	lui	a0,0x1
    80606338:	1d3c                	addi	a5,sp,696
    8060633a:	ee75                	bnez	a2,80606436 <data4+0x436>
    8060633c:	559d                	li	a1,-25
    8060633e:	20bd                	addiw	ra,ra,15
    80606340:	8dc63b6b          	0x8dc63b6b
    80606344:	e3ed                	bnez	a5,80606426 <data4+0x426>
    80606346:	ce31                	beqz	a2,806063a2 <data4+0x3a2>
    80606348:	0b88                	addi	a0,sp,464
    8060634a:	a54d                	j	806069ec <data4+0x9ec>
    8060634c:	9c16                	add	s8,s8,t0
    8060634e:	5bd8                	lw	a4,52(a5)
    80606350:	4cba                	lw	s9,140(sp)
    80606352:	581496b7          	lui	a3,0x58149
    80606356:	c7bd                	beqz	a5,806063c4 <data4+0x3c4>
    80606358:	baa6                	fsd	fs1,368(sp)
    8060635a:	89e8                	0x89e8
    8060635c:	53aa                	lw	t2,168(sp)
    8060635e:	2089                	addiw	ra,ra,2
    80606360:	291e                	fld	fs2,448(sp)
    80606362:	22b4                	fld	fa3,64(a3)
    80606364:	6ff2                	ld	t6,280(sp)
    80606366:	8d9c                	0x8d9c
    80606368:	a79e2e13          	slti	t3,t3,-1415
    8060636c:	c589                	beqz	a1,80606376 <data4+0x376>
    8060636e:	7b1d                	lui	s6,0xfffe7
    80606370:	3fa190c7          	fmsub.q	ft1,ft3,fs10,ft7,rtz
    80606374:	e24c                	sd	a1,128(a2)
    80606376:	c21b6467          	0xc21b6467
    8060637a:	4c7a                	lw	s8,156(sp)
    8060637c:	0211                	addi	tp,tp,4
    8060637e:	92f6                	add	t0,t0,t4
    80606380:	8036                	c.mv	zero,a3
    80606382:	69637f5b          	0x69637f5b
    80606386:	2912                	fld	fs2,256(sp)
    80606388:	0e92                	slli	t4,t4,0x4
    8060638a:	0272                	slli	tp,tp,0x1c
    8060638c:	2d81                	sext.w	s11,s11
    8060638e:	d33d                	beqz	a4,806062f4 <data4+0x2f4>
    80606390:	6a9e                	ld	s5,448(sp)
    80606392:	acba                	fsd	fa4,88(sp)
    80606394:	3571                	addiw	a0,a0,-4
    80606396:	2191                	addiw	gp,gp,4
    80606398:	65bb5237          	lui	tp,0x65bb5
    8060639c:	de9f 8db8 276f      	0x276f8db8de9f
    806063a2:	1d452a0f          	0x1d452a0f
    806063a6:	f185                	bnez	a1,806062c6 <data4+0x2c6>
    806063a8:	20ed                	addiw	ra,ra,27
    806063aa:	4c80                	lw	s0,24(s1)
    806063ac:	8c85                	sub	s1,s1,s1
    806063ae:	4bee                	lw	s7,216(sp)
    806063b0:	32f9db0b          	0x32f9db0b
    806063b4:	c13c                	sw	a5,64(a0)
    806063b6:	910a4d9b          	0x910a4d9b
    806063ba:	4e44                	lw	s1,28(a2)
    806063bc:	543c                	lw	a5,104(s0)
    806063be:	64b8                	ld	a4,72(s1)
    806063c0:	085c                	addi	a5,sp,20
    806063c2:	a8b9                	j	80606420 <data4+0x420>
    806063c4:	833c                	0x833c
    806063c6:	bcb2                	fsd	fa2,120(sp)
    806063c8:	834c                	0x834c
    806063ca:	07da                	slli	a5,a5,0x16
    806063cc:	8d71                	and	a0,a0,a2
    806063ce:	34ec                	fld	fa1,232(s1)
    806063d0:	74bd                	lui	s1,0xfffef
    806063d2:	126fd62b          	0x126fd62b
    806063d6:	bdca                	fsd	fs2,248(sp)
    806063d8:	cc32                	sw	a2,24(sp)
    806063da:	ede5                	bnez	a1,806064d2 <data4+0x4d2>
    806063dc:	8bd8                	0x8bd8
    806063de:	f419                	bnez	s0,806062ec <data4+0x2ec>
    806063e0:	a481                	j	80606620 <data4+0x620>
    806063e2:	2d4a                	fld	fs10,144(sp)
    806063e4:	d630                	sw	a2,104(a2)
    806063e6:	0744                	addi	s1,sp,900
    806063e8:	61491cfb          	0x61491cfb
    806063ec:	8d8d                	sub	a1,a1,a1
    806063ee:	ece1                	bnez	s1,806064c6 <data4+0x4c6>
    806063f0:	ff18                	sd	a4,56(a4)
    806063f2:	ed62                	sd	s8,152(sp)
    806063f4:	7b3e                	ld	s6,488(sp)
    806063f6:	ead9                	bnez	a3,8060648c <data4+0x48c>
    806063f8:	ab3d                	j	80606936 <data4+0x936>
    806063fa:	3399                	addiw	t2,t2,-26
    806063fc:	a7b4                	fsd	fa3,72(a5)
    806063fe:	70ba                	ld	ra,424(sp)
	...

0000000080607000 <data5>:
    80607000:	2212                	fld	ft4,256(sp)
    80607002:	958d8baf          	0x958d8baf
    80607006:	21be                	fld	ft3,456(sp)
    80607008:	1bf4                	addi	a3,sp,508
    8060700a:	bc80                	fsd	fs0,56(s1)
    8060700c:	e780                	sd	s0,8(a5)
    8060700e:	17fa034f          	fnmadd.q	ft6,fs4,ft11,ft2,rne
    80607012:	a1b2                	fsd	fa2,192(sp)
    80607014:	b78742d7          	0xb78742d7
    80607018:	d5b4                	sw	a3,104(a1)
    8060701a:	7f8e                	ld	t6,224(sp)
    8060701c:	f0e0                	sd	s0,224(s1)
    8060701e:	aea1                	j	80607376 <data5+0x376>
    80607020:	45a4                	lw	s1,72(a1)
    80607022:	7041                	c.lui	zero,0xffff0
    80607024:	dc30                	sw	a2,120(s0)
    80607026:	ade9                	j	80607700 <data5+0x700>
    80607028:	47de                	lw	a5,212(sp)
    8060702a:	8325                	srli	a4,a4,0x9
    8060702c:	f744                	sd	s1,168(a4)
    8060702e:	6b5c                	ld	a5,144(a4)
    80607030:	2ffd                	addiw	t6,t6,31
    80607032:	48a5                	li	a7,9
    80607034:	8388                	0x8388
    80607036:	c901                	beqz	a0,80607046 <data5+0x46>
    80607038:	543c                	lw	a5,104(s0)
    8060703a:	27aa                	fld	fa5,136(sp)
    8060703c:	511a                	lw	sp,164(sp)
    8060703e:	2dfa                	fld	fs11,408(sp)
    80607040:	b14983c3          	fmadd.s	ft7,fs3,fs4,fs6,rne
    80607044:	2691                	addiw	a3,a3,4
    80607046:	f37df50b          	0xf37df50b
    8060704a:	3aae                	fld	fs5,232(sp)
    8060704c:	c470                	sw	a2,76(s0)
    8060704e:	7838                	ld	a4,112(s0)
    80607050:	1b3104ab          	0x1b3104ab
    80607054:	bd8a                	fsd	ft2,248(sp)
    80607056:	f945                	bnez	a0,80607006 <data5+0x6>
    80607058:	1736                	slli	a4,a4,0x2d
    8060705a:	dc91cdf7          	0xdc91cdf7
    8060705e:	c824                	sw	s1,80(s0)
    80607060:	a9b4                	fsd	fa3,80(a1)
    80607062:	e42d                	bnez	s0,806070cc <data5+0xcc>
    80607064:	7fe217f3          	csrrw	a5,0x7fe,tp
    80607068:	85b8                	0x85b8
    8060706a:	f41c                	sd	a5,40(s0)
    8060706c:	b909                	j	80606c7e <data4+0xc7e>
    8060706e:	ee61                	bnez	a2,80607146 <data5+0x146>
    80607070:	6a01f323          	0x6a01f323
    80607074:	cbc9                	beqz	a5,80607106 <data5+0x106>
    80607076:	bd76                	fsd	ft9,184(sp)
    80607078:	eada                	sd	s6,336(sp)
    8060707a:	1a31                	addi	s4,s4,-20
    8060707c:	7dfd                	lui	s11,0xfffff
    8060707e:	d14c                	sw	a1,36(a0)
    80607080:	08b9                	addi	a7,a7,14
    80607082:	fa99                	bnez	a3,80606f98 <data4+0xf98>
    80607084:	8338                	0x8338
    80607086:	f86f533b          	0xf86f533b
    8060708a:	2694                	fld	fa3,8(a3)
    8060708c:	c4026083          	lwu	ra,-960(tp) # 65bb4c40 <_start-0x1a44b3c0>
    80607090:	63d1                	lui	t2,0x14
    80607092:	99e4                	0x99e4
    80607094:	146a                	slli	s0,s0,0x3a
    80607096:	4be8c40f          	0x4be8c40f
    8060709a:	7141                	addi	sp,sp,-496
    8060709c:	9a25                	andi	a2,a2,-23
    8060709e:	b7a5                	j	80607006 <data5+0x6>
    806070a0:	19506ebf eb77287c 	0xeb77287c19506ebf
    806070a8:	ada1                	j	80607700 <data5+0x700>
    806070aa:	cb74752f          	0xcb74752f
    806070ae:	b6b2                	fsd	fa2,360(sp)
    806070b0:	b969                	j	80606d4a <data4+0xd4a>
    806070b2:	20fa                	fld	ft1,408(sp)
    806070b4:	64c8                	ld	a0,136(s1)
    806070b6:	907c                	0x907c
    806070b8:	4858                	lw	a4,20(s0)
    806070ba:	a64e                	fsd	fs3,264(sp)
    806070bc:	7890                	ld	a2,48(s1)
    806070be:	7176                	ld	sp,376(sp)
    806070c0:	7a52                	ld	s4,304(sp)
    806070c2:	3f900797          	auipc	a5,0x3f900
    806070c6:	420517d3          	0x420517d3
    806070ca:	daea                	sw	s10,116(sp)
    806070cc:	16a9043b          	0x16a9043b
    806070d0:	71e9                	lui	gp,0xffffa
    806070d2:	a7420e27          	0xa7420e27
    806070d6:	9b0d7913          	andi	s2,s10,-1616
    806070da:	8d0e                	mv	s10,gp
    806070dc:	ad9d                	j	80607752 <data5+0x752>
    806070de:	f782                	sd	zero,488(sp)
    806070e0:	b3b6                	fsd	fa3,480(sp)
    806070e2:	0749                	addi	a4,a4,18
    806070e4:	0c378a23          	sb	gp,212(a5) # bff07196 <secret+0x3f307196>
    806070e8:	d53d                	beqz	a0,80607056 <data5+0x56>
    806070ea:	9515                	srai	a0,a0,0x25
    806070ec:	bd71                	j	80606f88 <data4+0xf88>
    806070ee:	e68b7317          	auipc	t1,0xe68b7
    806070f2:	0f5d                	addi	t5,t5,23
    806070f4:	9c18c727          	fsq	ft1,-1586(a7) # fffffffffffe59ce <secret+0xffffffff7f3e59ce>
    806070f8:	77bc                	ld	a5,104(a5)
    806070fa:	6e3ab9f7          	0x6e3ab9f7
    806070fe:	d2c1                	beqz	a3,8060707e <data5+0x7e>
    80607100:	47e9                	li	a5,26
    80607102:	6a35                	lui	s4,0xd
    80607104:	1a02                	slli	s4,s4,0x20
    80607106:	4f21                	li	t5,8
    80607108:	c1f965af          	0xc1f965af
    8060710c:	ef7e                	sd	t6,408(sp)
    8060710e:	1b10                	addi	a2,sp,432
    80607110:	c135                	beqz	a0,80607174 <data5+0x174>
    80607112:	d1a2                	sw	s0,224(sp)
    80607114:	43cc                	lw	a1,4(a5)
    80607116:	dbb69413          	0xdbb69413
    8060711a:	23aa8e8f          	0x23aa8e8f
    8060711e:	c698                	sw	a4,8(a3)
    80607120:	dc676c73          	csrrsi	s8,0xdc6,14
    80607124:	a768                	fsd	fa0,200(a4)
    80607126:	5c65                	li	s8,-7
    80607128:	d5f6aa2f          	0xd5f6aa2f
    8060712c:	7e48                	ld	a0,184(a2)
    8060712e:	9df5                	0x9df5
    80607130:	b065                	j	806069d8 <data4+0x9d8>
    80607132:	2dd8                	fld	fa4,152(a1)
    80607134:	4dd2                	lw	s11,20(sp)
    80607136:	d8c0                	sw	s0,52(s1)
    80607138:	ab76                	fsd	ft9,400(sp)
    8060713a:	5166                	lw	sp,120(sp)
    8060713c:	a048                	fsd	fa0,128(s0)
    8060713e:	a798                	fsd	fa4,8(a5)
    80607140:	fcfa                	sd	t5,120(sp)
    80607142:	0089                	addi	ra,ra,2
    80607144:	3640                	fld	fs0,168(a2)
    80607146:	cd2c                	sw	a1,88(a0)
    80607148:	30d8                	fld	fa4,160(s1)
    8060714a:	207e8567          	jalr	a0,519(t4) # 6c575579 <_start-0x13a8aa87>
    8060714e:	6d3c                	ld	a5,88(a0)
    80607150:	1298                	addi	a4,sp,352
    80607152:	473e                	lw	a4,204(sp)
    80607154:	2af5                	addiw	s5,s5,29
    80607156:	9b4d                	andi	a4,a4,-13
    80607158:	ebca                	sd	s2,464(sp)
    8060715a:	93ba                	add	t2,t2,a4
    8060715c:	09e47fbf 62c93063 	0x62c9306309e47fbf
    80607164:	cfcc                	sw	a1,28(a5)
    80607166:	3236                	fld	ft4,360(sp)
    80607168:	b0bc                	fsd	fa5,96(s1)
    8060716a:	6ade                	ld	s5,464(sp)
    8060716c:	6cad                	lui	s9,0xb
    8060716e:	8936                	mv	s2,a3
    80607170:	808e83bb          	0x808e83bb
    80607174:	fcff                	0xfcff
    80607176:	2bf6                	fld	fs7,344(sp)
    80607178:	148d                	addi	s1,s1,-29
    8060717a:	5b79                	li	s6,-2
    8060717c:	24144893          	xori	a7,s0,577
    80607180:	8324                	0x8324
    80607182:	e1d9                	bnez	a1,80607208 <data5+0x208>
    80607184:	8300                	0x8300
    80607186:	638c                	ld	a1,0(a5)
    80607188:	cfd1                	beqz	a5,80607224 <data5+0x224>
    8060718a:	f5d8                	sd	a4,168(a1)
    8060718c:	afea                	fsd	fs10,472(sp)
    8060718e:	a15a                	fsd	fs6,128(sp)
    80607190:	2892                	fld	fa7,256(sp)
    80607192:	8e2c                	0x8e2c
    80607194:	2650                	fld	fa2,136(a2)
    80607196:	356e                	fld	fa0,248(sp)
    80607198:	2820                	fld	fs0,80(s0)
    8060719a:	40e1                	li	ra,24
    8060719c:	699d                	lui	s3,0x7
    8060719e:	c3fc                	sw	a5,68(a5)
    806071a0:	e0e7d2b7          	lui	t0,0xe0e7d
    806071a4:	bd71                	j	80607040 <data5+0x40>
    806071a6:	9ce8                	0x9ce8
    806071a8:	ce7e                	sw	t6,28(sp)
    806071aa:	6a3d8a87          	0x6a3d8a87
    806071ae:	7b49                	lui	s6,0xffff2
    806071b0:	566c                	lw	a1,108(a2)
    806071b2:	767c                	ld	a5,232(a2)
    806071b4:	06f3fbe3          	bgeu	t2,a5,80607a2a <data5+0xa2a>
    806071b8:	89ee                	mv	s3,s11
    806071ba:	ccc2a27b          	0xccc2a27b
    806071be:	3b43a963          	0x3b43a963
    806071c2:	5039                	c.li	zero,-18
    806071c4:	21314393          	xori	t2,sp,531
    806071c8:	bed0                	fsd	fa2,184(a3)
    806071ca:	531c                	lw	a5,32(a4)
    806071cc:	9d4a                	add	s10,s10,s2
    806071ce:	6cc15237          	lui	tp,0x6cc15
    806071d2:	1196                	slli	gp,gp,0x25
    806071d4:	f66a                	sd	s10,296(sp)
    806071d6:	0376                	slli	t1,t1,0x1d
    806071d8:	8112                	mv	sp,tp
    806071da:	2870                	fld	fa2,208(s0)
    806071dc:	9365                	srli	a4,a4,0x39
    806071de:	ce046c3f c266e84d 	0xc266e84dce046c3f
    806071e6:	7c4d                	lui	s8,0xffff3
    806071e8:	db09                	beqz	a4,806070fa <data5+0xfa>
    806071ea:	4596                	lw	a1,68(sp)
    806071ec:	8b0a1507          	0x8b0a1507
    806071f0:	b512                	fsd	ft4,168(sp)
    806071f2:	cdfd                	beqz	a1,806072f0 <data5+0x2f0>
    806071f4:	f92e                	sd	a1,176(sp)
    806071f6:	1f6a2e53          	fdiv.q	ft8,fs4,fs6,rdn
    806071fa:	16b2                	slli	a3,a3,0x2c
    806071fc:	3ec5                	addiw	t4,t4,-15
    806071fe:	383d                	addiw	a6,a6,-17
    80607200:	22b9                	addiw	t0,t0,14
    80607202:	334fbebb          	0x334fbebb
    80607206:	b32885bf 41ff8add 	0x41ff8addb32885bf
    8060720e:	9d7e                	add	s10,s10,t6
    80607210:	d29d                	beqz	a3,80607136 <data5+0x136>
    80607212:	20a0                	fld	fs0,64(s1)
    80607214:	550a                	lw	a0,160(sp)
    80607216:	e597f19b          	0xe597f19b
    8060721a:	d2c4                	sw	s1,36(a3)
    8060721c:	4312d223          	0x4312d223
    80607220:	92a724d3          	0x92a724d3
    80607224:	549c1ea3          	sh	s1,1373(s8) # ffffffffffff355d <secret+0xffffffff7f3f355d>
    80607228:	3a88                	fld	fa0,48(a3)
    8060722a:	6901c663          	blt	gp,a6,806078b6 <data5+0x8b6>
    8060722e:	24a5                	addiw	s1,s1,9
    80607230:	bf02                	fsd	ft0,440(sp)
    80607232:	3e11                	addiw	t3,t3,-28
    80607234:	70acdd23          	0x70acdd23
    80607238:	0231                	addi	tp,tp,12
    8060723a:	4cdc                	lw	a5,28(s1)
    8060723c:	695c                	ld	a5,144(a0)
    8060723e:	ee836d3b          	0xee836d3b
    80607242:	68ecdc3f 0783c29d 	0x783c29d68ecdc3f
    8060724a:	93d1                	srli	a5,a5,0x34
    8060724c:	8db6                	mv	s11,a3
    8060724e:	b14c                	fsd	fa1,160(a0)
    80607250:	8f6a                	mv	t5,s10
    80607252:	e93d059b          	addiw	a1,s10,-365
    80607256:	ce3e                	sw	a5,28(sp)
    80607258:	2474                	fld	fa3,200(s0)
    8060725a:	6871                	lui	a6,0x1c
    8060725c:	dadf 8768 87b7      	0x87b78768dadf
    80607262:	0cea                	slli	s9,s9,0x1a
    80607264:	e3c5                	bnez	a5,80607304 <data5+0x304>
    80607266:	76b2                	ld	a3,296(sp)
    80607268:	8c4c                	0x8c4c
    8060726a:	a4a2124f          	0xa4a2124f
    8060726e:	33a165d3          	0x33a165d3
    80607272:	1a3d                	addi	s4,s4,-17
    80607274:	80948ecb          	fnmsub.s	ft9,fs1,fs1,fa6,rne
    80607278:	db01                	beqz	a4,80607188 <data5+0x188>
    8060727a:	847c                	0x847c
    8060727c:	b70631fb          	0xb70631fb
    80607280:	3f06                	fld	ft10,96(sp)
    80607282:	edb5472b          	0xedb5472b
    80607286:	3053da7b          	0x3053da7b
    8060728a:	0716                	slli	a4,a4,0x5
    8060728c:	bbb1                	j	80606fe8 <data4+0xfe8>
    8060728e:	5936                	lw	s2,108(sp)
    80607290:	a8ce                	fsd	fs3,80(sp)
    80607292:	40bd23b7          	lui	t2,0x40bd2
    80607296:	7724                	ld	s1,104(a4)
    80607298:	31236c7b          	0x31236c7b
    8060729c:	e1fa                	sd	t5,192(sp)
    8060729e:	f50d                	bnez	a0,806071c8 <data5+0x1c8>
    806072a0:	fa911cbb          	0xfa911cbb
    806072a4:	a01c6b93          	ori	s7,s8,-1535
    806072a8:	569b4ea7          	fsq	fs1,1405(s6) # ffffffffffff257d <secret+0xffffffff7f3f257d>
    806072ac:	0eaa                	slli	t4,t4,0xa
    806072ae:	7fd4                	ld	a3,184(a5)
    806072b0:	b684                	fsd	fs1,40(a3)
    806072b2:	d00a                	sw	sp,32(sp)
    806072b4:	60fe                	ld	ra,472(sp)
    806072b6:	435c6e6f          	jal	t3,806cdeea <data7+0xc4eea>
    806072ba:	759f 1264 5796      	0x57961264759f
    806072c0:	5a92                	lw	s5,36(sp)
    806072c2:	7fb1                	lui	t6,0xfffec
    806072c4:	66ff                	0x66ff
    806072c6:	bbf1                	j	806070a2 <data5+0xa2>
    806072c8:	d7ba                	sw	a4,236(sp)
    806072ca:	abab2af7          	0xabab2af7
    806072ce:	58d5                	li	a7,-11
    806072d0:	351d                	addiw	a0,a0,-25
    806072d2:	633e                	ld	t1,456(sp)
    806072d4:	8cd4                	0x8cd4
    806072d6:	bef7c1e3          	blt	a5,a5,80606eb8 <data4+0xeb8>
    806072da:	a5a4                	fsd	fs1,72(a1)
    806072dc:	79ce                	ld	s3,240(sp)
    806072de:	4a5a2a13          	slti	s4,s4,1189
    806072e2:	9fea                	add	t6,t6,s10
    806072e4:	50fd                	li	ra,-1
    806072e6:	5c99                	li	s9,-26
    806072e8:	f1b9572f          	0xf1b9572f
    806072ec:	9088                	0x9088
    806072ee:	f841                	bnez	s0,8060727e <data5+0x27e>
    806072f0:	e41c                	sd	a5,8(s0)
    806072f2:	8d71                	and	a0,a0,a2
    806072f4:	469a                	lw	a3,132(sp)
    806072f6:	ef22                	sd	s0,408(sp)
    806072f8:	2f48                	fld	fa0,152(a4)
    806072fa:	fab9                	bnez	a3,80607250 <data5+0x250>
    806072fc:	d501                	beqz	a0,80607204 <data5+0x204>
    806072fe:	6638                	ld	a4,72(a2)
    80607300:	f4f9dee3          	bge	s3,a5,8060725c <data5+0x25c>
    80607304:	5894                	lw	a3,48(s1)
    80607306:	bf388d97          	auipc	s11,0xbf388
    8060730a:	aa75                	j	806074c6 <data5+0x4c6>
    8060730c:	0864                	addi	s1,sp,28
    8060730e:	59cc5ed7          	0x59cc5ed7
    80607312:	28e2e137          	lui	sp,0x28e2e
    80607316:	a146                	fsd	fa7,128(sp)
    80607318:	8a99                	andi	a3,a3,6
    8060731a:	261c                	fld	fa5,8(a2)
    8060731c:	6f5ca563          	0x6f5ca563
    80607320:	d2ee                	sw	s11,100(sp)
    80607322:	5c31                	li	s8,-20
    80607324:	8d89                	sub	a1,a1,a0
    80607326:	2a38                	fld	fa4,80(a2)
    80607328:	4acd                	li	s5,19
    8060732a:	a189                	j	8060776c <data5+0x76c>
    8060732c:	7e2c                	ld	a1,120(a2)
    8060732e:	d912                	sw	tp,176(sp)
    80607330:	2aa9                	addiw	s5,s5,10
    80607332:	cce8                	sw	a0,92(s1)
    80607334:	8720                	0x8720
    80607336:	2cf2                	fld	fs9,280(sp)
    80607338:	958a6a57          	0x958a6a57
    8060733c:	3533eeeb          	0x3533eeeb
    80607340:	cbc8                	sw	a0,20(a5)
    80607342:	3c15                	addiw	s8,s8,-27
    80607344:	f2ec3837          	lui	a6,0xf2ec3
    80607348:	da9c                	sw	a5,48(a3)
    8060734a:	4de9                	li	s11,26
    8060734c:	f26d                	bnez	a2,8060732e <data5+0x32e>
    8060734e:	af6119cb          	fnmsub.q	fs3,ft2,fs6,fs5,rtz
    80607352:	5970                	lw	a2,116(a0)
    80607354:	3ade                	fld	fs5,496(sp)
    80607356:	389d890f          	0x389d890f
    8060735a:	24a9                	addiw	s1,s1,10
    8060735c:	7a5d                	lui	s4,0xffff7
    8060735e:	1162                	slli	sp,sp,0x38
    80607360:	8102ace7          	0x8102ace7
    80607364:	9781                	srai	a5,a5,0x20
    80607366:	8ef9                	and	a3,a3,a4
    80607368:	dce0d0f7          	0xdce0d0f7
    8060736c:	10e4                	addi	s1,sp,108
    8060736e:	abe9                	j	80607948 <data5+0x948>
    80607370:	164c                	addi	a1,sp,804
    80607372:	8ee99217          	auipc	tp,0x8ee99
    80607376:	d10e                	sw	gp,160(sp)
    80607378:	d32d                	beqz	a4,806072da <data5+0x2da>
    8060737a:	839f9eeb          	0x839f9eeb
    8060737e:	097f                	0x97f
    80607380:	fcbcacc3          	0xfcbcacc3
    80607384:	d246e867          	0xd246e867
    80607388:	bfd1                	j	8060735c <data5+0x35c>
    8060738a:	6339                	lui	t1,0xe
    8060738c:	8fb8                	0x8fb8
    8060738e:	8c12                	mv	s8,tp
    80607390:	c4bc                	sw	a5,72(s1)
    80607392:	44e6                	lw	s1,88(sp)
    80607394:	0b58                	addi	a4,sp,404
    80607396:	14cc                	addi	a1,sp,612
    80607398:	aa72a687          	flw	fa3,-1369(t0) # ffffffffe0e7caa7 <secret+0xffffffff6027caa7>
    8060739c:	b499                	j	80606de2 <data4+0xde2>
    8060739e:	d5e9                	beqz	a1,80607368 <data5+0x368>
    806073a0:	a63d                	j	806076ce <data5+0x6ce>
    806073a2:	a0d95e2f          	0xa0d95e2f
    806073a6:	c7f89b43          	fmadd.q	fs6,fa7,ft11,fs8,rtz
    806073aa:	7a44                	ld	s1,176(a2)
    806073ac:	e2d1                	bnez	a3,80607430 <data5+0x430>
    806073ae:	ecd0                	sd	a2,152(s1)
    806073b0:	51fc                	lw	a5,100(a1)
    806073b2:	8436                	mv	s0,a3
    806073b4:	b242                	fsd	fa6,288(sp)
    806073b6:	2a45                	addiw	s4,s4,17
    806073b8:	1a08                	addi	a0,sp,304
    806073ba:	7385                	lui	t2,0xfffe1
    806073bc:	6568                	ld	a0,200(a0)
    806073be:	0cb4                	addi	a3,sp,600
    806073c0:	0f09                	addi	t5,t5,2
    806073c2:	b7bc                	fsd	fa5,104(a5)
    806073c4:	5470b08f          	0x5470b08f
    806073c8:	953e                	add	a0,a0,a5
    806073ca:	92447567          	0x92447567
    806073ce:	be4b3ea7          	fsd	ft4,-1027(s6)
    806073d2:	57bb0bb7          	lui	s7,0x57bb0
    806073d6:	7721                	lui	a4,0xfffe8
    806073d8:	f071                	bnez	s0,8060739c <data5+0x39c>
    806073da:	a4b0                	fsd	fa2,72(s1)
    806073dc:	0486                	slli	s1,s1,0x1
    806073de:	96565da3          	0x96565da3
    806073e2:	2d5d8c17          	auipc	s8,0x2d5d8
    806073e6:	302c                	fld	fa1,96(s0)
    806073e8:	7b91                	lui	s7,0xfffe4
    806073ea:	a46e                	fsd	fs11,8(sp)
    806073ec:	8b64                	0x8b64
    806073ee:	e050                	sd	a2,128(s0)
    806073f0:	42ac9d07          	0x42ac9d07
    806073f4:	2555                	addiw	a0,a0,21
    806073f6:	97071c47          	fmsub.q	fs8,fa4,fa6,fs2,rtz
    806073fa:	45e6                	lw	a1,88(sp)
    806073fc:	46a8                	lw	a0,72(a3)
    806073fe:	c480                	sw	s0,8(s1)
	...

0000000080608000 <data6>:
    80608000:	237a                	fld	ft6,408(sp)
    80608002:	7ee5                	lui	t4,0xffff9
    80608004:	45d2                	lw	a1,20(sp)
    80608006:	a8a9                	j	80608060 <data6+0x60>
    80608008:	b381                	j	80607d48 <data5+0xd48>
    8060800a:	59dd7d63          	bgeu	s10,t4,806085a4 <data6+0x5a4>
    8060800e:	4697904f          	fnmadd.q	ft0,fa5,fs1,fs0,rtz
    80608012:	ff25                	bnez	a4,80607f8a <data5+0xf8a>
    80608014:	ba68                	fsd	fa0,240(a2)
    80608016:	ddbc                	sw	a5,120(a1)
    80608018:	1d43bde3          	0x1d43bde3
    8060801c:	ef4962e7          	0xef4962e7
    80608020:	02d9                	addi	t0,t0,22
    80608022:	eb96                	sd	t0,464(sp)
    80608024:	60ac                	ld	a1,64(s1)
    80608026:	1e74                	addi	a3,sp,828
    80608028:	0f89c1d3          	fsub.q	ft3,fs3,fs8,rmm
    8060802c:	54fa                	lw	s1,188(sp)
    8060802e:	bb81                	j	80607d7e <data5+0xd7e>
    80608030:	04a5                	addi	s1,s1,9
    80608032:	fc92                	sd	tp,120(sp)
    80608034:	782d                	lui	a6,0xfffeb
    80608036:	02ad                	addi	t0,t0,11
    80608038:	92153707          	fld	fa4,-1759(a0) # 921 <_start-0x7ffff6df>
    8060803c:	6a15                	lui	s4,0x5
    8060803e:	fe3e                	sd	a5,312(sp)
    80608040:	590cbaaf          	0x590cbaaf
    80608044:	b6d9c7ab          	0xb6d9c7ab
    80608048:	1c62                	slli	s8,s8,0x38
    8060804a:	d901                	beqz	a0,80607f5a <data5+0xf5a>
    8060804c:	6149                	addi	sp,sp,144
    8060804e:	be5d                	j	80607c04 <data5+0xc04>
    80608050:	c521                	beqz	a0,80608098 <data6+0x98>
    80608052:	f461                	bnez	s0,8060801a <data6+0x1a>
    80608054:	c856                	sw	s5,16(sp)
    80608056:	248a97c3          	0x248a97c3
    8060805a:	b290                	fsd	fa2,32(a3)
    8060805c:	fef8                	sd	a4,248(a3)
    8060805e:	ae87c5f3          	0xae87c5f3
    80608062:	beac                	fsd	fa1,120(a3)
    80608064:	16613b2f          	0x16613b2f
    80608068:	1338                	addi	a4,sp,424
    8060806a:	0f80                	addi	s0,sp,976
    8060806c:	1596                	slli	a1,a1,0x25
    8060806e:	6b32                	ld	s6,264(sp)
    80608070:	6685                	lui	a3,0x1
    80608072:	0a68fc13          	andi	s8,a7,166
    80608076:	9196                	add	gp,gp,t0
    80608078:	73a6                	ld	t2,104(sp)
    8060807a:	a1e22fd7          	0xa1e22fd7
    8060807e:	8e6e                	mv	t3,s11
    80608080:	213a6fef          	jal	t6,806aea92 <data7+0xa5a92>
    80608084:	af72                	fsd	ft8,408(sp)
    80608086:	fb84                	sd	s1,48(a5)
    80608088:	92d0                	0x92d0
    8060808a:	37bd                	addiw	a5,a5,-17
    8060808c:	c448                	sw	a0,12(s0)
    8060808e:	e685734f          	fnmadd.q	ft6,fa0,fs0,ft8
    80608092:	13df 68c9 561d      	0x561d68c913df
    80608098:	aa74480f          	0xaa74480f
    8060809c:	16d79f23          	sh	a3,382(a5)
    806080a0:	0344                	addi	s1,sp,388
    806080a2:	bf46                	fsd	fa7,440(sp)
    806080a4:	dbbd                	beqz	a5,8060801a <data6+0x1a>
    806080a6:	9df10957          	0x9df10957
    806080aa:	1d10                	addi	a2,sp,688
    806080ac:	acd9                	j	80608382 <data6+0x382>
    806080ae:	a1d9                	j	80608574 <data6+0x574>
    806080b0:	d6e0                	sw	s0,108(a3)
    806080b2:	3a07e903          	lwu	s2,928(a5)
    806080b6:	5319                	li	t1,-26
    806080b8:	6a10                	ld	a2,16(a2)
    806080ba:	ea7f                	0xea7f
    806080bc:	b94a                	fsd	fs2,176(sp)
    806080be:	0e71                	addi	t3,t3,28
    806080c0:	1a30                	addi	a2,sp,312
    806080c2:	af55                	j	80608876 <data6+0x876>
    806080c4:	7c88                	ld	a0,56(s1)
    806080c6:	6b24                	ld	s1,80(a4)
    806080c8:	75d0                	ld	a2,168(a1)
    806080ca:	ac08                	fsd	fa0,24(s0)
    806080cc:	b5f6                	fsd	ft9,232(sp)
    806080ce:	ed51                	bnez	a0,8060816a <data6+0x16a>
    806080d0:	6fc8                	ld	a0,152(a5)
    806080d2:	23c2                	fld	ft7,16(sp)
    806080d4:	c596                	sw	t0,200(sp)
    806080d6:	008a                	slli	ra,ra,0x2
    806080d8:	766d                	lui	a2,0xffffb
    806080da:	4790                	lw	a2,8(a5)
    806080dc:	4d931417          	auipc	s0,0x4d931
    806080e0:	7b5c6e8b          	0x7b5c6e8b
    806080e4:	f27c00fb          	0xf27c00fb
    806080e8:	2c99                	addiw	s9,s9,6
    806080ea:	ae21                	j	80608402 <data6+0x402>
    806080ec:	7684                	ld	s1,40(a3)
    806080ee:	b5ee                	fsd	fs11,232(sp)
    806080f0:	e206                	sd	ra,256(sp)
    806080f2:	6202                	ld	tp,0(sp)
    806080f4:	b95d                	j	80607daa <data5+0xdaa>
    806080f6:	21be8fb3          	0x21be8fb3
    806080fa:	25bd                	addiw	a1,a1,15
    806080fc:	cb8d                	beqz	a5,8060812e <data6+0x12e>
    806080fe:	d04c                	sw	a1,36(s0)
    80608100:	1df1                	addi	s11,s11,-4
    80608102:	bd91                	j	80607f56 <data5+0xf56>
    80608104:	123d8593          	addi	a1,s11,291 # 3f98f429 <_start-0x40670bd7>
    80608108:	b8ac                	fsd	fa1,112(s1)
    8060810a:	e905924b          	fnmsub.s	ft4,fa1,fa6,ft9,rtz
    8060810e:	d078                	sw	a4,100(s0)
    80608110:	4e78                	lw	a4,92(a2)
    80608112:	4fb4                	lw	a3,88(a5)
    80608114:	a7e8                	fsd	fa0,200(a5)
    80608116:	479c                	lw	a5,8(a5)
    80608118:	003a                	c.slli	zero,0xe
    8060811a:	27fc                	fld	fa5,200(a5)
    8060811c:	5cf8                	lw	a4,124(s1)
    8060811e:	0694e5bb          	0x694e5bb
    80608122:	95aeee93          	ori	t4,t4,-1702
    80608126:	036e                	slli	t1,t1,0x1b
    80608128:	71e4                	ld	s1,224(a1)
    8060812a:	4c374b1b          	0x4c374b1b
    8060812e:	e88f570f          	0xe88f570f
    80608132:	fbf8                	sd	a4,240(a5)
    80608134:	27e4                	fld	fs1,200(a5)
    80608136:	5320                	lw	s0,96(a4)
    80608138:	dbde                	sw	s7,244(sp)
    8060813a:	4788                	lw	a0,8(a5)
    8060813c:	ec28                	sd	a0,88(s0)
    8060813e:	5c92                	lw	s9,36(sp)
    80608140:	f549                	bnez	a0,806080ca <data6+0xca>
    80608142:	0f6e                	slli	t5,t5,0x1b
    80608144:	2c12                	fld	fs8,256(sp)
    80608146:	e101                	bnez	a0,80608146 <data6+0x146>
    80608148:	b6f5                	j	80607d34 <data5+0xd34>
    8060814a:	e034                	sd	a3,64(s0)
    8060814c:	e185                	bnez	a1,8060816c <data6+0x16c>
    8060814e:	e869                	bnez	s0,80608220 <data6+0x220>
    80608150:	3b15                	addiw	s6,s6,-27
    80608152:	0f28713b          	0xf28713b
    80608156:	2f1d                	addiw	t5,t5,7
    80608158:	b119                	j	80607d5e <data5+0xd5e>
    8060815a:	6643df1b          	0x6643df1b
    8060815e:	a664                	fsd	fs1,200(a2)
    80608160:	de16                	sw	t0,60(sp)
    80608162:	1f78                	addi	a4,sp,956
    80608164:	e3b39993          	0xe3b39993
    80608168:	07c7708b          	0x7c7708b
    8060816c:	8fc0                	0x8fc0
    8060816e:	8250                	0x8250
    80608170:	1c8e7587          	0x1c8e7587
    80608174:	8b9f c724 2cfe      	0x2cfec7248b9f
    8060817a:	cf1a                	sw	t1,156(sp)
    8060817c:	d09c                	sw	a5,32(s1)
    8060817e:	2d1e2c73          	csrrs	s8,0x2d1,t3
    80608182:	cf0d                	beqz	a4,806081bc <data6+0x1bc>
    80608184:	dad8                	sw	a4,52(a3)
    80608186:	979c                	0x979c
    80608188:	6fa9                	lui	t6,0xa
    8060818a:	f26a                	sd	s10,288(sp)
    8060818c:	e0d9                	bnez	s1,80608212 <data6+0x212>
    8060818e:	1b7f                	0x1b7f
    80608190:	3892                	fld	fa7,288(sp)
    80608192:	45a8                	lw	a0,72(a1)
    80608194:	9948                	0x9948
    80608196:	fe34                	sd	a3,120(a2)
    80608198:	51ff792f          	0x51ff792f
    8060819c:	63fa                	ld	t2,408(sp)
    8060819e:	4765                	li	a4,25
    806081a0:	f9a5                	bnez	a1,80608110 <data6+0x110>
    806081a2:	790c                	ld	a1,48(a0)
    806081a4:	9536                	add	a0,a0,a3
    806081a6:	fcf0                	sd	a2,248(s1)
    806081a8:	ced8                	sw	a4,28(a3)
    806081aa:	c1e87433          	0xc1e87433
    806081ae:	cace                	sw	s3,84(sp)
    806081b0:	68f0                	ld	a2,208(s1)
    806081b2:	ca14                	sw	a3,16(a2)
    806081b4:	52f6                	lw	t0,124(sp)
    806081b6:	c140                	sw	s0,4(a0)
    806081b8:	4a1c8e9b          	addiw	t4,s9,1185
    806081bc:	e68e                	sd	gp,328(sp)
    806081be:	88e0                	0x88e0
    806081c0:	a219040b          	0xa219040b
    806081c4:	91a2                	add	gp,gp,s0
    806081c6:	0cc9                	addi	s9,s9,18
    806081c8:	bec6                	fsd	fa7,376(sp)
    806081ca:	1882                	slli	a7,a7,0x20
    806081cc:	9634                	0x9634
    806081ce:	5dc4                	lw	s1,60(a1)
    806081d0:	840a                	mv	s0,sp
    806081d2:	d52e                	sw	a1,168(sp)
    806081d4:	2ade                	fld	fs5,464(sp)
    806081d6:	c2b5                	beqz	a3,8060823a <data6+0x23a>
    806081d8:	0a14                	addi	a3,sp,272
    806081da:	77f1                	lui	a5,0xffffc
    806081dc:	0e9e                	slli	t4,t4,0x7
    806081de:	8272                	mv	tp,t3
    806081e0:	38c1                	addiw	a7,a7,-16
    806081e2:	31b1a747          	fmsub.s	fa4,ft3,fs11,ft6,rdn
    806081e6:	f3abbb13          	sltiu	s6,s7,-198
    806081ea:	b924                	fsd	fs1,112(a0)
    806081ec:	f12e                	sd	a1,160(sp)
    806081ee:	bfafac5b          	0xbfafac5b
    806081f2:	2207ed87          	0x2207ed87
    806081f6:	85e6                	mv	a1,s9
    806081f8:	4f76                	lw	t5,92(sp)
    806081fa:	b548                	fsd	fa0,168(a0)
    806081fc:	18e7a92b          	0x18e7a92b
    80608200:	1d68d37b          	0x1d68d37b
    80608204:	89a79cb3          	0x89a79cb3
    80608208:	6de56ff3          	csrrsi	t6,0x6de,10
    8060820c:	94ce                	add	s1,s1,s3
    8060820e:	f352883f ae647df1 	0xae647df1f352883f
    80608216:	847e                	mv	s0,t6
    80608218:	2459                	addiw	s0,s0,22
    8060821a:	8cbc                	0x8cbc
    8060821c:	02b5ffbb          	remuw	t6,a1,a1
    80608220:	0560                	addi	s0,sp,652
    80608222:	a47a457b          	0xa47a457b
    80608226:	3eb2fac7          	fmsub.q	fs5,ft5,fa1,ft7
    8060822a:	64a8499b          	0x64a8499b
    8060822e:	0b96                	slli	s7,s7,0x5
    80608230:	b71e0257          	0xb71e0257
    80608234:	d031                	beqz	s0,80608178 <data6+0x178>
    80608236:	57f2                	lw	a5,60(sp)
    80608238:	78cc                	ld	a1,176(s1)
    8060823a:	df7a3bd3          	0xdf7a3bd3
    8060823e:	fa0d                	bnez	a2,80608170 <data6+0x170>
    80608240:	3d41                	addiw	s10,s10,-16
    80608242:	7e11                	lui	t3,0xfffe4
    80608244:	fbec                	sd	a1,240(a5)
    80608246:	ab20                	fsd	fs0,80(a4)
    80608248:	6cf5                	lui	s9,0x1d
    8060824a:	9ac5                	andi	a3,a3,-15
    8060824c:	4e81                	li	t4,0
    8060824e:	c5e6                	sw	s9,200(sp)
    80608250:	9a61                	andi	a2,a2,-8
    80608252:	2fe6                	fld	ft11,88(sp)
    80608254:	c7d44fc3          	fmadd.q	ft11,fs0,ft9,fs8,rmm
    80608258:	a231                	j	80608364 <data6+0x364>
    8060825a:	04c8                	addi	a0,sp,580
    8060825c:	92a5                	srli	a3,a3,0x29
    8060825e:	6b66                	ld	s6,88(sp)
    80608260:	1896                	slli	a7,a7,0x25
    80608262:	b2a1                	j	80607baa <data5+0xbaa>
    80608264:	36f28f97          	auipc	t6,0x36f28
    80608268:	ce9f 3361 de33      	0xde333361ce9f
    8060826e:	e980                	sd	s0,16(a1)
    80608270:	2bdfec63          	bltu	t6,t4,80608528 <data6+0x528>
    80608274:	1aca                	slli	s5,s5,0x32
    80608276:	cf81                	beqz	a5,8060828e <data6+0x28e>
    80608278:	96dc                	0x96dc
    8060827a:	5cf8                	lw	a4,124(s1)
    8060827c:	1d5221bf 4678de63 	0x4678de631d5221bf
    80608284:	9e00                	0x9e00
    80608286:	bac0                	fsd	fs0,176(a3)
    80608288:	d649                	beqz	a2,80608212 <data6+0x212>
    8060828a:	66cc                	ld	a1,136(a3)
    8060828c:	5dee                	lw	s11,248(sp)
    8060828e:	3169                	addiw	sp,sp,-6
    80608290:	060d                	addi	a2,a2,3
    80608292:	e67f                	0xe67f
    80608294:	c771                	beqz	a4,80608360 <data6+0x360>
    80608296:	290a                	fld	fs2,128(sp)
    80608298:	92be                	add	t0,t0,a5
    8060829a:	3c0e28bf 2c9063a9 	0x2c9063a93c0e28bf
    806082a2:	67fad7f3          	csrrwi	a5,0x67f,21
    806082a6:	8257fc83          	0x8257fc83
    806082aa:	b76f3917          	auipc	s2,0xb76f3
    806082ae:	7490777b          	0x7490777b
    806082b2:	4424                	lw	s1,72(s0)
    806082b4:	c79e                	sw	t2,204(sp)
    806082b6:	b5f8                	fsd	fa4,232(a1)
    806082b8:	ce4a7f13          	andi	t5,s4,-796
    806082bc:	5c2bb433          	0x5c2bb433
    806082c0:	bbf4                	fsd	fa3,240(a5)
    806082c2:	bad2                	fsd	fs4,368(sp)
    806082c4:	067ffc23          	0x67ffc23
    806082c8:	0eb8                	addi	a4,sp,856
    806082ca:	ea31                	bnez	a2,8060831e <data6+0x31e>
    806082cc:	e6a2                	sd	s0,328(sp)
    806082ce:	db220d03          	lb	s10,-590(tp) # f4a0124 <_start-0x70b5fedc>
    806082d2:	c335                	beqz	a4,80608336 <data6+0x336>
    806082d4:	641e                	ld	s0,448(sp)
    806082d6:	c3d9a007          	flw	ft0,-963(s3) # 6c3d <_start-0x7fff93c3>
    806082da:	9531                	srai	a0,a0,0x2c
    806082dc:	6b81                	0x6b81
    806082de:	14d94503          	lbu	a0,333(s2) # 37cfb3f7 <_start-0x48304c09>
    806082e2:	c68e                	sw	gp,76(sp)
    806082e4:	43d298f7          	0x43d298f7
    806082e8:	c4c1                	beqz	s1,80608370 <data6+0x370>
    806082ea:	3fd0                	fld	fa2,184(a5)
    806082ec:	73e4                	ld	s1,224(a5)
    806082ee:	1880                	addi	s0,sp,112
    806082f0:	efa2fdcb          	fnmsub.q	fs11,ft5,fs10,ft9
    806082f4:	1489                	addi	s1,s1,-30
    806082f6:	380e                	fld	fa6,224(sp)
    806082f8:	0af4                	addi	a3,sp,348
    806082fa:	761d                	lui	a2,0xfffe7
    806082fc:	65914f93          	xori	t6,sp,1625
    80608300:	9af0                	0x9af0
    80608302:	bd4c                	fsd	fa1,184(a0)
    80608304:	fd595c2b          	0xfd595c2b
    80608308:	918a                	add	gp,gp,sp
    8060830a:	b77c                	fsd	fa5,232(a4)
    8060830c:	0862                	slli	a6,a6,0x18
    8060830e:	8c98b107          	fld	ft2,-1847(a7)
    80608312:	5ef8                	lw	a4,124(a3)
    80608314:	5bb5                	li	s7,-19
    80608316:	3f46                	fld	ft10,112(sp)
    80608318:	e5da                	sd	s6,200(sp)
    8060831a:	e7cc                	sd	a1,136(a5)
    8060831c:	a189                	j	8060875e <data6+0x75e>
    8060831e:	51a5                	li	gp,-23
    80608320:	c7ff                	0xc7ff
    80608322:	deb6                	sw	a3,124(sp)
    80608324:	a700                	fsd	fs0,8(a4)
    80608326:	b82d                	j	80607b60 <data5+0xb60>
    80608328:	54cd                	li	s1,-13
    8060832a:	c525                	beqz	a0,80608392 <data6+0x392>
    8060832c:	bb2e                	fsd	fa1,432(sp)
    8060832e:	24f6                	fld	fs1,344(sp)
    80608330:	d6b8c067          	0xd6b8c067
    80608334:	c98d                	beqz	a1,80608366 <data6+0x366>
    80608336:	b8bf554f          	fnmadd.s	fa0,ft10,fa1,fs7,unknown
    8060833a:	86cd                	srai	a3,a3,0x13
    8060833c:	ea3c                	sd	a5,80(a2)
    8060833e:	e890                	sd	a2,16(s1)
    80608340:	9b1e                	add	s6,s6,t2
    80608342:	01f1                	addi	gp,gp,28
    80608344:	31a1d3f3          	csrrwi	t2,0x31a,3
    80608348:	cadd                	beqz	a3,806083fe <data6+0x3fe>
    8060834a:	861e                	mv	a2,t2
    8060834c:	79e5                	lui	s3,0xffff9
    8060834e:	8dc8                	0x8dc8
    80608350:	3a51                	addiw	s4,s4,-12
    80608352:	a3ad                	j	806088bc <data6+0x8bc>
    80608354:	5cba                	lw	s9,172(sp)
    80608356:	ea86                	sd	ra,336(sp)
    80608358:	1728                	addi	a0,sp,936
    8060835a:	cf82                	sw	zero,220(sp)
    8060835c:	d115                	beqz	a0,80608280 <data6+0x280>
    8060835e:	237e                	fld	ft6,472(sp)
    80608360:	508543ab          	0x508543ab
    80608364:	e0e1                	bnez	s1,80608424 <data6+0x424>
    80608366:	b5c4                	fsd	fs1,168(a1)
    80608368:	0f2a                	slli	t5,t5,0xa
    8060836a:	66a0                	ld	s0,72(a3)
    8060836c:	b825                	j	80607ba4 <data5+0xba4>
    8060836e:	3bb6                	fld	fs7,360(sp)
    80608370:	ac0a                	fsd	ft2,24(sp)
    80608372:	1510                	addi	a2,sp,672
    80608374:	34c4                	fld	fs1,168(s1)
    80608376:	7649                	lui	a2,0xffff2
    80608378:	5b11                	li	s6,-28
    8060837a:	8b1c962b          	0x8b1c962b
    8060837e:	30e4                	fld	fs1,224(s1)
    80608380:	5bad                	li	s7,-21
    80608382:	465c                	lw	a5,12(a2)
    80608384:	c97ad907          	0xc97ad907
    80608388:	adad                	j	80608a02 <data6+0xa02>
    8060838a:	3c3b9763          	bne	s7,gp,80608758 <data6+0x758>
    8060838e:	bab1a84f          	fnmadd.d	fa6,ft3,fa1,fs7,rdn
    80608392:	a1ea                	fsd	fs10,192(sp)
    80608394:	8765                	srai	a4,a4,0x19
    80608396:	ddbe                	sw	a5,248(sp)
    80608398:	d580                	sw	s0,40(a1)
    8060839a:	b95e                	fsd	fs7,176(sp)
    8060839c:	1e4c                	addi	a1,sp,820
    8060839e:	733e                	ld	t1,488(sp)
    806083a0:	c472                	sw	t3,8(sp)
    806083a2:	0714                	addi	a3,sp,896
    806083a4:	cac8                	sw	a0,20(a3)
    806083a6:	7534                	ld	a3,104(a0)
    806083a8:	767c                	ld	a5,232(a2)
    806083aa:	df8e                	sw	gp,252(sp)
    806083ac:	efce                	sd	s3,472(sp)
    806083ae:	12e1                	addi	t0,t0,-8
    806083b0:	b8d53cc7          	fmsub.s	fs9,fa0,fa3,fs7,rup
    806083b4:	7839                	lui	a6,0xfffee
    806083b6:	39d5                	addiw	s3,s3,-11
    806083b8:	66530c2b          	0x66530c2b
    806083bc:	152c                	addi	a1,sp,680
    806083be:	d435                	beqz	s0,8060832a <data6+0x32a>
    806083c0:	682e                	ld	a6,200(sp)
    806083c2:	258c                	fld	fa1,8(a1)
    806083c4:	4f44                	lw	s1,28(a4)
    806083c6:	0eec                	addi	a1,sp,860
    806083c8:	5fcb089b          	addiw	a7,s6,1532
    806083cc:	96fa                	add	a3,a3,t5
    806083ce:	3874                	fld	fa3,240(s0)
    806083d0:	5098f6fb          	0x5098f6fb
    806083d4:	ec40                	sd	s0,152(s0)
    806083d6:	6404                	ld	s1,8(s0)
    806083d8:	aec6                	fsd	fa7,344(sp)
    806083da:	8aa2a7bf 64feaeed 	0x64feaeed8aa2a7bf
    806083e2:	4e44                	lw	s1,28(a2)
    806083e4:	9dca                	add	s11,s11,s2
    806083e6:	92fa                	add	t0,t0,t5
    806083e8:	f89c                	sd	a5,48(s1)
    806083ea:	2a85                	addiw	s5,s5,1
    806083ec:	74ad                	lui	s1,0xfffeb
    806083ee:	6c0a                	ld	s8,128(sp)
    806083f0:	47d0                	lw	a2,12(a5)
    806083f2:	f64d                	bnez	a2,8060839c <data6+0x39c>
    806083f4:	7219                	lui	tp,0xfffe6
    806083f6:	8f76                	mv	t5,t4
    806083f8:	c6d6                	sw	s5,76(sp)
    806083fa:	1558                	addi	a4,sp,676
    806083fc:	b1dd                	j	806080e2 <data6+0xe2>
    806083fe:	605a                	0x605a
	...

0000000080609000 <data7>:
    80609000:	c18c                	sw	a1,0(a1)
    80609002:	74a8                	ld	a0,104(s1)
    80609004:	9286b4cf          	fnmadd.d	fs1,fa3,fs0,fs2,rup
    80609008:	05a8df2f          	0x5a8df2f
    8060900c:	fe48                	sd	a0,184(a2)
    8060900e:	3671                	addiw	a2,a2,-4
    80609010:	17b30907          	0x17b30907
    80609014:	246b7d5b          	0x246b7d5b
    80609018:	15d0                	addi	a2,sp,740
    8060901a:	9e9b5257          	0x9e9b5257
    8060901e:	5a348dcb          	fnmsub.d	fs11,fs1,ft3,fa1,rne
    80609022:	6889                	lui	a7,0x2
    80609024:	7564                	ld	s1,232(a0)
    80609026:	1b91                	addi	s7,s7,-28
    80609028:	bde5                	j	80608f20 <data6+0xf20>
    8060902a:	ace0                	fsd	fs0,216(s1)
    8060902c:	d1ca                	sw	s2,224(sp)
    8060902e:	89de                	mv	s3,s7
    80609030:	edba                	sd	a4,216(sp)
    80609032:	607c                	ld	a5,192(s0)
    80609034:	ce5486ab          	0xce5486ab
    80609038:	15a7d60f          	0x15a7d60f
    8060903c:	9b8a                	add	s7,s7,sp
    8060903e:	7cf02e73          	csrr	t3,0x7cf
    80609042:	a269                	j	806091cc <data7+0x1cc>
    80609044:	9e30                	0x9e30
    80609046:	8472                	mv	s0,t3
    80609048:	85bd                	srai	a1,a1,0xf
    8060904a:	ee7a                	sd	t5,280(sp)
    8060904c:	e994                	sd	a3,16(a1)
    8060904e:	b510                	fsd	fa2,40(a0)
    80609050:	c461                	beqz	s0,80609118 <data7+0x118>
    80609052:	6c52                	ld	s8,272(sp)
    80609054:	138c                	addi	a1,sp,480
    80609056:	87688b9b          	addiw	s7,a7,-1930
    8060905a:	a050                	fsd	fa2,128(s0)
    8060905c:	7928                	ld	a0,112(a0)
    8060905e:	8e60                	0x8e60
    80609060:	4a24                	lw	s1,80(a2)
    80609062:	035a                	slli	t1,t1,0x16
    80609064:	73b8                	ld	a4,96(a5)
    80609066:	2b7f                	0x2b7f
    80609068:	aa1e                	fsd	ft7,272(sp)
    8060906a:	cbe24507          	flq	fa0,-834(tp) # fffffffffffe5cbe <secret+0xffffffff7f3e5cbe>
    8060906e:	5641                	li	a2,-16
    80609070:	837e                	mv	t1,t6
    80609072:	3111                	addiw	sp,sp,-28
    80609074:	8adf 6e10 2c45      	0x2c456e108adf
    8060907a:	8eb1                	xor	a3,a3,a2
    8060907c:	9d11                	subw	a0,a0,a2
    8060907e:	9ab6                	add	s5,s5,a3
    80609080:	ba0c                	fsd	fa1,48(a2)
    80609082:	56a1                	li	a3,-24
    80609084:	4799                	li	a5,6
    80609086:	dfcc                	sw	a1,60(a5)
    80609088:	4b872f23          	sw	s8,1214(a4) # fffffffffffe84be <secret+0xffffffff7f3e84be>
    8060908c:	58cd                	li	a7,-13
    8060908e:	47c5                	li	a5,17
    80609090:	bc75                	j	80608b4c <data6+0xb4c>
    80609092:	fd6d                	bnez	a0,8060908c <data7+0x8c>
    80609094:	bca8                	fsd	fa0,120(s1)
    80609096:	42bd                	li	t0,15
    80609098:	1220                	addi	s0,sp,296
    8060909a:	4a1453bb          	0x4a1453bb
    8060909e:	5b25cd93          	xori	s11,a1,1458
    806090a2:	e4ec                	sd	a1,200(s1)
    806090a4:	cc8a                	sw	sp,88(sp)
    806090a6:	46ae                	lw	a3,200(sp)
    806090a8:	b20c                	fsd	fa1,32(a2)
    806090aa:	1b19                	addi	s6,s6,-26
    806090ac:	14ce                	slli	s1,s1,0x33
    806090ae:	0c30                	addi	a2,sp,536
    806090b0:	6bb513fb          	0x6bb513fb
    806090b4:	f938                	sd	a4,112(a0)
    806090b6:	1a517713          	andi	a4,sp,421
    806090ba:	631f 5bd7 58d8      	0x58d85bd7631f
    806090c0:	535f b357 5459      	0x5459b357535f
    806090c6:	069c                	addi	a5,sp,832
    806090c8:	135a                	slli	t1,t1,0x36
    806090ca:	5a6fee2b          	0x5a6fee2b
    806090ce:	60ed                	lui	ra,0x1b
    806090d0:	26322b07          	flw	fs6,611(tp) # 263 <_start-0x7ffffd9d>
    806090d4:	876d                	srai	a4,a4,0x1b
    806090d6:	31da                	fld	ft3,432(sp)
    806090d8:	459e                	lw	a1,196(sp)
    806090da:	5b8e                	lw	s7,224(sp)
    806090dc:	8f8c6c47          	fmsub.q	fs8,fs8,fs8,fa7,unknown
    806090e0:	ffe0                	sd	s0,248(a5)
    806090e2:	0141052b          	0x141052b
    806090e6:	8ef5                	and	a3,a3,a3
    806090e8:	5866                	lw	a6,120(sp)
    806090ea:	3820                	fld	fs0,112(s0)
    806090ec:	12e2                	slli	t0,t0,0x38
    806090ee:	61d2                	ld	gp,272(sp)
    806090f0:	56ba                	lw	a3,172(sp)
    806090f2:	f63d                	bnez	a2,80609060 <data7+0x60>
    806090f4:	6c46                	ld	s8,80(sp)
    806090f6:	d594                	sw	a3,40(a1)
    806090f8:	ef5c                	sd	a5,152(a4)
    806090fa:	3eebd667          	0x3eebd667
    806090fe:	94f6                	add	s1,s1,t4
    80609100:	cafe562f          	0xcafe562f
    80609104:	3792                	fld	fa5,288(sp)
    80609106:	c7a1d3fb          	0xc7a1d3fb
    8060910a:	72a0ccf7          	0x72a0ccf7
    8060910e:	2279                	addiw	tp,tp,30
    80609110:	b05e                	fsd	fs7,32(sp)
    80609112:	c3c8                	sw	a0,4(a5)
    80609114:	3daaf723          	0x3daaf723
    80609118:	ef5a                	sd	s6,408(sp)
    8060911a:	2ba9                	addiw	s7,s7,10
    8060911c:	62494df3          	0x62494df3
    80609120:	58edbe23          	sd	a4,1436(s11)
    80609124:	fd7dc5bf 17bcc428 	0x17bcc428fd7dc5bf
    8060912c:	494a                	lw	s2,144(sp)
    8060912e:	a37d                	j	806096dc <data7+0x6dc>
    80609130:	a0d9                	j	806091f6 <data7+0x1f6>
    80609132:	0555                	addi	a0,a0,21
    80609134:	2cdf 9099 5b08      	0x5b0890992cdf
    8060913a:	1555                	addi	a0,a0,-11
    8060913c:	36fe                	fld	fa3,504(sp)
    8060913e:	b45c                	fsd	fa5,168(s0)
    80609140:	e761                	bnez	a4,80609208 <data7+0x208>
    80609142:	1ad58b67          	jalr	s6,429(a1) # 224431ad <_start-0x5dbbce53>
    80609146:	c818                	sw	a4,16(s0)
    80609148:	078d220b          	0x78d220b
    8060914c:	03ed                	addi	t2,t2,27
    8060914e:	4e9a                	lw	t4,132(sp)
    80609150:	5eca                	lw	t4,176(sp)
    80609152:	8225                	srli	a2,a2,0x9
    80609154:	5c90                	lw	a2,56(s1)
    80609156:	5be0                	lw	s0,116(a5)
    80609158:	9245                	srli	a2,a2,0x31
    8060915a:	6068                	ld	a0,192(s0)
    8060915c:	8b7e                	mv	s6,t6
    8060915e:	0b64                	addi	s1,sp,412
    80609160:	d3e6                	sw	s9,228(sp)
    80609162:	e7a0                	sd	s0,72(a5)
    80609164:	2a29                	addiw	s4,s4,10
    80609166:	5179                	li	sp,-2
    80609168:	4f82                	lw	t6,0(sp)
    8060916a:	713477ab          	0x713477ab
    8060916e:	12d6                	slli	t0,t0,0x35
    80609170:	6950                	ld	a2,144(a0)
    80609172:	b142                	fsd	fa6,160(sp)
    80609174:	a65f0863          	beq	t5,t0,806083e4 <data6+0x3e4>
    80609178:	9418                	0x9418
    8060917a:	2cc6                	fld	fs9,80(sp)
    8060917c:	4ec8                	lw	a0,28(a3)
    8060917e:	ff1a                	sd	t1,440(sp)
    80609180:	10a5                	addi	ra,ra,-23
    80609182:	b50a                	fsd	ft2,168(sp)
    80609184:	ff7a                	sd	t5,440(sp)
    80609186:	eb79                	bnez	a4,8060925c <data7+0x25c>
    80609188:	f941                	bnez	a0,80609118 <data7+0x118>
    8060918a:	7be2                	ld	s7,56(sp)
    8060918c:	4c003227          	fsd	ft0,1220(zero) # 4c4 <_start-0x7ffffb3c>
    80609190:	4a0c                	lw	a1,16(a2)
    80609192:	c54a                	sw	s2,136(sp)
    80609194:	775c                	ld	a5,168(a4)
    80609196:	2b9e                	fld	fs7,448(sp)
    80609198:	80f4                	0x80f4
    8060919a:	d4e5                	beqz	s1,80609182 <data7+0x182>
    8060919c:	496e                	lw	s2,216(sp)
    8060919e:	5d078c63          	beq	a5,a6,80609776 <data7+0x776>
    806091a2:	c464                	sw	s1,76(s0)
    806091a4:	2fc9                	addiw	t6,t6,18
    806091a6:	fd98                	sd	a4,56(a1)
    806091a8:	e33e                	sd	a5,384(sp)
    806091aa:	e8d0                	sd	a2,144(s1)
    806091ac:	27f0                	fld	fa2,200(a5)
    806091ae:	d2d0                	sw	a2,36(a3)
    806091b0:	4e32                	lw	t3,12(sp)
    806091b2:	f824                	sd	s1,112(s0)
    806091b4:	861f 8aff 8f2f      	0x8f2f8aff861f
    806091ba:	ac9e                	fsd	ft7,88(sp)
    806091bc:	5a44                	lw	s1,52(a2)
    806091be:	ca3a                	sw	a4,20(sp)
    806091c0:	1ba1                	addi	s7,s7,-24
    806091c2:	1f15                	addi	t5,t5,-27
    806091c4:	1aed                	addi	s5,s5,-5
    806091c6:	af86                	fsd	ft1,472(sp)
    806091c8:	a9a88eab          	0xa9a88eab
    806091cc:	6de4                	ld	s1,216(a1)
    806091ce:	527b9977          	0x527b9977
    806091d2:	01e1                	addi	gp,gp,24
    806091d4:	26699ce7          	0x26699ce7
    806091d8:	a18a44d3          	0xa18a44d3
    806091dc:	ccb8                	sw	a4,88(s1)
    806091de:	c86e                	sw	s11,16(sp)
    806091e0:	6ae4                	ld	s1,208(a3)
    806091e2:	89e09757          	0x89e09757
    806091e6:	0fdc                	addi	a5,sp,980
    806091e8:	66dd                	lui	a3,0x17
    806091ea:	0ada                	slli	s5,s5,0x16
    806091ec:	be3d                	j	80608d2a <data6+0xd2a>
    806091ee:	93a9                	srli	a5,a5,0x2a
    806091f0:	5626                	lw	a2,104(sp)
    806091f2:	e544ef4f          	0xe544ef4f
    806091f6:	96ba                	add	a3,a3,a4
    806091f8:	e8f2                	sd	t3,80(sp)
    806091fa:	64ec                	ld	a1,200(s1)
    806091fc:	0a7d849b          	addiw	s1,s11,167
    80609200:	2bb8                	fld	fa4,80(a5)
    80609202:	780a                	ld	a6,160(sp)
    80609204:	19da                	slli	s3,s3,0x36
    80609206:	d0d94a6f          	jal	s4,8059df12 <pre_attack1_end+0x19de16>
    8060920a:	09c0070f          	0x9c0070f
    8060920e:	f8c1                	bnez	s1,8060919e <data7+0x19e>
    80609210:	e3b9                	bnez	a5,80609256 <data7+0x256>
    80609212:	f0fc                	sd	a5,224(s1)
    80609214:	5e68c013          	xori	zero,a7,1510
    80609218:	4fa5                	li	t6,9
    8060921a:	9915                	andi	a0,a0,-27
    8060921c:	397d                	addiw	s2,s2,-1
    8060921e:	523e947b          	0x523e947b
    80609222:	d318                	sw	a4,32(a4)
    80609224:	b47d                	j	80608cd2 <data6+0xcd2>
    80609226:	7a6c                	ld	a1,240(a2)
    80609228:	3aa1                	addiw	s5,s5,-24
    8060922a:	e3ca                	sd	s2,448(sp)
    8060922c:	0ec9                	addi	t4,t4,18
    8060922e:	0011                	c.nop	4
    80609230:	92f64cdb          	0x92f64cdb
    80609234:	19a7fb97          	auipc	s7,0x19a7f
    80609238:	b882                	fsd	ft0,112(sp)
    8060923a:	ee0a                	sd	sp,280(sp)
    8060923c:	d23c6f3b          	0xd23c6f3b
    80609240:	e251                	bnez	a2,806092c4 <data7+0x2c4>
    80609242:	ad5f e760 08f0      	0x8f0e760ad5f
    80609248:	9a0c                	0x9a0c
    8060924a:	e71c                	sd	a5,8(a4)
    8060924c:	760e                	ld	a2,224(sp)
    8060924e:	2f9e                	fld	ft11,448(sp)
    80609250:	f76e                	sd	s11,424(sp)
    80609252:	2bbd                	addiw	s7,s7,15
    80609254:	1bbc                	addi	a5,sp,504
    80609256:	dd14                	sw	a3,56(a0)
    80609258:	f058                	sd	a4,160(s0)
    8060925a:	3c8d3dc7          	0x3c8d3dc7
    8060925e:	1f3a                	slli	t5,t5,0x2e
    80609260:	3a02                	fld	fs4,32(sp)
    80609262:	16438aab          	0x16438aab
    80609266:	8314                	0x8314
    80609268:	bb9a                	fsd	ft6,496(sp)
    8060926a:	8520                	0x8520
    8060926c:	5f5f ceaa 00f1      	0xf1ceaa5f5f
    80609272:	374474b3          	0x374474b3
    80609276:	5181                	li	gp,-32
    80609278:	6c65                	lui	s8,0x19
    8060927a:	fc4a8d17          	auipc	s10,0xfc4a8
    8060927e:	0c05                	addi	s8,s8,1
    80609280:	f814                	sd	a3,48(s0)
    80609282:	72b0                	ld	a2,96(a3)
    80609284:	68b9                	lui	a7,0xe
    80609286:	499c                	lw	a5,16(a1)
    80609288:	d161                	beqz	a0,80609248 <data7+0x248>
    8060928a:	e3d5                	bnez	a5,8060932e <data7+0x32e>
    8060928c:	58b5                	li	a7,-19
    8060928e:	9594                	0x9594
    80609290:	1550                	addi	a2,sp,676
    80609292:	467d                	li	a2,31
    80609294:	2d01                	sext.w	s10,s10
    80609296:	301e                	fld	ft0,480(sp)
    80609298:	1fc5                	addi	t6,t6,-15
    8060929a:	73565183          	lhu	gp,1845(a2) # ffffffffffff2735 <secret+0xffffffff7f3f2735>
    8060929e:	6f60                	ld	s0,216(a4)
    806092a0:	ad2e                	fsd	fa1,152(sp)
    806092a2:	5f7ef1d3          	0x5f7ef1d3
    806092a6:	34a4                	fld	fs1,104(s1)
    806092a8:	df3e9607          	0xdf3e9607
    806092ac:	ebfe                	sd	t6,464(sp)
    806092ae:	5f90                	lw	a2,56(a5)
    806092b0:	feed                	bnez	a3,806092aa <data7+0x2aa>
    806092b2:	1868                	addi	a0,sp,60
    806092b4:	9afa357b          	0x9afa357b
    806092b8:	aaaafc47          	fmsub.d	fs8,fs5,fa0,fs5
    806092bc:	9bbf108b          	0x9bbf108b
    806092c0:	fa08                	sd	a0,48(a2)
    806092c2:	83c9                	srli	a5,a5,0x12
    806092c4:	f89f 960c e0e4      	0xe0e4960cf89f
    806092ca:	0a3c                	addi	a5,sp,280
    806092cc:	1a0c                	addi	a1,sp,304
    806092ce:	bd86                	fsd	ft1,248(sp)
    806092d0:	a546                	fsd	fa7,136(sp)
    806092d2:	6dc5                	lui	s11,0x11
    806092d4:	ae52                	fsd	fs4,280(sp)
    806092d6:	75ea                	ld	a1,184(sp)
    806092d8:	25ba                	fld	fa1,392(sp)
    806092da:	3e2d076b          	0x3e2d076b
    806092de:	8bfc                	0x8bfc
    806092e0:	ac15                	j	80609514 <data7+0x514>
    806092e2:	c654                	sw	a3,12(a2)
    806092e4:	420c                	lw	a1,0(a2)
    806092e6:	38a0                	fld	fs0,112(s1)
    806092e8:	2caa                	fld	fs9,136(sp)
    806092ea:	d3353153          	0xd3353153
    806092ee:	8f74                	0x8f74
    806092f0:	e6a2                	sd	s0,328(sp)
    806092f2:	6bb1                	lui	s7,0xc
    806092f4:	31c8c4f7          	0x31c8c4f7
    806092f8:	bd79                	j	80609196 <data7+0x196>
    806092fa:	b086                	fsd	ft1,96(sp)
    806092fc:	e83f788f          	0xe83f788f
    80609300:	3190                	fld	fa2,32(a1)
    80609302:	b7ce                	fsd	fs3,488(sp)
    80609304:	d0b1                	beqz	s1,80609248 <data7+0x248>
    80609306:	2db0                	fld	fa2,88(a1)
    80609308:	4ad6                	lw	s5,84(sp)
    8060930a:	8db1                	xor	a1,a1,a2
    8060930c:	9c20                	0x9c20
    8060930e:	4e18                	lw	a4,24(a2)
    80609310:	2fd0                	fld	fa2,152(a5)
    80609312:	2cd5                	addiw	s9,s9,21
    80609314:	6918                	ld	a4,16(a0)
    80609316:	b77b12af          	0xb77b12af
    8060931a:	84f9                	srai	s1,s1,0x1e
    8060931c:	8d5d                	or	a0,a0,a5
    8060931e:	ab886b6f          	jal	s6,8058f5d6 <pre_attack1_end+0x18f4da>
    80609322:	5cda                	lw	s9,180(sp)
    80609324:	22a627cf          	fnmadd.d	fa5,fa2,fa0,ft4,rdn
    80609328:	2e46                	fld	ft8,80(sp)
    8060932a:	f651                	bnez	a2,806092b6 <data7+0x2b6>
    8060932c:	bfcc                	fsd	fa1,184(a5)
    8060932e:	50cd                	li	ra,-13
    80609330:	c2a5                	beqz	a3,80609390 <data7+0x390>
    80609332:	a735                	j	80609a5e <data7+0xa5e>
    80609334:	7ba9                	lui	s7,0xfffea
    80609336:	2934                	fld	fa3,80(a0)
    80609338:	5ee2                	lw	t4,56(sp)
    8060933a:	177fe9b7          	lui	s3,0x177fe
    8060933e:	76b6                	ld	a3,360(sp)
    80609340:	b188                	fsd	fa0,32(a1)
    80609342:	f8b5                	bnez	s1,806092b6 <data7+0x2b6>
    80609344:	a3bfa623          	sw	s11,-1492(t6) # b752fc90 <secret+0x3692fc90>
    80609348:	e520                	sd	s0,72(a0)
    8060934a:	1d7a411b          	0x1d7a411b
    8060934e:	e87d                	bnez	s0,80609444 <data7+0x444>
    80609350:	d3166b03          	lwu	s6,-719(a2)
    80609354:	5f0e6e3f 0787a52f 	0x787a52f5f0e6e3f
    8060935c:	db18                	sw	a4,48(a4)
    8060935e:	64e2                	ld	s1,24(sp)
    80609360:	31e0                	fld	fs0,224(a1)
    80609362:	e9f6                	sd	t4,208(sp)
    80609364:	5d61                	li	s10,-8
    80609366:	00c0                	addi	s0,sp,68
    80609368:	c2229753          	fcvt.l.d	a4,ft5,rtz
    8060936c:	0878                	addi	a4,sp,28
    8060936e:	5ae0                	lw	s0,116(a3)
    80609370:	2c39ca4b          	0x2c39ca4b
    80609374:	0765                	addi	a4,a4,25
    80609376:	112e12eb          	0x112e12eb
    8060937a:	4741                	li	a4,16
    8060937c:	5abf040f          	0x5abf040f
    80609380:	acca                	fsd	fs2,88(sp)
    80609382:	ba51                	j	80608d16 <data6+0xd16>
    80609384:	2b25678f          	0x2b25678f
    80609388:	e461b21b          	0xe461b21b
    8060938c:	9bb2                	add	s7,s7,a2
    8060938e:	cffc                	sw	a5,92(a5)
    80609390:	88d1                	andi	s1,s1,20
    80609392:	1776                	slli	a4,a4,0x3d
    80609394:	9128                	0x9128
    80609396:	08b9                	addi	a7,a7,14
    80609398:	5cc56adb          	0x5cc56adb
    8060939c:	a1e1                	j	80609864 <data7+0x864>
    8060939e:	14af19bb          	0x14af19bb
    806093a2:	1dde                	slli	s11,s11,0x37
    806093a4:	9460d5b3          	0x9460d5b3
    806093a8:	c21f 6346 11d2      	0x11d26346c21f
    806093ae:	25f8                	fld	fa4,200(a1)
    806093b0:	cf0a                	sw	sp,156(sp)
    806093b2:	ff4a                	sd	s2,440(sp)
    806093b4:	42f6                	lw	t0,92(sp)
    806093b6:	42e0                	lw	s0,68(a3)
    806093b8:	a9f6                	fsd	ft9,208(sp)
    806093ba:	17b6                	slli	a5,a5,0x2d
    806093bc:	3290                	fld	fa2,32(a3)
    806093be:	372ec20f          	0x372ec20f
    806093c2:	32717f8f          	0x32717f8f
    806093c6:	ae89                	j	80609718 <data7+0x718>
    806093c8:	4654                	lw	a3,12(a2)
    806093ca:	ced1                	beqz	a3,80609466 <data7+0x466>
    806093cc:	3c7329c3          	0x3c7329c3
    806093d0:	4430                	lw	a2,72(s0)
    806093d2:	c834d54b          	fnmsub.s	fa0,fs1,ft3,fs9,unknown
    806093d6:	0d2a                	slli	s10,s10,0xa
    806093d8:	96ac                	0x96ac
    806093da:	d334e227          	0xd334e227
    806093de:	249e                	fld	fs1,448(sp)
    806093e0:	e566                	sd	s9,136(sp)
    806093e2:	48d8                	lw	a4,20(s1)
    806093e4:	ca20                	sw	s0,80(a2)
    806093e6:	1a85                	addi	s5,s5,-31
    806093e8:	912a                	add	sp,sp,a0
    806093ea:	2595                	addiw	a1,a1,5
    806093ec:	59b6                	lw	s3,108(sp)
    806093ee:	93aa                	add	t2,t2,a0
    806093f0:	6568                	ld	a0,200(a0)
    806093f2:	7109                	addi	sp,sp,-384
    806093f4:	02cd                	addi	t0,t0,19
    806093f6:	c05e                	sw	s7,0(sp)
    806093f8:	b7a6                	fsd	fs1,488(sp)
    806093fa:	f8f2                	sd	t3,112(sp)
    806093fc:	7808                	ld	a0,48(s0)
    806093fe:	6fac                	ld	a1,88(a5)

Disassembly of section .text.receive:

0000000080800000 <receive>:
    80800000:	00000073          	ecall

Disassembly of section .data.secret:

0000000080c00000 <secret>:
    80c00000:	9bc9                	andi	a5,a5,-14
    80c00002:	94b8                	0x94b8
    80c00004:	3b05                	addiw	s6,s6,-31
    80c00006:	b6deb2e3          	0xb6deb2e3
    80c0000a:	56d8                	lw	a4,44(a3)
    80c0000c:	d5ebd71b          	0xd5ebd71b
    80c00010:	b580                	fsd	fs0,40(a1)
    80c00012:	5508                	lw	a0,40(a0)
    80c00014:	59bd                	li	s3,-17
    80c00016:	3b42                	fld	fs6,48(sp)
    80c00018:	1400                	addi	s0,sp,544
    80c0001a:	538f3f37          	lui	t5,0x538f3
    80c0001e:	115e                	slli	sp,sp,0x37
    80c00020:	f1bdfb77          	0xf1bdfb77
    80c00024:	06376a83          	lwu	s5,99(a4)
    80c00028:	6975                	lui	s2,0x1d
    80c0002a:	04424e2f          	0x4424e2f
    80c0002e:	5d40                	lw	s0,60(a0)
    80c00030:	2b66                	fld	fs6,88(sp)
    80c00032:	99f4                	0x99f4
    80c00034:	78b6                	ld	a7,360(sp)
    80c00036:	63e8                	ld	a0,192(a5)
    80c00038:	8b80                	0x8b80
    80c0003a:	32aa                	fld	ft5,168(sp)
    80c0003c:	50f5                	li	ra,-3
    80c0003e:	ccbec973          	0xccbec973
    80c00042:	0a561b47          	fmsub.d	fs6,fa2,ft5,ft1,rtz
    80c00046:	a816                	fsd	ft5,16(sp)
    80c00048:	623c                	ld	a5,64(a2)
    80c0004a:	2713363f a584a16f 	0xa584a16f2713363f
    80c00052:	6ab7e8c3          	fmadd.d	fa7,fa5,fa1,fa3,unknown
    80c00056:	bb16f7d3          	0xbb16f7d3
    80c0005a:	e48d                	bnez	s1,80c00084 <secret+0x84>
    80c0005c:	ae72fd8b          	0xae72fd8b
    80c00060:	e3ca                	sd	s2,448(sp)
    80c00062:	b130                	fsd	fa2,96(a0)
    80c00064:	38046437          	lui	s0,0x38046
    80c00068:	8b251f13          	0x8b251f13
    80c0006c:	7d5e                	ld	s10,496(sp)
    80c0006e:	67ac                	ld	a1,72(a5)
    80c00070:	3c20                	fld	fs0,120(s0)
    80c00072:	ce5f 8990 401b      	0x401b8990ce5f
    80c00078:	74f1                	lui	s1,0xffffc
    80c0007a:	bdb5                	j	80bffef6 <receive+0x3ffef6>
    80c0007c:	2b36                	fld	fs6,328(sp)
    80c0007e:	628a                	ld	t0,128(sp)
    80c00080:	c1da                	sw	s6,192(sp)
    80c00082:	2d65                	addiw	s10,s10,25
    80c00084:	72ae                	ld	t0,232(sp)
    80c00086:	e3a0                	sd	s0,64(a5)
    80c00088:	f091                	bnez	s1,80bfff8c <receive+0x3fff8c>
    80c0008a:	d3f26a63          	bltu	tp,t6,80bff5be <receive+0x3ff5be>
    80c0008e:	4a19                	li	s4,6
    80c00090:	dae9                	beqz	a3,80c00062 <secret+0x62>
    80c00092:	c5918363          	beq	gp,s9,80bff4d8 <receive+0x3ff4d8>
    80c00096:	fe64                	sd	s1,248(a2)
    80c00098:	3546                	fld	fa0,112(sp)
    80c0009a:	9498                	0x9498
    80c0009c:	e5188abb          	0xe5188abb
    80c000a0:	092e                	slli	s2,s2,0xb
    80c000a2:	2e88                	fld	fa0,24(a3)
    80c000a4:	692eb48f          	0x692eb48f
    80c000a8:	6176                	ld	sp,344(sp)
    80c000aa:	0366                	slli	t1,t1,0x19
    80c000ac:	e338bb4b          	fnmsub.d	fs6,fa7,fs3,ft8,rup
    80c000b0:	0946                	slli	s2,s2,0x11
    80c000b2:	c9b8                	sw	a4,80(a1)
    80c000b4:	f9c4                	sd	s1,176(a1)
    80c000b6:	0535                	addi	a0,a0,13
    80c000b8:	57f9                	li	a5,-2
    80c000ba:	0849                	addi	a6,a6,18
    80c000bc:	bd2e                	fsd	fa1,184(sp)
    80c000be:	bd9f c09a 5fa1      	0x5fa1c09abd9f
    80c000c4:	4fff30f7          	0x4fff30f7
    80c000c8:	0a19                	addi	s4,s4,6
    80c000ca:	ade6                	fsd	fs9,216(sp)
    80c000cc:	bb51                	j	80bffe60 <receive+0x3ffe60>
    80c000ce:	969a                	add	a3,a3,t1
    80c000d0:	2ec4                	fld	fs1,152(a3)
    80c000d2:	b6b4846b          	0xb6b4846b
    80c000d6:	a81a                	fsd	ft6,16(sp)
    80c000d8:	297e                	fld	fs2,472(sp)
    80c000da:	e758                	sd	a4,136(a4)
    80c000dc:	a688                	fsd	fa0,8(a3)
    80c000de:	90d5                	srli	s1,s1,0x35
    80c000e0:	d0dc                	sw	a5,36(s1)
    80c000e2:	bc3e                	fsd	fa5,56(sp)
    80c000e4:	6d3e                	ld	s10,456(sp)
    80c000e6:	9d5c                	0x9d5c
    80c000e8:	2d9f 9bd6 5d42      	0x5d429bd62d9f
    80c000ee:	b7ac                	fsd	fa1,104(a5)
    80c000f0:	452a                	lw	a0,136(sp)
    80c000f2:	8cfe                	mv	s9,t6
    80c000f4:	1fba                	slli	t6,t6,0x2e
    80c000f6:	f44d                	bnez	s0,80c000a0 <secret+0xa0>
    80c000f8:	f3bff7db          	0xf3bff7db
    80c000fc:	d156                	sw	s5,160(sp)
    80c000fe:	5040                	lw	s0,36(s0)
    80c00100:	f990                	sd	a2,48(a1)
    80c00102:	6722                	ld	a4,8(sp)
    80c00104:	05a6                	slli	a1,a1,0x9
    80c00106:	75eee6db          	0x75eee6db
    80c0010a:	2cfd                	addiw	s9,s9,31
    80c0010c:	5c5d                	li	s8,-9
    80c0010e:	a384                	fsd	fs1,0(a5)
    80c00110:	a5b2c0a3          	0xa5b2c0a3
    80c00114:	9101                	srli	a0,a0,0x20
    80c00116:	f098                	sd	a4,32(s1)
    80c00118:	fefc                	sd	a5,248(a3)
    80c0011a:	e6fbb1cf          	fnmadd.q	ft3,fs7,fa5,ft8,rup
    80c0011e:	7dbd                	lui	s11,0xfffef
    80c00120:	76477973          	csrrci	s2,0x764,14
    80c00124:	5ff5                	li	t6,-3
    80c00126:	ce323a13          	sltiu	s4,tp,-797
    80c0012a:	47c5                	li	a5,17
    80c0012c:	99ce                	add	s3,s3,s3
    80c0012e:	f950                	sd	a2,176(a0)
    80c00130:	0b28dcf7          	0xb28dcf7
    80c00134:	efe9                	bnez	a5,80c0020e <secret+0x20e>
    80c00136:	a7d4                	fsd	fa3,136(a5)
    80c00138:	e5c5                	bnez	a1,80c001e0 <secret+0x1e0>
    80c0013a:	2584                	fld	fs1,8(a1)
    80c0013c:	5299                	li	t0,-26
    80c0013e:	58b1                	li	a7,-20
    80c00140:	b6b8                	fsd	fa4,104(a3)
    80c00142:	ce26                	sw	s1,28(sp)
    80c00144:	dc25                	beqz	s0,80c000bc <secret+0xbc>
    80c00146:	9736                	add	a4,a4,a3
    80c00148:	bbd99747          	fmsub.d	fa4,fs3,ft9,fs7,rtz
    80c0014c:	1486                	slli	s1,s1,0x21
    80c0014e:	ab46                	fsd	fa7,400(sp)
    80c00150:	2d55                	addiw	s10,s10,21
    80c00152:	2268                	fld	fa0,192(a2)
    80c00154:	5415bfd3          	0x5415bfd3
    80c00158:	811f ff77 52bd      	0x52bdff77811f
    80c0015e:	9564                	0x9564
    80c00160:	12b4                	addi	a3,sp,360
    80c00162:	f088e223          	0xf088e223
    80c00166:	f112                	sd	tp,160(sp)
    80c00168:	2dfa                	fld	fs11,408(sp)
    80c0016a:	4a8e8b07          	0x4a8e8b07
    80c0016e:	4b4ad933          	0x4b4ad933
    80c00172:	07f0                	addi	a2,sp,972
    80c00174:	12c6                	slli	t0,t0,0x31
    80c00176:	3e25                	addiw	t3,t3,-23
    80c00178:	9359                	srli	a4,a4,0x36
    80c0017a:	aa167943          	fmadd.d	fs2,fa2,ft1,fs5
    80c0017e:	89f47313          	andi	t1,s0,-1889
    80c00182:	ec0db3b7          	lui	t2,0xec0db
    80c00186:	abcc553b          	0xabcc553b
    80c0018a:	affd                	j	80c00988 <secret+0x988>
    80c0018c:	fc78                	sd	a4,248(s0)
    80c0018e:	fc14                	sd	a3,56(s0)
    80c00190:	7cf0a7ef          	jal	a5,80c0b15e <secret+0xb15e>
    80c00194:	1d4c                	addi	a1,sp,692
    80c00196:	6f1a                	ld	t5,384(sp)
    80c00198:	9a62                	add	s4,s4,s8
    80c0019a:	14571303          	lh	t1,325(a4)
    80c0019e:	af7f                	0xaf7f
    80c001a0:	a03d                	j	80c001ce <secret+0x1ce>
    80c001a2:	0d910fcb          	0xd910fcb
    80c001a6:	c798                	sw	a4,8(a5)
    80c001a8:	61c9                	lui	gp,0x12
    80c001aa:	364d                	addiw	a2,a2,-13
    80c001ac:	5430                	lw	a2,104(s0)
    80c001ae:	912f614f          	fnmadd.s	ft2,ft10,fs2,fs2,unknown
    80c001b2:	ccc4                	sw	s1,28(s1)
    80c001b4:	091997f7          	0x91997f7
    80c001b8:	5725                	li	a4,-23
    80c001ba:	406a                	0x406a
    80c001bc:	0780                	addi	s0,sp,960
    80c001be:	ea90                	sd	a2,16(a3)
    80c001c0:	1966                	slli	s2,s2,0x39
    80c001c2:	df0c                	sw	a1,56(a4)
    80c001c4:	71825bef          	jal	s7,80c258dc <secret+0x258dc>
    80c001c8:	33b4                	fld	fa3,96(a5)
    80c001ca:	9ae6                	add	s5,s5,s9
    80c001cc:	981f 92c6 a689      	0xa68992c6981f
    80c001d2:	f04cea8f          	0xf04cea8f
    80c001d6:	889e6503          	lwu	a0,-1911(t3) # fffffffffffe3889 <secret+0xffffffff7f3e3889>
    80c001da:	0742                	slli	a4,a4,0x10
    80c001dc:	630c0b03          	lb	s6,1584(s8) # 19630 <_start-0x7ffe69d0>
    80c001e0:	d369                	beqz	a4,80c001a2 <secret+0x1a2>
    80c001e2:	397e                	fld	fs2,504(sp)
    80c001e4:	8266                	mv	tp,s9
    80c001e6:	d330                	sw	a2,96(a4)
    80c001e8:	6e652343          	fmadd.q	ft6,fa0,ft6,fa3,rdn
    80c001ec:	d5fe7f67          	0xd5fe7f67
    80c001f0:	73c6                	ld	t2,112(sp)
    80c001f2:	cf3c                	sw	a5,88(a4)
    80c001f4:	7ec1                	lui	t4,0xffff0
    80c001f6:	bb25                	j	80bfff2e <receive+0x3fff2e>
    80c001f8:	4809                	li	a6,2
    80c001fa:	e95d40a3          	0xe95d40a3
    80c001fe:	5b1c                	lw	a5,48(a4)
    80c00200:	1e56                	slli	t3,t3,0x35
    80c00202:	744d                	lui	s0,0xffff3
    80c00204:	33dc                	fld	fa5,160(a5)
    80c00206:	0b6d                	addi	s6,s6,27
    80c00208:	ed40                	sd	s0,152(a0)
    80c0020a:	51ba                	lw	gp,172(sp)
    80c0020c:	3031                	0x3031
    80c0020e:	b431                	j	80bffc1a <receive+0x3ffc1a>
    80c00210:	c928                	sw	a0,80(a0)
    80c00212:	57d4                	lw	a3,44(a5)
    80c00214:	b6de                	fsd	fs7,360(sp)
    80c00216:	1e5a                	slli	t3,t3,0x36
    80c00218:	80d4                	0x80d4
    80c0021a:	74e1                	lui	s1,0xffff8
    80c0021c:	40c4                	lw	s1,4(s1)
    80c0021e:	7f994f4f          	fnmadd.q	ft10,fs2,fs9,fa5,rmm
    80c00222:	6054                	ld	a3,128(s0)
    80c00224:	35f6                	fld	fa1,376(sp)
    80c00226:	1ba6                	slli	s7,s7,0x29
    80c00228:	662d                	lui	a2,0xb
    80c0022a:	e776                	sd	t4,392(sp)
    80c0022c:	78b6                	ld	a7,360(sp)
    80c0022e:	4098                	lw	a4,0(s1)
    80c00230:	28ae                	fld	fa7,200(sp)
    80c00232:	eb6a                	sd	s10,400(sp)
    80c00234:	ac91156f          	jal	a0,80b11cfc <receive+0x311cfc>
    80c00238:	2114                	fld	fa3,0(a0)
    80c0023a:	667f                	0x667f
    80c0023c:	86a6                	mv	a3,s1
    80c0023e:	bbac                	fsd	fa1,112(a5)
    80c00240:	668e                	ld	a3,192(sp)
    80c00242:	7901                	lui	s2,0xfffe0
    80c00244:	1ec9                	addi	t4,t4,-14
    80c00246:	daa7b12b          	0xdaa7b12b
    80c0024a:	be752403          	lw	s0,-1049(a0)
    80c0024e:	1424                	addi	s1,sp,552
    80c00250:	faf4b723          	sd	a5,-82(s1) # ffffffffffff7fae <secret+0xffffffff7f3f7fae>
    80c00254:	00d1                	addi	ra,ra,20
    80c00256:	c07d                	beqz	s0,80c0033c <secret+0x33c>
    80c00258:	1e3d                	addi	t3,t3,-17
    80c0025a:	d50c                	sw	a1,40(a0)
    80c0025c:	d1c4                	sw	s1,36(a1)
    80c0025e:	1e48                	addi	a0,sp,820
    80c00260:	dbdc                	sw	a5,52(a5)
    80c00262:	e815                	bnez	s0,80c00296 <secret+0x296>
    80c00264:	ef5a                	sd	s6,408(sp)
    80c00266:	be2a                	fsd	fa0,312(sp)
    80c00268:	d7b94f43          	fmadd.q	ft10,fs2,fs11,fs10,rmm
    80c0026c:	3456                	fld	fs0,368(sp)
    80c0026e:	f778                	sd	a4,232(a4)
    80c00270:	31b5398b          	0x31b5398b
    80c00274:	b718                	fsd	fa4,40(a4)
    80c00276:	a4612de3          	0xa4612de3
    80c0027a:	3035                	0x3035
    80c0027c:	6746                	ld	a4,80(sp)
    80c0027e:	f4b6                	sd	a3,104(sp)
    80c00280:	9a2a                	add	s4,s4,a0
    80c00282:	8ba2                	mv	s7,s0
    80c00284:	2a15                	addiw	s4,s4,5
    80c00286:	532c                	lw	a1,96(a4)
    80c00288:	2d36                	fld	fs10,328(sp)
    80c0028a:	14bf873f 3fa8abc0 	0x3fa8abc014bf873f
    80c00292:	25c0                	fld	fs0,136(a1)
    80c00294:	3c3d6ba7          	0x3c3d6ba7
    80c00298:	eab5                	bnez	a3,80c0030c <secret+0x30c>
    80c0029a:	6e79                	lui	t3,0x1e
    80c0029c:	b54c                	fsd	fa1,168(a0)
    80c0029e:	c6a2                	sw	s0,76(sp)
    80c002a0:	2970                	fld	fa2,208(a0)
    80c002a2:	f110                	sd	a2,32(a0)
    80c002a4:	c869                	beqz	s0,80c00376 <secret+0x376>
    80c002a6:	571ae253          	0x571ae253
    80c002aa:	d710                	sw	a2,40(a4)
    80c002ac:	ec71                	bnez	s0,80c00388 <secret+0x388>
    80c002ae:	9673c1c7          	fmsub.q	ft3,ft7,ft7,fs2,rmm
    80c002b2:	2aa0795b          	0x2aa0795b
    80c002b6:	7532                	ld	a0,296(sp)
    80c002b8:	2962                	fld	fs2,24(sp)
    80c002ba:	cf1e6e43          	fmadd.q	ft8,ft8,fa7,fs9,unknown
    80c002be:	7090                	ld	a2,32(s1)
    80c002c0:	7df4                	ld	a3,248(a1)
    80c002c2:	3096                	fld	ft1,352(sp)
    80c002c4:	8be4                	0x8be4
    80c002c6:	5104                	lw	s1,32(a0)
    80c002c8:	11c4                	addi	s1,sp,228
    80c002ca:	dfe1                	beqz	a5,80c002a2 <secret+0x2a2>
    80c002cc:	fec6                	sd	a7,376(sp)
    80c002ce:	61ba                	ld	gp,392(sp)
    80c002d0:	f462                	sd	s8,40(sp)
    80c002d2:	7ed4                	ld	a3,184(a3)
    80c002d4:	3fd0                	fld	fa2,184(a5)
    80c002d6:	9665e3cf          	fnmadd.q	ft7,fa1,ft6,fs2,unknown
    80c002da:	b232                	fsd	fa2,288(sp)
    80c002dc:	4119                	li	sp,6
    80c002de:	1b7c                	addi	a5,sp,444
    80c002e0:	d090                	sw	a2,32(s1)
    80c002e2:	c78d                	beqz	a5,80c0030c <secret+0x30c>
    80c002e4:	75a1                	lui	a1,0xfffe8
    80c002e6:	a0b5                	j	80c00352 <secret+0x352>
    80c002e8:	2ea0                	fld	fs0,88(a3)
    80c002ea:	ae41                	j	80c0067a <secret+0x67a>
    80c002ec:	5e675f73          	csrrwi	t5,0x5e6,14
    80c002f0:	e91f 5213 e2f6      	0xe2f65213e91f
    80c002f6:	ebc0                	sd	s0,144(a5)
    80c002f8:	05d9                	addi	a1,a1,22
    80c002fa:	241680bb          	0x241680bb
    80c002fe:	0d56a5f3          	csrrs	a1,0xd5,a3
    80c00302:	a1731ed3          	flt.s	t4,ft6,fs7
    80c00306:	1a6e                	slli	s4,s4,0x3b
    80c00308:	eb4d                	bnez	a4,80c003ba <secret+0x3ba>
    80c0030a:	eddd                	bnez	a1,80c003c8 <secret+0x3c8>
    80c0030c:	6ebe                	ld	t4,456(sp)
    80c0030e:	0eed239b          	0xeed239b
    80c00312:	d0f4                	sw	a3,100(s1)
    80c00314:	0b4c                	addi	a1,sp,404
    80c00316:	798c44e3          	blt	s8,s8,80c0129e <secret+0x129e>
    80c0031a:	2568                	fld	fa0,200(a0)
    80c0031c:	cf0c                	sw	a1,24(a4)
    80c0031e:	f28c                	sd	a1,32(a3)
    80c00320:	b65f 1a7d 3ba7      	0x3ba71a7db65f
    80c00326:	3176                	fld	ft2,376(sp)
    80c00328:	af11                	j	80c00a3c <secret+0xa3c>
    80c0032a:	7611                	lui	a2,0xfffe4
    80c0032c:	038b5f63          	bge	s6,s8,80c0036a <secret+0x36a>
    80c00330:	5e4e                	lw	t3,240(sp)
    80c00332:	ae06                	fsd	ft1,280(sp)
    80c00334:	65b8                	ld	a4,72(a1)
    80c00336:	3882                	fld	fa7,32(sp)
    80c00338:	63dd                	lui	t2,0x17
    80c0033a:	d9e5                	beqz	a1,80c0032a <secret+0x32a>
    80c0033c:	1c93ccb7          	lui	s9,0x1c93c
    80c00340:	c45f f9a0 ea58      	0xea58f9a0c45f
    80c00346:	6b90                	ld	a2,16(a5)
    80c00348:	981766e3          	bltu	a4,ra,80bffcd4 <receive+0x3ffcd4>
    80c0034c:	ccb1                	beqz	s1,80c003a8 <secret+0x3a8>
    80c0034e:	cf83e6eb          	0xcf83e6eb
    80c00352:	adbd                	j	80c009d0 <secret+0x9d0>
    80c00354:	eb921d73          	csrrw	s10,0xeb9,tp
    80c00358:	a44374f3          	csrrci	s1,0xa44,6
    80c0035c:	7c6e                	ld	s8,248(sp)
    80c0035e:	ff73a04f          	fnmadd.q	ft0,ft7,fs7,ft11,rdn
    80c00362:	256a                	fld	fa0,152(sp)
    80c00364:	645a6d17          	auipc	s10,0x645a6
    80c00368:	bdfe                	fsd	ft11,248(sp)
    80c0036a:	1fd6                	slli	t6,t6,0x35
    80c0036c:	621a                	ld	tp,384(sp)
    80c0036e:	353db5ab          	0x353db5ab
    80c00372:	87d4                	0x87d4
    80c00374:	f65d                	bnez	a2,80c00322 <secret+0x322>
    80c00376:	1450                	addi	a2,sp,548
    80c00378:	e9d0                	sd	a2,144(a1)
    80c0037a:	4c48                	lw	a0,28(s0)
    80c0037c:	95df e6db 6326      	0x6326e6db95df
    80c00382:	c9533203          	ld	tp,-875(t1) # dc95 <_start-0x7fff236b>
    80c00386:	eddf e6c6 06e6      	0x6e6e6c6eddf
    80c0038c:	762d                	lui	a2,0xfffeb
    80c0038e:	4ab1                	li	s5,12
    80c00390:	3301                	addiw	t1,t1,-32
    80c00392:	edfa                	sd	t5,216(sp)
    80c00394:	aaca                	fsd	fs2,336(sp)
    80c00396:	5b0a                	lw	s6,160(sp)
    80c00398:	8ecd                	or	a3,a3,a1
    80c0039a:	f7f76643          	fmadd.q	fa2,fa4,ft11,ft10,unknown
    80c0039e:	c070                	sw	a2,68(s0)
    80c003a0:	6664                	ld	s1,200(a2)
    80c003a2:	054c                	addi	a1,sp,644
    80c003a4:	568d                	li	a3,-29
    80c003a6:	625d                	lui	tp,0x17
    80c003a8:	f0e5                	bnez	s1,80c00388 <secret+0x388>
    80c003aa:	f064                	sd	s1,224(s0)
    80c003ac:	0231                	addi	tp,tp,12
    80c003ae:	350d                	addiw	a0,a0,-29
    80c003b0:	6bff0e4f          	fnmadd.d	ft8,ft10,ft11,fa3,rne
    80c003b4:	ed5e                	sd	s7,152(sp)
    80c003b6:	a3fe                	fsd	ft11,448(sp)
    80c003b8:	590d                	li	s2,-29
    80c003ba:	cb91                	beqz	a5,80c003ce <secret+0x3ce>
    80c003bc:	93a86ef3          	csrrsi	t4,0x93a,16
    80c003c0:	d004                	sw	s1,32(s0)
    80c003c2:	0dd4bacf          	0xdd4bacf
    80c003c6:	aa38                	fsd	fa4,80(a2)
    80c003c8:	6784                	ld	s1,8(a5)
    80c003ca:	9d437a43          	0x9d437a43
    80c003ce:	928d                	srli	a3,a3,0x23
    80c003d0:	1e51                	addi	t3,t3,-12
    80c003d2:	9d55                	0x9d55
    80c003d4:	a908                	fsd	fa0,16(a0)
    80c003d6:	62c5                	lui	t0,0x11
    80c003d8:	edee                	sd	s11,216(sp)
    80c003da:	b769                	j	80c00364 <secret+0x364>
    80c003dc:	4546                	lw	a0,80(sp)
    80c003de:	060ce833          	0x60ce833
    80c003e2:	e566                	sd	s9,136(sp)
    80c003e4:	6cc5d2e3          	bge	a1,a2,80c012a8 <secret+0x12a8>
    80c003e8:	647a                	ld	s0,408(sp)
    80c003ea:	5109                	li	sp,-30
    80c003ec:	84b2                	mv	s1,a2
    80c003ee:	9578                	0x9578
    80c003f0:	5f3dfccf          	fnmadd.q	fs9,fs11,fs3,fa1
    80c003f4:	02c1                	addi	t0,t0,16
    80c003f6:	be938907          	0xbe938907
    80c003fa:	8514                	0x8514
    80c003fc:	f092                	sd	tp,96(sp)
    80c003fe:	2249                	addiw	tp,tp,18
	...

Disassembly of section .riscv.attributes:

0000000000000000 <.riscv.attributes>:
   0:	2f41                	addiw	t5,t5,16
   2:	0000                	unimp
   4:	7200                	ld	s0,32(a2)
   6:	7369                	lui	t1,0xffffa
   8:	01007663          	bgeu	zero,a6,14 <_start-0x7fffffec>
   c:	0025                	c.nop	9
   e:	0000                	unimp
  10:	1004                	addi	s1,sp,32
  12:	7205                	lui	tp,0xfffe1
  14:	3676                	fld	fa2,376(sp)
  16:	6934                	ld	a3,80(a0)
  18:	7032                	0x7032
  1a:	5f30                	lw	a2,120(a4)
  1c:	326d                	addiw	tp,tp,-5
  1e:	3070                	fld	fa2,224(s0)
  20:	615f 7032 5f30      	0x5f307032615f
  26:	3266                	fld	ft4,120(sp)
  28:	3070                	fld	fa2,224(s0)
  2a:	645f 7032 0030      	0x307032645f

Disassembly of section .comment:

0000000000000000 <.comment>:
   0:	3a434347          	fmsub.d	ft6,ft6,ft4,ft7,rmm
   4:	2820                	fld	fs0,80(s0)
   6:	2029                	0x2029
   8:	2e39                	addiw	t3,t3,14
   a:	00302e33          	sgtz	t3,gp

Disassembly of section .debug_line:

0000000000000000 <.debug_line>:
   0:	0aed                	addi	s5,s5,27
   2:	0000                	unimp
   4:	00470003          	lb	zero,4(a4)
   8:	0000                	unimp
   a:	0101                	addi	sp,sp,0
   c:	000d0efb          	0xd0efb
  10:	0101                	addi	sp,sp,0
  12:	0101                	addi	sp,sp,0
  14:	0000                	unimp
  16:	0100                	addi	s0,sp,128
  18:	0000                	unimp
  1a:	2f01                	sext.w	t5,t5
  1c:	6f72                	ld	t5,280(sp)
  1e:	732f746f          	jal	s0,f7750 <_start-0x7ff088b0>
  22:	6570                	ld	a2,200(a0)
  24:	636f6463          	bltu	t5,s6,64c <_start-0x7ffff9b4>
  28:	6f74                	ld	a3,216(a4)
  2a:	2f72                	fld	ft10,280(sp)
  2c:	7546                	ld	a0,112(sp)
  2e:	7a7a                	ld	s4,440(sp)
  30:	7265                	lui	tp,0xffff9
  32:	6570732f          	0x6570732f
  36:	636f6463          	bltu	t5,s6,65e <_start-0x7ffff9a2>
  3a:	6f74                	ld	a3,216(a4)
  3c:	0072                	c.slli	zero,0x1c
  3e:	2e00                	fld	fs0,24(a2)
  40:	3374                	fld	fa3,224(a4)
  42:	695f 706e 7475      	0x7475706e695f
  48:	305f 532e 0100      	0x100532e305f
  4e:	0000                	unimp
  50:	0000                	unimp
  52:	0209                	addi	tp,tp,2
  54:	0000                	unimp
  56:	8000                	0x8000
  58:	0000                	unimp
  5a:	0000                	unimp
  5c:	03013703          	ld	a4,48(sp) # 28e2e030 <_start-0x571d1fd0>
  60:	0905                	addi	s2,s2,1
  62:	0004                	0x4
  64:	0301                	addi	t1,t1,0
  66:	0905                	addi	s2,s2,1
  68:	0004                	0x4
  6a:	0301                	addi	t1,t1,0
  6c:	0901                	addi	s2,s2,0
  6e:	0004                	0x4
  70:	0301                	addi	t1,t1,0
  72:	0901                	addi	s2,s2,0
  74:	0004                	0x4
  76:	0301                	addi	t1,t1,0
  78:	0901                	addi	s2,s2,0
  7a:	0004                	0x4
  7c:	0301                	addi	t1,t1,0
  7e:	0901                	addi	s2,s2,0
  80:	0004                	0x4
  82:	0301                	addi	t1,t1,0
  84:	0901                	addi	s2,s2,0
  86:	0004                	0x4
  88:	0301                	addi	t1,t1,0
  8a:	0909                	addi	s2,s2,2
  8c:	0004                	0x4
  8e:	0301                	addi	t1,t1,0
  90:	0902                	c.slli64	s2
  92:	0004                	0x4
  94:	0301                	addi	t1,t1,0
  96:	0915                	addi	s2,s2,5
  98:	0014                	0x14
  9a:	0301                	addi	t1,t1,0
  9c:	0901                	addi	s2,s2,0
  9e:	0004                	0x4
  a0:	0301                	addi	t1,t1,0
  a2:	0901                	addi	s2,s2,0
  a4:	0004                	0x4
  a6:	0301                	addi	t1,t1,0
  a8:	0901                	addi	s2,s2,0
  aa:	0004                	0x4
  ac:	0301                	addi	t1,t1,0
  ae:	0901                	addi	s2,s2,0
  b0:	0004                	0x4
  b2:	0301                	addi	t1,t1,0
  b4:	0904                	addi	s1,sp,144
  b6:	0004                	0x4
  b8:	0301                	addi	t1,t1,0
  ba:	0904                	addi	s1,sp,144
  bc:	0014                	0x14
  be:	0301                	addi	t1,t1,0
  c0:	0902                	c.slli64	s2
  c2:	0004                	0x4
  c4:	0301                	addi	t1,t1,0
  c6:	00040903          	lb	s2,0(s0) # ffffffffffff3000 <secret+0xffffffff7f3f3000>
  ca:	0301                	addi	t1,t1,0
  cc:	0901                	addi	s2,s2,0
  ce:	0004                	0x4
  d0:	0301                	addi	t1,t1,0
  d2:	0901                	addi	s2,s2,0
  d4:	0004                	0x4
  d6:	0301                	addi	t1,t1,0
  d8:	0901                	addi	s2,s2,0
  da:	0004                	0x4
  dc:	0301                	addi	t1,t1,0
  de:	0901                	addi	s2,s2,0
  e0:	0004                	0x4
  e2:	0301                	addi	t1,t1,0
  e4:	0901                	addi	s2,s2,0
  e6:	0004                	0x4
  e8:	0301                	addi	t1,t1,0
  ea:	0901                	addi	s2,s2,0
  ec:	0004                	0x4
  ee:	0301                	addi	t1,t1,0
  f0:	0901                	addi	s2,s2,0
  f2:	0004                	0x4
  f4:	0301                	addi	t1,t1,0
  f6:	0901                	addi	s2,s2,0
  f8:	0004                	0x4
  fa:	0301                	addi	t1,t1,0
  fc:	0901                	addi	s2,s2,0
  fe:	0004                	0x4
 100:	0301                	addi	t1,t1,0
 102:	0901                	addi	s2,s2,0
 104:	0004                	0x4
 106:	0301                	addi	t1,t1,0
 108:	0901                	addi	s2,s2,0
 10a:	0004                	0x4
 10c:	0301                	addi	t1,t1,0
 10e:	0901                	addi	s2,s2,0
 110:	0004                	0x4
 112:	0301                	addi	t1,t1,0
 114:	0901                	addi	s2,s2,0
 116:	0004                	0x4
 118:	0301                	addi	t1,t1,0
 11a:	0901                	addi	s2,s2,0
 11c:	0004                	0x4
 11e:	0301                	addi	t1,t1,0
 120:	0901                	addi	s2,s2,0
 122:	0004                	0x4
 124:	0301                	addi	t1,t1,0
 126:	0901                	addi	s2,s2,0
 128:	0004                	0x4
 12a:	0301                	addi	t1,t1,0
 12c:	0901                	addi	s2,s2,0
 12e:	0004                	0x4
 130:	0301                	addi	t1,t1,0
 132:	0901                	addi	s2,s2,0
 134:	0004                	0x4
 136:	0301                	addi	t1,t1,0
 138:	0901                	addi	s2,s2,0
 13a:	0004                	0x4
 13c:	0301                	addi	t1,t1,0
 13e:	0901                	addi	s2,s2,0
 140:	0004                	0x4
 142:	0301                	addi	t1,t1,0
 144:	0901                	addi	s2,s2,0
 146:	0004                	0x4
 148:	0301                	addi	t1,t1,0
 14a:	0901                	addi	s2,s2,0
 14c:	0004                	0x4
 14e:	0301                	addi	t1,t1,0
 150:	0901                	addi	s2,s2,0
 152:	0004                	0x4
 154:	0301                	addi	t1,t1,0
 156:	0901                	addi	s2,s2,0
 158:	0004                	0x4
 15a:	0301                	addi	t1,t1,0
 15c:	0901                	addi	s2,s2,0
 15e:	0004                	0x4
 160:	0301                	addi	t1,t1,0
 162:	0901                	addi	s2,s2,0
 164:	0004                	0x4
 166:	0301                	addi	t1,t1,0
 168:	0901                	addi	s2,s2,0
 16a:	0004                	0x4
 16c:	0301                	addi	t1,t1,0
 16e:	0901                	addi	s2,s2,0
 170:	0004                	0x4
 172:	0301                	addi	t1,t1,0
 174:	0901                	addi	s2,s2,0
 176:	0004                	0x4
 178:	0301                	addi	t1,t1,0
 17a:	0901                	addi	s2,s2,0
 17c:	0004                	0x4
 17e:	0301                	addi	t1,t1,0
 180:	0904                	addi	s1,sp,144
 182:	0004                	0x4
 184:	0301                	addi	t1,t1,0
 186:	0901                	addi	s2,s2,0
 188:	0004                	0x4
 18a:	0301                	addi	t1,t1,0
 18c:	0901                	addi	s2,s2,0
 18e:	0004                	0x4
 190:	0301                	addi	t1,t1,0
 192:	0901                	addi	s2,s2,0
 194:	0004                	0x4
 196:	0301                	addi	t1,t1,0
 198:	0901                	addi	s2,s2,0
 19a:	0004                	0x4
 19c:	0301                	addi	t1,t1,0
 19e:	0901                	addi	s2,s2,0
 1a0:	0004                	0x4
 1a2:	0301                	addi	t1,t1,0
 1a4:	0901                	addi	s2,s2,0
 1a6:	0004                	0x4
 1a8:	0301                	addi	t1,t1,0
 1aa:	0901                	addi	s2,s2,0
 1ac:	0004                	0x4
 1ae:	0301                	addi	t1,t1,0
 1b0:	0901                	addi	s2,s2,0
 1b2:	0004                	0x4
 1b4:	0301                	addi	t1,t1,0
 1b6:	0901                	addi	s2,s2,0
 1b8:	0004                	0x4
 1ba:	0301                	addi	t1,t1,0
 1bc:	0901                	addi	s2,s2,0
 1be:	0004                	0x4
 1c0:	0301                	addi	t1,t1,0
 1c2:	0901                	addi	s2,s2,0
 1c4:	0004                	0x4
 1c6:	0301                	addi	t1,t1,0
 1c8:	0901                	addi	s2,s2,0
 1ca:	0004                	0x4
 1cc:	0301                	addi	t1,t1,0
 1ce:	0901                	addi	s2,s2,0
 1d0:	0004                	0x4
 1d2:	0301                	addi	t1,t1,0
 1d4:	0901                	addi	s2,s2,0
 1d6:	0004                	0x4
 1d8:	0301                	addi	t1,t1,0
 1da:	0901                	addi	s2,s2,0
 1dc:	0004                	0x4
 1de:	0301                	addi	t1,t1,0
 1e0:	0901                	addi	s2,s2,0
 1e2:	0004                	0x4
 1e4:	0301                	addi	t1,t1,0
 1e6:	0901                	addi	s2,s2,0
 1e8:	0004                	0x4
 1ea:	0301                	addi	t1,t1,0
 1ec:	0901                	addi	s2,s2,0
 1ee:	0004                	0x4
 1f0:	0301                	addi	t1,t1,0
 1f2:	0901                	addi	s2,s2,0
 1f4:	0004                	0x4
 1f6:	0301                	addi	t1,t1,0
 1f8:	0901                	addi	s2,s2,0
 1fa:	0004                	0x4
 1fc:	0301                	addi	t1,t1,0
 1fe:	0901                	addi	s2,s2,0
 200:	0004                	0x4
 202:	0301                	addi	t1,t1,0
 204:	0901                	addi	s2,s2,0
 206:	0004                	0x4
 208:	0301                	addi	t1,t1,0
 20a:	0901                	addi	s2,s2,0
 20c:	0004                	0x4
 20e:	0301                	addi	t1,t1,0
 210:	0901                	addi	s2,s2,0
 212:	0004                	0x4
 214:	0301                	addi	t1,t1,0
 216:	0901                	addi	s2,s2,0
 218:	0004                	0x4
 21a:	0301                	addi	t1,t1,0
 21c:	0901                	addi	s2,s2,0
 21e:	0004                	0x4
 220:	0301                	addi	t1,t1,0
 222:	0901                	addi	s2,s2,0
 224:	0004                	0x4
 226:	0301                	addi	t1,t1,0
 228:	0901                	addi	s2,s2,0
 22a:	0004                	0x4
 22c:	0301                	addi	t1,t1,0
 22e:	0901                	addi	s2,s2,0
 230:	0004                	0x4
 232:	0301                	addi	t1,t1,0
 234:	0901                	addi	s2,s2,0
 236:	0004                	0x4
 238:	0301                	addi	t1,t1,0
 23a:	0901                	addi	s2,s2,0
 23c:	0004                	0x4
 23e:	0301                	addi	t1,t1,0
 240:	0901                	addi	s2,s2,0
 242:	0004                	0x4
 244:	0301                	addi	t1,t1,0
 246:	0901                	addi	s2,s2,0
 248:	0004                	0x4
 24a:	0301                	addi	t1,t1,0
 24c:	0901                	addi	s2,s2,0
 24e:	0004                	0x4
 250:	0301                	addi	t1,t1,0
 252:	00040903          	lb	s2,0(s0)
 256:	0301                	addi	t1,t1,0
 258:	0901                	addi	s2,s2,0
 25a:	0008                	0x8
 25c:	0301                	addi	t1,t1,0
 25e:	0901                	addi	s2,s2,0
 260:	0004                	0x4
 262:	0301                	addi	t1,t1,0
 264:	0901                	addi	s2,s2,0
 266:	0008                	0x8
 268:	0301                	addi	t1,t1,0
 26a:	0902                	c.slli64	s2
 26c:	0004                	0x4
 26e:	0301                	addi	t1,t1,0
 270:	0904                	addi	s1,sp,144
 272:	0008                	0x8
 274:	0301                	addi	t1,t1,0
 276:	0902                	c.slli64	s2
 278:	0004                	0x4
 27a:	0301                	addi	t1,t1,0
 27c:	00040903          	lb	s2,0(s0)
 280:	0301                	addi	t1,t1,0
 282:	0902                	c.slli64	s2
 284:	0004                	0x4
 286:	0301                	addi	t1,t1,0
 288:	0904                	addi	s1,sp,144
 28a:	0004                	0x4
 28c:	0301                	addi	t1,t1,0
 28e:	0901                	addi	s2,s2,0
 290:	0004                	0x4
 292:	0301                	addi	t1,t1,0
 294:	0901                	addi	s2,s2,0
 296:	0004                	0x4
 298:	0301                	addi	t1,t1,0
 29a:	0901                	addi	s2,s2,0
 29c:	0008                	0x8
 29e:	0301                	addi	t1,t1,0
 2a0:	090c                	addi	a1,sp,144
 2a2:	0004                	0x4
 2a4:	0301                	addi	t1,t1,0
 2a6:	00240907          	0x240907
 2aa:	0301                	addi	t1,t1,0
 2ac:	0901                	addi	s2,s2,0
 2ae:	0004                	0x4
 2b0:	0301                	addi	t1,t1,0
 2b2:	0901                	addi	s2,s2,0
 2b4:	0008                	0x8
 2b6:	0301                	addi	t1,t1,0
 2b8:	0901                	addi	s2,s2,0
 2ba:	0004                	0x4
 2bc:	0301                	addi	t1,t1,0
 2be:	0901                	addi	s2,s2,0
 2c0:	0004                	0x4
 2c2:	0301                	addi	t1,t1,0
 2c4:	0901                	addi	s2,s2,0
 2c6:	0004                	0x4
 2c8:	0301                	addi	t1,t1,0
 2ca:	0901                	addi	s2,s2,0
 2cc:	0008                	0x8
 2ce:	0301                	addi	t1,t1,0
 2d0:	0901                	addi	s2,s2,0
 2d2:	0004                	0x4
 2d4:	0301                	addi	t1,t1,0
 2d6:	0901                	addi	s2,s2,0
 2d8:	0004                	0x4
 2da:	0301                	addi	t1,t1,0
 2dc:	0901                	addi	s2,s2,0
 2de:	0004                	0x4
 2e0:	0301                	addi	t1,t1,0
 2e2:	0901                	addi	s2,s2,0
 2e4:	0008                	0x8
 2e6:	0301                	addi	t1,t1,0
 2e8:	0901                	addi	s2,s2,0
 2ea:	0004                	0x4
 2ec:	0301                	addi	t1,t1,0
 2ee:	0901                	addi	s2,s2,0
 2f0:	0004                	0x4
 2f2:	0301                	addi	t1,t1,0
 2f4:	0901                	addi	s2,s2,0
 2f6:	0004                	0x4
 2f8:	0301                	addi	t1,t1,0
 2fa:	0901                	addi	s2,s2,0
 2fc:	0008                	0x8
 2fe:	0301                	addi	t1,t1,0
 300:	0901                	addi	s2,s2,0
 302:	0004                	0x4
 304:	0301                	addi	t1,t1,0
 306:	0901                	addi	s2,s2,0
 308:	0004                	0x4
 30a:	0301                	addi	t1,t1,0
 30c:	0901                	addi	s2,s2,0
 30e:	0004                	0x4
 310:	0301                	addi	t1,t1,0
 312:	0901                	addi	s2,s2,0
 314:	0008                	0x8
 316:	0301                	addi	t1,t1,0
 318:	0901                	addi	s2,s2,0
 31a:	0004                	0x4
 31c:	0301                	addi	t1,t1,0
 31e:	0901                	addi	s2,s2,0
 320:	0004                	0x4
 322:	0301                	addi	t1,t1,0
 324:	0901                	addi	s2,s2,0
 326:	0004                	0x4
 328:	0301                	addi	t1,t1,0
 32a:	0901                	addi	s2,s2,0
 32c:	0008                	0x8
 32e:	0301                	addi	t1,t1,0
 330:	0901                	addi	s2,s2,0
 332:	0004                	0x4
 334:	0301                	addi	t1,t1,0
 336:	0901                	addi	s2,s2,0
 338:	0004                	0x4
 33a:	0301                	addi	t1,t1,0
 33c:	0901                	addi	s2,s2,0
 33e:	0004                	0x4
 340:	0301                	addi	t1,t1,0
 342:	0901                	addi	s2,s2,0
 344:	0008                	0x8
 346:	0301                	addi	t1,t1,0
 348:	0901                	addi	s2,s2,0
 34a:	0004                	0x4
 34c:	0301                	addi	t1,t1,0
 34e:	0901                	addi	s2,s2,0
 350:	0004                	0x4
 352:	0301                	addi	t1,t1,0
 354:	0901                	addi	s2,s2,0
 356:	0004                	0x4
 358:	0301                	addi	t1,t1,0
 35a:	0901                	addi	s2,s2,0
 35c:	0008                	0x8
 35e:	0301                	addi	t1,t1,0
 360:	0901                	addi	s2,s2,0
 362:	0004                	0x4
 364:	0301                	addi	t1,t1,0
 366:	0901                	addi	s2,s2,0
 368:	0004                	0x4
 36a:	0301                	addi	t1,t1,0
 36c:	0901                	addi	s2,s2,0
 36e:	0004                	0x4
 370:	0301                	addi	t1,t1,0
 372:	0901                	addi	s2,s2,0
 374:	0008                	0x8
 376:	0301                	addi	t1,t1,0
 378:	0901                	addi	s2,s2,0
 37a:	0004                	0x4
 37c:	0301                	addi	t1,t1,0
 37e:	0901                	addi	s2,s2,0
 380:	0004                	0x4
 382:	0301                	addi	t1,t1,0
 384:	0901                	addi	s2,s2,0
 386:	0004                	0x4
 388:	0301                	addi	t1,t1,0
 38a:	0901                	addi	s2,s2,0
 38c:	0008                	0x8
 38e:	0301                	addi	t1,t1,0
 390:	0901                	addi	s2,s2,0
 392:	0004                	0x4
 394:	0301                	addi	t1,t1,0
 396:	0901                	addi	s2,s2,0
 398:	0004                	0x4
 39a:	0301                	addi	t1,t1,0
 39c:	0901                	addi	s2,s2,0
 39e:	0004                	0x4
 3a0:	0301                	addi	t1,t1,0
 3a2:	0901                	addi	s2,s2,0
 3a4:	0004                	0x4
 3a6:	0301                	addi	t1,t1,0
 3a8:	0901                	addi	s2,s2,0
 3aa:	0004                	0x4
 3ac:	0301                	addi	t1,t1,0
 3ae:	0901                	addi	s2,s2,0
 3b0:	0004                	0x4
 3b2:	0301                	addi	t1,t1,0
 3b4:	0901                	addi	s2,s2,0
 3b6:	0004                	0x4
 3b8:	0301                	addi	t1,t1,0
 3ba:	0901                	addi	s2,s2,0
 3bc:	0004                	0x4
 3be:	0301                	addi	t1,t1,0
 3c0:	0901                	addi	s2,s2,0
 3c2:	0004                	0x4
 3c4:	0301                	addi	t1,t1,0
 3c6:	0901                	addi	s2,s2,0
 3c8:	0004                	0x4
 3ca:	0301                	addi	t1,t1,0
 3cc:	0901                	addi	s2,s2,0
 3ce:	0004                	0x4
 3d0:	0301                	addi	t1,t1,0
 3d2:	00040907          	0x40907
 3d6:	0301                	addi	t1,t1,0
 3d8:	00040903          	lb	s2,0(s0)
 3dc:	0301                	addi	t1,t1,0
 3de:	0901                	addi	s2,s2,0
 3e0:	0008                	0x8
 3e2:	0301                	addi	t1,t1,0
 3e4:	0004090f          	0x4090f
 3e8:	0301                	addi	t1,t1,0
 3ea:	0901                	addi	s2,s2,0
 3ec:	0008                	0x8
 3ee:	0301                	addi	t1,t1,0
 3f0:	0901                	addi	s2,s2,0
 3f2:	0004                	0x4
 3f4:	0301                	addi	t1,t1,0
 3f6:	00040903          	lb	s2,0(s0)
 3fa:	0301                	addi	t1,t1,0
 3fc:	0902                	c.slli64	s2
 3fe:	0014                	0x14
 400:	0301                	addi	t1,t1,0
 402:	0901                	addi	s2,s2,0
 404:	0004                	0x4
 406:	0301                	addi	t1,t1,0
 408:	0901                	addi	s2,s2,0
 40a:	0004                	0x4
 40c:	0301                	addi	t1,t1,0
 40e:	0901                	addi	s2,s2,0
 410:	0004                	0x4
 412:	0301                	addi	t1,t1,0
 414:	0901                	addi	s2,s2,0
 416:	0004                	0x4
 418:	0301                	addi	t1,t1,0
 41a:	0901                	addi	s2,s2,0
 41c:	0004                	0x4
 41e:	0301                	addi	t1,t1,0
 420:	00140903          	lb	s2,1(s0)
 424:	0301                	addi	t1,t1,0
 426:	0902                	c.slli64	s2
 428:	0014                	0x14
 42a:	0301                	addi	t1,t1,0
 42c:	0902                	c.slli64	s2
 42e:	0004                	0x4
 430:	0301                	addi	t1,t1,0
 432:	0901                	addi	s2,s2,0
 434:	0004                	0x4
 436:	0301                	addi	t1,t1,0
 438:	0901                	addi	s2,s2,0
 43a:	0004                	0x4
 43c:	0301                	addi	t1,t1,0
 43e:	0901                	addi	s2,s2,0
 440:	0004                	0x4
 442:	0301                	addi	t1,t1,0
 444:	0902                	c.slli64	s2
 446:	0004                	0x4
 448:	0301                	addi	t1,t1,0
 44a:	0904                	addi	s1,sp,144
 44c:	0014                	0x14
 44e:	0301                	addi	t1,t1,0
 450:	0901                	addi	s2,s2,0
 452:	0004                	0x4
 454:	0301                	addi	t1,t1,0
 456:	0901                	addi	s2,s2,0
 458:	0004                	0x4
 45a:	0301                	addi	t1,t1,0
 45c:	0901                	addi	s2,s2,0
 45e:	0008                	0x8
 460:	0301                	addi	t1,t1,0
 462:	0902                	c.slli64	s2
 464:	0004                	0x4
 466:	0301                	addi	t1,t1,0
 468:	0901                	addi	s2,s2,0
 46a:	0008                	0x8
 46c:	0301                	addi	t1,t1,0
 46e:	0901                	addi	s2,s2,0
 470:	0004                	0x4
 472:	0301                	addi	t1,t1,0
 474:	0901                	addi	s2,s2,0
 476:	0008                	0x8
 478:	0301                	addi	t1,t1,0
 47a:	00040907          	0x40907
 47e:	0301                	addi	t1,t1,0
 480:	000c0903          	lb	s2,0(s8)
 484:	0301                	addi	t1,t1,0
 486:	0902                	c.slli64	s2
 488:	0004                	0x4
 48a:	0301                	addi	t1,t1,0
 48c:	0901                	addi	s2,s2,0
 48e:	0008                	0x8
 490:	0301                	addi	t1,t1,0
 492:	0905                	addi	s2,s2,1
 494:	0004                	0x4
 496:	0301                	addi	t1,t1,0
 498:	0901                	addi	s2,s2,0
 49a:	0008                	0x8
 49c:	0301                	addi	t1,t1,0
 49e:	0901                	addi	s2,s2,0
 4a0:	0004                	0x4
 4a2:	0901                	addi	s2,s2,0
 4a4:	0004                	0x4
 4a6:	0100                	addi	s0,sp,128
 4a8:	0001                	nop
 4aa:	0209                	addi	tp,tp,2
 4ac:	0000                	unimp
 4ae:	8020                	0x8020
 4b0:	0000                	unimp
 4b2:	0000                	unimp
 4b4:	0102ff03          	0x102ff03
 4b8:	04090103          	lb	sp,64(s2) # fffffffffffe0040 <secret+0xffffffff7f3e0040>
 4bc:	0100                	addi	s0,sp,128
 4be:	04090103          	lb	sp,64(s2)
 4c2:	0100                	addi	s0,sp,128
 4c4:	08090103          	lb	sp,128(s2)
 4c8:	0100                	addi	s0,sp,128
 4ca:	04090103          	lb	sp,64(s2)
 4ce:	0100                	addi	s0,sp,128
 4d0:	04090103          	lb	sp,64(s2)
 4d4:	0100                	addi	s0,sp,128
 4d6:	04090103          	lb	sp,64(s2)
 4da:	0100                	addi	s0,sp,128
 4dc:	04090103          	lb	sp,64(s2)
 4e0:	0100                	addi	s0,sp,128
 4e2:	04090103          	lb	sp,64(s2)
 4e6:	0100                	addi	s0,sp,128
 4e8:	04090103          	lb	sp,64(s2)
 4ec:	0100                	addi	s0,sp,128
 4ee:	04090203          	lb	tp,64(s2)
 4f2:	0100                	addi	s0,sp,128
 4f4:	04090103          	lb	sp,64(s2)
 4f8:	0100                	addi	s0,sp,128
 4fa:	04090103          	lb	sp,64(s2)
 4fe:	0100                	addi	s0,sp,128
 500:	04090103          	lb	sp,64(s2)
 504:	0100                	addi	s0,sp,128
 506:	04090103          	lb	sp,64(s2)
 50a:	0100                	addi	s0,sp,128
 50c:	04090103          	lb	sp,64(s2)
 510:	0100                	addi	s0,sp,128
 512:	04090103          	lb	sp,64(s2)
 516:	0100                	addi	s0,sp,128
 518:	04090103          	lb	sp,64(s2)
 51c:	0100                	addi	s0,sp,128
 51e:	04090103          	lb	sp,64(s2)
 522:	0100                	addi	s0,sp,128
 524:	04090203          	lb	tp,64(s2)
 528:	0100                	addi	s0,sp,128
 52a:	04090103          	lb	sp,64(s2)
 52e:	0100                	addi	s0,sp,128
 530:	04090103          	lb	sp,64(s2)
 534:	0100                	addi	s0,sp,128
 536:	04090103          	lb	sp,64(s2)
 53a:	0100                	addi	s0,sp,128
 53c:	04090103          	lb	sp,64(s2)
 540:	0100                	addi	s0,sp,128
 542:	04090103          	lb	sp,64(s2)
 546:	0100                	addi	s0,sp,128
 548:	04090103          	lb	sp,64(s2)
 54c:	0100                	addi	s0,sp,128
 54e:	08090103          	lb	sp,128(s2)
 552:	0100                	addi	s0,sp,128
 554:	04090103          	lb	sp,64(s2)
 558:	0100                	addi	s0,sp,128
 55a:	04090103          	lb	sp,64(s2)
 55e:	0100                	addi	s0,sp,128
 560:	04090103          	lb	sp,64(s2)
 564:	0100                	addi	s0,sp,128
 566:	04090203          	lb	tp,64(s2)
 56a:	0100                	addi	s0,sp,128
 56c:	04090103          	lb	sp,64(s2)
 570:	0100                	addi	s0,sp,128
 572:	04090103          	lb	sp,64(s2)
 576:	0100                	addi	s0,sp,128
 578:	04090103          	lb	sp,64(s2)
 57c:	0100                	addi	s0,sp,128
 57e:	04090103          	lb	sp,64(s2)
 582:	0100                	addi	s0,sp,128
 584:	04090103          	lb	sp,64(s2)
 588:	0100                	addi	s0,sp,128
 58a:	04090103          	lb	sp,64(s2)
 58e:	0100                	addi	s0,sp,128
 590:	04090303          	lb	t1,64(s2)
 594:	0100                	addi	s0,sp,128
 596:	0809                	addi	a6,a6,2
 598:	0000                	unimp
 59a:	0101                	addi	sp,sp,0
 59c:	0900                	addi	s0,sp,144
 59e:	0002                	c.slli64	zero
 5a0:	4000                	lw	s0,0(s0)
 5a2:	0080                	addi	s0,sp,64
 5a4:	0000                	unimp
 5a6:	0300                	addi	s0,sp,384
 5a8:	03b2                	slli	t2,t2,0xc
 5aa:	0301                	addi	t1,t1,0
 5ac:	0901                	addi	s2,s2,0
 5ae:	0004                	0x4
 5b0:	0301                	addi	t1,t1,0
 5b2:	0901                	addi	s2,s2,0
 5b4:	0004                	0x4
 5b6:	0301                	addi	t1,t1,0
 5b8:	0901                	addi	s2,s2,0
 5ba:	0004                	0x4
 5bc:	0301                	addi	t1,t1,0
 5be:	0901                	addi	s2,s2,0
 5c0:	0008                	0x8
 5c2:	0301                	addi	t1,t1,0
 5c4:	0901                	addi	s2,s2,0
 5c6:	0004                	0x4
 5c8:	0301                	addi	t1,t1,0
 5ca:	0901                	addi	s2,s2,0
 5cc:	0004                	0x4
 5ce:	0301                	addi	t1,t1,0
 5d0:	0901                	addi	s2,s2,0
 5d2:	0004                	0x4
 5d4:	0301                	addi	t1,t1,0
 5d6:	0902                	c.slli64	s2
 5d8:	0004                	0x4
 5da:	0301                	addi	t1,t1,0
 5dc:	0901                	addi	s2,s2,0
 5de:	0004                	0x4
 5e0:	0301                	addi	t1,t1,0
 5e2:	0901                	addi	s2,s2,0
 5e4:	0004                	0x4
 5e6:	0301                	addi	t1,t1,0
 5e8:	0901                	addi	s2,s2,0
 5ea:	0004                	0x4
 5ec:	0301                	addi	t1,t1,0
 5ee:	0901                	addi	s2,s2,0
 5f0:	0004                	0x4
 5f2:	0301                	addi	t1,t1,0
 5f4:	0901                	addi	s2,s2,0
 5f6:	0004                	0x4
 5f8:	0301                	addi	t1,t1,0
 5fa:	0901                	addi	s2,s2,0
 5fc:	0004                	0x4
 5fe:	0301                	addi	t1,t1,0
 600:	0901                	addi	s2,s2,0
 602:	0008                	0x8
 604:	0301                	addi	t1,t1,0
 606:	0902                	c.slli64	s2
 608:	0004                	0x4
 60a:	0301                	addi	t1,t1,0
 60c:	0901                	addi	s2,s2,0
 60e:	0004                	0x4
 610:	0301                	addi	t1,t1,0
 612:	0901                	addi	s2,s2,0
 614:	0004                	0x4
 616:	0301                	addi	t1,t1,0
 618:	0901                	addi	s2,s2,0
 61a:	0004                	0x4
 61c:	0301                	addi	t1,t1,0
 61e:	0901                	addi	s2,s2,0
 620:	0004                	0x4
 622:	0301                	addi	t1,t1,0
 624:	0901                	addi	s2,s2,0
 626:	0008                	0x8
 628:	0301                	addi	t1,t1,0
 62a:	0901                	addi	s2,s2,0
 62c:	0008                	0x8
 62e:	0301                	addi	t1,t1,0
 630:	0901                	addi	s2,s2,0
 632:	0004                	0x4
 634:	0301                	addi	t1,t1,0
 636:	0901                	addi	s2,s2,0
 638:	0004                	0x4
 63a:	0301                	addi	t1,t1,0
 63c:	0902                	c.slli64	s2
 63e:	0004                	0x4
 640:	0301                	addi	t1,t1,0
 642:	0901                	addi	s2,s2,0
 644:	0008                	0x8
 646:	0301                	addi	t1,t1,0
 648:	0901                	addi	s2,s2,0
 64a:	0004                	0x4
 64c:	0301                	addi	t1,t1,0
 64e:	0901                	addi	s2,s2,0
 650:	0008                	0x8
 652:	0301                	addi	t1,t1,0
 654:	0901                	addi	s2,s2,0
 656:	0004                	0x4
 658:	0301                	addi	t1,t1,0
 65a:	0901                	addi	s2,s2,0
 65c:	0004                	0x4
 65e:	0301                	addi	t1,t1,0
 660:	0901                	addi	s2,s2,0
 662:	0004                	0x4
 664:	0301                	addi	t1,t1,0
 666:	0901                	addi	s2,s2,0
 668:	0004                	0x4
 66a:	0301                	addi	t1,t1,0
 66c:	0901                	addi	s2,s2,0
 66e:	0004                	0x4
 670:	0301                	addi	t1,t1,0
 672:	0902                	c.slli64	s2
 674:	0004                	0x4
 676:	0301                	addi	t1,t1,0
 678:	0901                	addi	s2,s2,0
 67a:	0004                	0x4
 67c:	0301                	addi	t1,t1,0
 67e:	0901                	addi	s2,s2,0
 680:	0004                	0x4
 682:	0301                	addi	t1,t1,0
 684:	0901                	addi	s2,s2,0
 686:	0008                	0x8
 688:	0301                	addi	t1,t1,0
 68a:	0901                	addi	s2,s2,0
 68c:	0004                	0x4
 68e:	0301                	addi	t1,t1,0
 690:	0901                	addi	s2,s2,0
 692:	0004                	0x4
 694:	0301                	addi	t1,t1,0
 696:	0901                	addi	s2,s2,0
 698:	0004                	0x4
 69a:	0301                	addi	t1,t1,0
 69c:	0901                	addi	s2,s2,0
 69e:	0004                	0x4
 6a0:	0301                	addi	t1,t1,0
 6a2:	0901                	addi	s2,s2,0
 6a4:	0004                	0x4
 6a6:	0301                	addi	t1,t1,0
 6a8:	0901                	addi	s2,s2,0
 6aa:	0004                	0x4
 6ac:	0301                	addi	t1,t1,0
 6ae:	0901                	addi	s2,s2,0
 6b0:	0004                	0x4
 6b2:	0301                	addi	t1,t1,0
 6b4:	0902                	c.slli64	s2
 6b6:	0004                	0x4
 6b8:	0301                	addi	t1,t1,0
 6ba:	0901                	addi	s2,s2,0
 6bc:	0004                	0x4
 6be:	0301                	addi	t1,t1,0
 6c0:	0901                	addi	s2,s2,0
 6c2:	0008                	0x8
 6c4:	0301                	addi	t1,t1,0
 6c6:	0901                	addi	s2,s2,0
 6c8:	0004                	0x4
 6ca:	0301                	addi	t1,t1,0
 6cc:	0901                	addi	s2,s2,0
 6ce:	0004                	0x4
 6d0:	0301                	addi	t1,t1,0
 6d2:	0901                	addi	s2,s2,0
 6d4:	0004                	0x4
 6d6:	0301                	addi	t1,t1,0
 6d8:	0901                	addi	s2,s2,0
 6da:	0004                	0x4
 6dc:	0301                	addi	t1,t1,0
 6de:	0901                	addi	s2,s2,0
 6e0:	0008                	0x8
 6e2:	0301                	addi	t1,t1,0
 6e4:	0901                	addi	s2,s2,0
 6e6:	0004                	0x4
 6e8:	0301                	addi	t1,t1,0
 6ea:	00040903          	lb	s2,0(s0)
 6ee:	0901                	addi	s2,s2,0
 6f0:	0008                	0x8
 6f2:	0100                	addi	s0,sp,128
 6f4:	0001                	nop
 6f6:	0209                	addi	tp,tp,2
 6f8:	0000                	unimp
 6fa:	8060                	0x8060
 6fc:	0000                	unimp
 6fe:	0000                	unimp
 700:	0103f803          	0x103f803
 704:	04090103          	lb	sp,64(s2)
 708:	0100                	addi	s0,sp,128
 70a:	04090103          	lb	sp,64(s2)
 70e:	0100                	addi	s0,sp,128
 710:	04090103          	lb	sp,64(s2)
 714:	0100                	addi	s0,sp,128
 716:	18090103          	lb	sp,384(s2)
 71a:	0100                	addi	s0,sp,128
 71c:	04090103          	lb	sp,64(s2)
 720:	0100                	addi	s0,sp,128
 722:	04090103          	lb	sp,64(s2)
 726:	0100                	addi	s0,sp,128
 728:	08090103          	lb	sp,128(s2)
 72c:	0100                	addi	s0,sp,128
 72e:	04090103          	lb	sp,64(s2)
 732:	0100                	addi	s0,sp,128
 734:	04090103          	lb	sp,64(s2)
 738:	0100                	addi	s0,sp,128
 73a:	04090503          	lb	a0,64(s2)
 73e:	0100                	addi	s0,sp,128
 740:	04090103          	lb	sp,64(s2)
 744:	0100                	addi	s0,sp,128
 746:	04090103          	lb	sp,64(s2)
 74a:	0100                	addi	s0,sp,128
 74c:	08090103          	lb	sp,128(s2)
 750:	0100                	addi	s0,sp,128
 752:	04090103          	lb	sp,64(s2)
 756:	0100                	addi	s0,sp,128
 758:	04090103          	lb	sp,64(s2)
 75c:	0100                	addi	s0,sp,128
 75e:	04090103          	lb	sp,64(s2)
 762:	0100                	addi	s0,sp,128
 764:	04090103          	lb	sp,64(s2)
 768:	0100                	addi	s0,sp,128
 76a:	04090103          	lb	sp,64(s2)
 76e:	0100                	addi	s0,sp,128
 770:	04090103          	lb	sp,64(s2)
 774:	0100                	addi	s0,sp,128
 776:	08090103          	lb	sp,128(s2)
 77a:	0100                	addi	s0,sp,128
 77c:	04090103          	lb	sp,64(s2)
 780:	0100                	addi	s0,sp,128
 782:	04090103          	lb	sp,64(s2)
 786:	0100                	addi	s0,sp,128
 788:	04090103          	lb	sp,64(s2)
 78c:	0100                	addi	s0,sp,128
 78e:	04090203          	lb	tp,64(s2)
 792:	0100                	addi	s0,sp,128
 794:	04090103          	lb	sp,64(s2)
 798:	0100                	addi	s0,sp,128
 79a:	04090103          	lb	sp,64(s2)
 79e:	0100                	addi	s0,sp,128
 7a0:	04090103          	lb	sp,64(s2)
 7a4:	0100                	addi	s0,sp,128
 7a6:	04090103          	lb	sp,64(s2)
 7aa:	0100                	addi	s0,sp,128
 7ac:	04090103          	lb	sp,64(s2)
 7b0:	0100                	addi	s0,sp,128
 7b2:	04090103          	lb	sp,64(s2)
 7b6:	0100                	addi	s0,sp,128
 7b8:	04090203          	lb	tp,64(s2)
 7bc:	0100                	addi	s0,sp,128
 7be:	04090103          	lb	sp,64(s2)
 7c2:	0100                	addi	s0,sp,128
 7c4:	08090103          	lb	sp,128(s2)
 7c8:	0100                	addi	s0,sp,128
 7ca:	04090103          	lb	sp,64(s2)
 7ce:	0100                	addi	s0,sp,128
 7d0:	04090103          	lb	sp,64(s2)
 7d4:	0100                	addi	s0,sp,128
 7d6:	04090103          	lb	sp,64(s2)
 7da:	0100                	addi	s0,sp,128
 7dc:	04090103          	lb	sp,64(s2)
 7e0:	0100                	addi	s0,sp,128
 7e2:	04090103          	lb	sp,64(s2)
 7e6:	0100                	addi	s0,sp,128
 7e8:	08090103          	lb	sp,128(s2)
 7ec:	0100                	addi	s0,sp,128
 7ee:	04090103          	lb	sp,64(s2)
 7f2:	0100                	addi	s0,sp,128
 7f4:	04090103          	lb	sp,64(s2)
 7f8:	0100                	addi	s0,sp,128
 7fa:	04090103          	lb	sp,64(s2)
 7fe:	0100                	addi	s0,sp,128
 800:	04090103          	lb	sp,64(s2)
 804:	0100                	addi	s0,sp,128
 806:	04090103          	lb	sp,64(s2)
 80a:	0100                	addi	s0,sp,128
 80c:	08090103          	lb	sp,128(s2)
 810:	0100                	addi	s0,sp,128
 812:	04090103          	lb	sp,64(s2)
 816:	0100                	addi	s0,sp,128
 818:	04090103          	lb	sp,64(s2)
 81c:	0100                	addi	s0,sp,128
 81e:	04090103          	lb	sp,64(s2)
 822:	0100                	addi	s0,sp,128
 824:	04090203          	lb	tp,64(s2)
 828:	0100                	addi	s0,sp,128
 82a:	04090103          	lb	sp,64(s2)
 82e:	0100                	addi	s0,sp,128
 830:	08090103          	lb	sp,128(s2)
 834:	0100                	addi	s0,sp,128
 836:	04090103          	lb	sp,64(s2)
 83a:	0100                	addi	s0,sp,128
 83c:	04090103          	lb	sp,64(s2)
 840:	0100                	addi	s0,sp,128
 842:	04090103          	lb	sp,64(s2)
 846:	0100                	addi	s0,sp,128
 848:	08090103          	lb	sp,128(s2)
 84c:	0100                	addi	s0,sp,128
 84e:	04090103          	lb	sp,64(s2)
 852:	0100                	addi	s0,sp,128
 854:	04090103          	lb	sp,64(s2)
 858:	0100                	addi	s0,sp,128
 85a:	04090103          	lb	sp,64(s2)
 85e:	0100                	addi	s0,sp,128
 860:	04090103          	lb	sp,64(s2)
 864:	0100                	addi	s0,sp,128
 866:	04090103          	lb	sp,64(s2)
 86a:	0100                	addi	s0,sp,128
 86c:	04090103          	lb	sp,64(s2)
 870:	0100                	addi	s0,sp,128
 872:	04090103          	lb	sp,64(s2)
 876:	0100                	addi	s0,sp,128
 878:	08090103          	lb	sp,128(s2)
 87c:	0100                	addi	s0,sp,128
 87e:	04090103          	lb	sp,64(s2)
 882:	0100                	addi	s0,sp,128
 884:	04090103          	lb	sp,64(s2)
 888:	0100                	addi	s0,sp,128
 88a:	08090103          	lb	sp,128(s2)
 88e:	0100                	addi	s0,sp,128
 890:	bc090303          	lb	t1,-1088(s2)
 894:	0100                	addi	s0,sp,128
 896:	04090103          	lb	sp,64(s2)
 89a:	0100                	addi	s0,sp,128
 89c:	04090103          	lb	sp,64(s2)
 8a0:	0100                	addi	s0,sp,128
 8a2:	04090103          	lb	sp,64(s2)
 8a6:	0100                	addi	s0,sp,128
 8a8:	04090103          	lb	sp,64(s2)
 8ac:	0100                	addi	s0,sp,128
 8ae:	04090103          	lb	sp,64(s2)
 8b2:	0100                	addi	s0,sp,128
 8b4:	04090103          	lb	sp,64(s2)
 8b8:	0100                	addi	s0,sp,128
 8ba:	04090103          	lb	sp,64(s2)
 8be:	0100                	addi	s0,sp,128
 8c0:	04090103          	lb	sp,64(s2)
 8c4:	0100                	addi	s0,sp,128
 8c6:	04090103          	lb	sp,64(s2)
 8ca:	0100                	addi	s0,sp,128
 8cc:	04090103          	lb	sp,64(s2)
 8d0:	0100                	addi	s0,sp,128
 8d2:	04090303          	lb	t1,64(s2)
 8d6:	0100                	addi	s0,sp,128
 8d8:	04090103          	lb	sp,64(s2)
 8dc:	0100                	addi	s0,sp,128
 8de:	04090103          	lb	sp,64(s2)
 8e2:	0100                	addi	s0,sp,128
 8e4:	04090103          	lb	sp,64(s2)
 8e8:	0100                	addi	s0,sp,128
 8ea:	04090103          	lb	sp,64(s2)
 8ee:	0100                	addi	s0,sp,128
 8f0:	04090103          	lb	sp,64(s2)
 8f4:	0100                	addi	s0,sp,128
 8f6:	04090103          	lb	sp,64(s2)
 8fa:	0100                	addi	s0,sp,128
 8fc:	04090103          	lb	sp,64(s2)
 900:	0100                	addi	s0,sp,128
 902:	04090103          	lb	sp,64(s2)
 906:	0100                	addi	s0,sp,128
 908:	04090203          	lb	tp,64(s2)
 90c:	0100                	addi	s0,sp,128
 90e:	04090103          	lb	sp,64(s2)
 912:	0100                	addi	s0,sp,128
 914:	04090103          	lb	sp,64(s2)
 918:	0100                	addi	s0,sp,128
 91a:	04090103          	lb	sp,64(s2)
 91e:	0100                	addi	s0,sp,128
 920:	04090103          	lb	sp,64(s2)
 924:	0100                	addi	s0,sp,128
 926:	04090103          	lb	sp,64(s2)
 92a:	0100                	addi	s0,sp,128
 92c:	08090103          	lb	sp,128(s2)
 930:	0100                	addi	s0,sp,128
 932:	04090103          	lb	sp,64(s2)
 936:	0100                	addi	s0,sp,128
 938:	04090103          	lb	sp,64(s2)
 93c:	0100                	addi	s0,sp,128
 93e:	04090103          	lb	sp,64(s2)
 942:	0100                	addi	s0,sp,128
 944:	04090103          	lb	sp,64(s2)
 948:	0100                	addi	s0,sp,128
 94a:	04090103          	lb	sp,64(s2)
 94e:	0100                	addi	s0,sp,128
 950:	08090103          	lb	sp,128(s2)
 954:	0100                	addi	s0,sp,128
 956:	04090103          	lb	sp,64(s2)
 95a:	0100                	addi	s0,sp,128
 95c:	04090103          	lb	sp,64(s2)
 960:	0100                	addi	s0,sp,128
 962:	04090103          	lb	sp,64(s2)
 966:	0100                	addi	s0,sp,128
 968:	08090103          	lb	sp,128(s2)
 96c:	0100                	addi	s0,sp,128
 96e:	04090103          	lb	sp,64(s2)
 972:	0100                	addi	s0,sp,128
 974:	04090103          	lb	sp,64(s2)
 978:	0100                	addi	s0,sp,128
 97a:	04090203          	lb	tp,64(s2)
 97e:	0100                	addi	s0,sp,128
 980:	04090103          	lb	sp,64(s2)
 984:	0100                	addi	s0,sp,128
 986:	04090103          	lb	sp,64(s2)
 98a:	0100                	addi	s0,sp,128
 98c:	04090103          	lb	sp,64(s2)
 990:	0100                	addi	s0,sp,128
 992:	04090103          	lb	sp,64(s2)
 996:	0100                	addi	s0,sp,128
 998:	08090103          	lb	sp,128(s2)
 99c:	0100                	addi	s0,sp,128
 99e:	04090103          	lb	sp,64(s2)
 9a2:	0100                	addi	s0,sp,128
 9a4:	04090103          	lb	sp,64(s2)
 9a8:	0100                	addi	s0,sp,128
 9aa:	04090103          	lb	sp,64(s2)
 9ae:	0100                	addi	s0,sp,128
 9b0:	04090103          	lb	sp,64(s2)
 9b4:	0100                	addi	s0,sp,128
 9b6:	04090103          	lb	sp,64(s2)
 9ba:	0100                	addi	s0,sp,128
 9bc:	08090103          	lb	sp,128(s2)
 9c0:	0100                	addi	s0,sp,128
 9c2:	04090103          	lb	sp,64(s2)
 9c6:	0100                	addi	s0,sp,128
 9c8:	04090103          	lb	sp,64(s2)
 9cc:	0100                	addi	s0,sp,128
 9ce:	04090103          	lb	sp,64(s2)
 9d2:	0100                	addi	s0,sp,128
 9d4:	04090103          	lb	sp,64(s2)
 9d8:	0100                	addi	s0,sp,128
 9da:	04091603          	lh	a2,64(s2)
 9de:	0100                	addi	s0,sp,128
 9e0:	10090e03          	lb	t3,256(s2)
 9e4:	010d                	addi	sp,sp,3
 9e6:	04090103          	lb	sp,64(s2)
 9ea:	0100                	addi	s0,sp,128
 9ec:	04090103          	lb	sp,64(s2)
 9f0:	0100                	addi	s0,sp,128
 9f2:	04090103          	lb	sp,64(s2)
 9f6:	0100                	addi	s0,sp,128
 9f8:	04090103          	lb	sp,64(s2)
 9fc:	0100                	addi	s0,sp,128
 9fe:	04090103          	lb	sp,64(s2)
 a02:	0100                	addi	s0,sp,128
 a04:	04090103          	lb	sp,64(s2)
 a08:	0100                	addi	s0,sp,128
 a0a:	04090103          	lb	sp,64(s2)
 a0e:	0100                	addi	s0,sp,128
 a10:	04090103          	lb	sp,64(s2)
 a14:	0100                	addi	s0,sp,128
 a16:	04090403          	lb	s0,64(s2)
 a1a:	0100                	addi	s0,sp,128
 a1c:	04090103          	lb	sp,64(s2)
 a20:	0100                	addi	s0,sp,128
 a22:	04090103          	lb	sp,64(s2)
 a26:	0100                	addi	s0,sp,128
 a28:	04090103          	lb	sp,64(s2)
 a2c:	0100                	addi	s0,sp,128
 a2e:	04090103          	lb	sp,64(s2)
 a32:	0100                	addi	s0,sp,128
 a34:	04090103          	lb	sp,64(s2)
 a38:	0100                	addi	s0,sp,128
 a3a:	04090103          	lb	sp,64(s2)
 a3e:	0100                	addi	s0,sp,128
 a40:	04090103          	lb	sp,64(s2)
 a44:	0100                	addi	s0,sp,128
 a46:	04090103          	lb	sp,64(s2)
 a4a:	0100                	addi	s0,sp,128
 a4c:	04090103          	lb	sp,64(s2)
 a50:	0100                	addi	s0,sp,128
 a52:	04090103          	lb	sp,64(s2)
 a56:	0100                	addi	s0,sp,128
 a58:	04090403          	lb	s0,64(s2)
 a5c:	0100                	addi	s0,sp,128
 a5e:	04090103          	lb	sp,64(s2)
 a62:	0100                	addi	s0,sp,128
 a64:	04090103          	lb	sp,64(s2)
 a68:	0100                	addi	s0,sp,128
 a6a:	04090103          	lb	sp,64(s2)
 a6e:	0100                	addi	s0,sp,128
 a70:	04090103          	lb	sp,64(s2)
 a74:	0100                	addi	s0,sp,128
 a76:	04090103          	lb	sp,64(s2)
 a7a:	0100                	addi	s0,sp,128
 a7c:	04090103          	lb	sp,64(s2)
 a80:	0100                	addi	s0,sp,128
 a82:	04090403          	lb	s0,64(s2)
 a86:	0100                	addi	s0,sp,128
 a88:	04090103          	lb	sp,64(s2)
 a8c:	0100                	addi	s0,sp,128
 a8e:	04090103          	lb	sp,64(s2)
 a92:	0100                	addi	s0,sp,128
 a94:	04090103          	lb	sp,64(s2)
 a98:	0100                	addi	s0,sp,128
 a9a:	04090103          	lb	sp,64(s2)
 a9e:	0100                	addi	s0,sp,128
 aa0:	04090103          	lb	sp,64(s2)
 aa4:	0100                	addi	s0,sp,128
 aa6:	04090103          	lb	sp,64(s2)
 aaa:	0100                	addi	s0,sp,128
 aac:	04090103          	lb	sp,64(s2)
 ab0:	0100                	addi	s0,sp,128
 ab2:	78090503          	lb	a0,1920(s2)
 ab6:	0100                	addi	s0,sp,128
 ab8:	04090103          	lb	sp,64(s2)
 abc:	0100                	addi	s0,sp,128
 abe:	04090103          	lb	sp,64(s2)
 ac2:	0100                	addi	s0,sp,128
 ac4:	04090103          	lb	sp,64(s2)
 ac8:	0100                	addi	s0,sp,128
 aca:	04090103          	lb	sp,64(s2)
 ace:	0100                	addi	s0,sp,128
 ad0:	04090103          	lb	sp,64(s2)
 ad4:	0100                	addi	s0,sp,128
 ad6:	0409                	addi	s0,s0,2
 ad8:	0000                	unimp
 ada:	0101                	addi	sp,sp,0
 adc:	0900                	addi	s0,sp,144
 ade:	0002                	c.slli64	zero
 ae0:	8000                	0x8000
 ae2:	0080                	addi	s0,sp,64
 ae4:	0000                	unimp
 ae6:	0300                	addi	s0,sp,384
 ae8:	05e1                	addi	a1,a1,24
 aea:	0901                	addi	s2,s2,0
 aec:	0004                	0x4
 aee:	0100                	addi	s0,sp,128
 af0:	9f01                	subw	a4,a4,s0
 af2:	0000                	unimp
 af4:	0300                	addi	s0,sp,384
 af6:	5f00                	lw	s0,56(a4)
 af8:	0000                	unimp
 afa:	0100                	addi	s0,sp,128
 afc:	fb01                	bnez	a4,a0c <_start-0x7ffff5f4>
 afe:	0d0e                	slli	s10,s10,0x3
 b00:	0100                	addi	s0,sp,128
 b02:	0101                	addi	sp,sp,0
 b04:	0001                	nop
 b06:	0000                	unimp
 b08:	0001                	nop
 b0a:	0100                	addi	s0,sp,128
 b0c:	00637273          	csrrci	tp,0x6,6
 b10:	7273752f          	0x7273752f
 b14:	62696c2f          	0x62696c2f
 b18:	6363672f          	0x6363672f
 b1c:	7369722f          	0x7369722f
 b20:	34367663          	bgeu	a2,gp,e6c <_start-0x7ffff194>
 b24:	752d                	lui	a0,0xfffeb
 b26:	6b6e                	ld	s6,216(sp)
 b28:	6f6e                	ld	t5,216(sp)
 b2a:	652d6e77          	0x652d6e77
 b2e:	666c                	ld	a1,200(a2)
 b30:	332e392f          	0x332e392f
 b34:	302e                	fld	ft0,232(sp)
 b36:	636e692f          	0x636e692f
 b3a:	756c                	ld	a1,232(a0)
 b3c:	6564                	ld	s1,200(a0)
 b3e:	0000                	unimp
 b40:	6d70                	ld	a2,216(a0)
 b42:	2e70                	fld	fa2,216(a2)
 b44:	00010063          	beqz	sp,b44 <_start-0x7ffff4bc>
 b48:	7300                	ld	s0,32(a4)
 b4a:	6474                	ld	a3,200(s0)
 b4c:	6e69                	lui	t3,0x1a
 b4e:	2d74                	fld	fa3,216(a0)
 b50:	2e636367          	0x2e636367
 b54:	0068                	addi	a0,sp,12
 b56:	0002                	c.slli64	zero
 b58:	0000                	unimp
 b5a:	1105                	addi	sp,sp,-31
 b5c:	0900                	addi	s0,sp,144
 b5e:	b802                	fsd	ft0,48(sp)
 b60:	00800003          	lb	zero,8(zero) # 8 <_start-0x7ffffff8>
 b64:	0000                	unimp
 b66:	0300                	addi	s0,sp,384
 b68:	0109                	addi	sp,sp,2
 b6a:	0f05                	addi	t5,t5,1
 b6c:	0c090203          	lb	tp,192(s2)
 b70:	0100                	addi	s0,sp,128
 b72:	08090103          	lb	sp,128(s2)
 b76:	0100                	addi	s0,sp,128
 b78:	0505                	addi	a0,a0,1
 b7a:	0c090103          	lb	sp,192(s2)
 b7e:	0100                	addi	s0,sp,128
 b80:	28091303          	lh	t1,640(s2)
 b84:	0100                	addi	s0,sp,128
 b86:	0105                	addi	sp,sp,1
 b88:	04090103          	lb	sp,64(s2)
 b8c:	0100                	addi	s0,sp,128
 b8e:	0c09                	addi	s8,s8,2
 b90:	0000                	unimp
 b92:	0101                	addi	sp,sp,0
 b94:	030a                	slli	t1,t1,0x2
 b96:	0000                	unimp
 b98:	006a0003          	lb	zero,6(s4) # 5006 <_start-0x7fffaffa>
 b9c:	0000                	unimp
 b9e:	0101                	addi	sp,sp,0
 ba0:	000d0efb          	0xd0efb
 ba4:	0101                	addi	sp,sp,0
 ba6:	0101                	addi	sp,sp,0
 ba8:	0000                	unimp
 baa:	0100                	addi	s0,sp,128
 bac:	0000                	unimp
 bae:	7301                	lui	t1,0xfffe0
 bb0:	6372                	ld	t1,280(sp)
 bb2:	2f00                	fld	fs0,24(a4)
 bb4:	7375                	lui	t1,0xffffd
 bb6:	2f72                	fld	ft10,280(sp)
 bb8:	696c                	ld	a1,208(a0)
 bba:	2f62                	fld	ft10,24(sp)
 bbc:	2f636367          	0x2f636367
 bc0:	6972                	ld	s2,280(sp)
 bc2:	36766373          	csrrsi	t1,0x367,12
 bc6:	2d34                	fld	fa3,88(a0)
 bc8:	6e75                	lui	t3,0x1d
 bca:	776f6e6b          	0x776f6e6b
 bce:	2d6e                	fld	fs10,216(sp)
 bd0:	6c65                	lui	s8,0x19
 bd2:	2f66                	fld	ft10,88(sp)
 bd4:	2e39                	addiw	t3,t3,14
 bd6:	2f302e33          	0x2f302e33
 bda:	6e69                	lui	t3,0x1a
 bdc:	64756c63          	bltu	a0,t2,1234 <_start-0x7fffedcc>
 be0:	0065                	c.nop	25
 be2:	6e69                	lui	t3,0x1a
 be4:	76000063          	beqz	zero,1344 <_start-0x7fffecbc>
 be8:	2e6d                	addiw	t3,t3,27
 bea:	00010063          	beqz	sp,bea <_start-0x7ffff416>
 bee:	7300                	ld	s0,32(a4)
 bf0:	6474                	ld	a3,200(s0)
 bf2:	6e69                	lui	t3,0x1a
 bf4:	2d74                	fld	fa3,216(a0)
 bf6:	2e636367          	0x2e636367
 bfa:	0068                	addi	a0,sp,12
 bfc:	0002                	c.slli64	zero
 bfe:	7600                	ld	s0,40(a2)
 c00:	2e6d                	addiw	t3,t3,27
 c02:	0068                	addi	a0,sp,12
 c04:	00000003          	lb	zero,0(zero) # 0 <_start-0x80000000>
 c08:	2405                	addiw	s0,s0,1
 c0a:	0900                	addi	s0,sp,144
 c0c:	1002                	c.slli	zero,0x20
 c0e:	0004                	0x4
 c10:	0080                	addi	s0,sp,64
 c12:	0000                	unimp
 c14:	0300                	addi	s0,sp,384
 c16:	1c05013f 10090103 	0x100901031c05013f
 c1e:	0100                	addi	s0,sp,128
 c20:	1705                	addi	a4,a4,-31
 c22:	08090003          	lb	zero,128(s2)
 c26:	0100                	addi	s0,sp,128
 c28:	0e05                	addi	t3,t3,1
 c2a:	08090003          	lb	zero,128(s2)
 c2e:	0100                	addi	s0,sp,128
 c30:	0f05                	addi	t5,t5,1
 c32:	08090103          	lb	sp,128(s2)
 c36:	0100                	addi	s0,sp,128
 c38:	1c05                	addi	s8,s8,-31
 c3a:	08090003          	lb	zero,128(s2)
 c3e:	0100                	addi	s0,sp,128
 c40:	1505                	addi	a0,a0,-31
 c42:	08090003          	lb	zero,128(s2)
 c46:	0100                	addi	s0,sp,128
 c48:	0105                	addi	sp,sp,1
 c4a:	04090103          	lb	sp,64(s2)
 c4e:	0100                	addi	s0,sp,128
 c50:	10090303          	lb	t1,256(s2)
 c54:	0100                	addi	s0,sp,128
 c56:	2205                	addiw	tp,tp,1
 c58:	10090303          	lb	t1,256(s2)
 c5c:	0100                	addi	s0,sp,128
 c5e:	2c05                	addiw	s8,s8,1
 c60:	10090003          	lb	zero,256(s2)
 c64:	0100                	addi	s0,sp,128
 c66:	2005                	0x2005
 c68:	04090003          	lb	zero,64(s2)
 c6c:	0100                	addi	s0,sp,128
 c6e:	0c090303          	lb	t1,192(s2)
 c72:	0100                	addi	s0,sp,128
 c74:	2405                	addiw	s0,s0,1
 c76:	1c090303          	lb	t1,448(s2)
 c7a:	0100                	addi	s0,sp,128
 c7c:	0a05                	addi	s4,s4,1
 c7e:	10090003          	lb	zero,256(s2)
 c82:	0100                	addi	s0,sp,128
 c84:	4105                	li	sp,1
 c86:	10090003          	lb	zero,256(s2)
 c8a:	0100                	addi	s0,sp,128
 c8c:	2205                	addiw	tp,tp,1
 c8e:	04090003          	lb	zero,64(s2)
 c92:	0100                	addi	s0,sp,128
 c94:	2405                	addiw	s0,s0,1
 c96:	18090203          	lb	tp,384(s2)
 c9a:	0100                	addi	s0,sp,128
 c9c:	0a05                	addi	s4,s4,1
 c9e:	10090003          	lb	zero,256(s2)
 ca2:	0100                	addi	s0,sp,128
 ca4:	4105                	li	sp,1
 ca6:	10090003          	lb	zero,256(s2)
 caa:	0100                	addi	s0,sp,128
 cac:	2205                	addiw	tp,tp,1
 cae:	04090003          	lb	zero,64(s2)
 cb2:	0100                	addi	s0,sp,128
 cb4:	1f05                	addi	t5,t5,-31
 cb6:	18090303          	lb	t1,384(s2)
 cba:	0100                	addi	s0,sp,128
 cbc:	0a05                	addi	s4,s4,1
 cbe:	10090003          	lb	zero,256(s2)
 cc2:	0100                	addi	s0,sp,128
 cc4:	3005                	0x3005
 cc6:	10090003          	lb	zero,256(s2)
 cca:	0100                	addi	s0,sp,128
 ccc:	1d05                	addi	s10,s10,-31
 cce:	04090003          	lb	zero,64(s2)
 cd2:	0100                	addi	s0,sp,128
 cd4:	2005                	0x2005
 cd6:	18090203          	lb	tp,384(s2)
 cda:	0100                	addi	s0,sp,128
 cdc:	0a05                	addi	s4,s4,1
 cde:	10090003          	lb	zero,256(s2)
 ce2:	0100                	addi	s0,sp,128
 ce4:	3905                	addiw	s2,s2,-31
 ce6:	10090003          	lb	zero,256(s2)
 cea:	0100                	addi	s0,sp,128
 cec:	1e05                	addi	t3,t3,-31
 cee:	04090003          	lb	zero,64(s2)
 cf2:	0100                	addi	s0,sp,128
 cf4:	2c05                	addiw	s8,s8,1
 cf6:	18090303          	lb	t1,384(s2)
 cfa:	0100                	addi	s0,sp,128
 cfc:	0a05                	addi	s4,s4,1
 cfe:	10090003          	lb	zero,256(s2)
 d02:	0100                	addi	s0,sp,128
 d04:	3b05                	addiw	s6,s6,-31
 d06:	18090003          	lb	zero,384(s2)
 d0a:	0100                	addi	s0,sp,128
 d0c:	2a05                	addiw	s4,s4,1
 d0e:	04090003          	lb	zero,64(s2)
 d12:	0100                	addi	s0,sp,128
 d14:	1f05                	addi	t5,t5,-31
 d16:	18090303          	lb	t1,384(s2)
 d1a:	0100                	addi	s0,sp,128
 d1c:	0a05                	addi	s4,s4,1
 d1e:	10090003          	lb	zero,256(s2)
 d22:	0100                	addi	s0,sp,128
 d24:	3705                	addiw	a4,a4,-31
 d26:	10090003          	lb	zero,256(s2)
 d2a:	0100                	addi	s0,sp,128
 d2c:	1d05                	addi	s10,s10,-31
 d2e:	04090003          	lb	zero,64(s2)
 d32:	0100                	addi	s0,sp,128
 d34:	0e05                	addi	t3,t3,1
 d36:	18090303          	lb	t1,384(s2)
 d3a:	0100                	addi	s0,sp,128
 d3c:	0505                	addi	a0,a0,1
 d3e:	0c090103          	lb	sp,192(s2)
 d42:	0100                	addi	s0,sp,128
 d44:	0f05                	addi	t5,t5,1
 d46:	08090203          	lb	tp,128(s2)
 d4a:	0100                	addi	s0,sp,128
 d4c:	2805                	addiw	a6,a6,1
 d4e:	08090203          	lb	tp,128(s2)
 d52:	0100                	addi	s0,sp,128
 d54:	1d05                	addi	s10,s10,-31
 d56:	08097f03          	0x8097f03
 d5a:	0100                	addi	s0,sp,128
 d5c:	2d05                	addiw	s10,s10,1
 d5e:	08090003          	lb	zero,128(s2)
 d62:	0100                	addi	s0,sp,128
 d64:	0f05                	addi	t5,t5,1
 d66:	04090003          	lb	zero,64(s2)
 d6a:	0100                	addi	s0,sp,128
 d6c:	0505                	addi	a0,a0,1
 d6e:	08090303          	lb	t1,128(s2)
 d72:	0100                	addi	s0,sp,128
 d74:	08090103          	lb	sp,128(s2)
 d78:	0100                	addi	s0,sp,128
 d7a:	0c090b03          	lb	s6,192(s2)
 d7e:	0100                	addi	s0,sp,128
 d80:	04090203          	lb	tp,64(s2)
 d84:	0100                	addi	s0,sp,128
 d86:	0105                	addi	sp,sp,1
 d88:	04090103          	lb	sp,64(s2)
 d8c:	0100                	addi	s0,sp,128
 d8e:	3405                	addiw	s0,s0,-31
 d90:	10090203          	lb	tp,256(s2)
 d94:	0100                	addi	s0,sp,128
 d96:	1405                	addi	s0,s0,-31
 d98:	14090103          	lb	sp,320(s2)
 d9c:	0100                	addi	s0,sp,128
 d9e:	0e05                	addi	t3,t3,1
 da0:	08090003          	lb	zero,128(s2)
 da4:	0100                	addi	s0,sp,128
 da6:	1805                	addi	a6,a6,-31
 da8:	08090103          	lb	sp,128(s2)
 dac:	0100                	addi	s0,sp,128
 dae:	2205                	addiw	tp,tp,1
 db0:	0c090003          	lb	zero,192(s2)
 db4:	0100                	addi	s0,sp,128
 db6:	1605                	addi	a2,a2,-31
 db8:	08090003          	lb	zero,128(s2)
 dbc:	0100                	addi	s0,sp,128
 dbe:	0505                	addi	a0,a0,1
 dc0:	1c090203          	lb	tp,448(s2)
 dc4:	0100                	addi	s0,sp,128
 dc6:	0105                	addi	sp,sp,1
 dc8:	04090103          	lb	sp,64(s2)
 dcc:	0100                	addi	s0,sp,128
 dce:	3205                	addiw	tp,tp,-31
 dd0:	0c090203          	lb	tp,192(s2)
 dd4:	0100                	addi	s0,sp,128
 dd6:	1405                	addi	s0,s0,-31
 dd8:	14090103          	lb	sp,320(s2)
 ddc:	0100                	addi	s0,sp,128
 dde:	0e05                	addi	t3,t3,1
 de0:	10090003          	lb	zero,256(s2)
 de4:	0100                	addi	s0,sp,128
 de6:	1605                	addi	a2,a2,-31
 de8:	08090103          	lb	sp,128(s2)
 dec:	0100                	addi	s0,sp,128
 dee:	2005                	0x2005
 df0:	0c090003          	lb	zero,192(s2)
 df4:	0100                	addi	s0,sp,128
 df6:	1405                	addi	s0,s0,-31
 df8:	08090003          	lb	zero,128(s2)
 dfc:	0100                	addi	s0,sp,128
 dfe:	0505                	addi	a0,a0,1
 e00:	1c090203          	lb	tp,448(s2)
 e04:	0100                	addi	s0,sp,128
 e06:	0105                	addi	sp,sp,1
 e08:	04090103          	lb	sp,64(s2)
 e0c:	0100                	addi	s0,sp,128
 e0e:	1e05                	addi	t3,t3,-31
 e10:	0c090303          	lb	t1,192(s2)
 e14:	0100                	addi	s0,sp,128
 e16:	0505                	addi	a0,a0,1
 e18:	14090103          	lb	sp,320(s2)
 e1c:	0100                	addi	s0,sp,128
 e1e:	14090103          	lb	sp,320(s2)
 e22:	0100                	addi	s0,sp,128
 e24:	14090203          	lb	tp,320(s2)
 e28:	0100                	addi	s0,sp,128
 e2a:	14090103          	lb	sp,320(s2)
 e2e:	0100                	addi	s0,sp,128
 e30:	0e05                	addi	t3,t3,1
 e32:	14090303          	lb	t1,320(s2)
 e36:	0100                	addi	s0,sp,128
 e38:	0505                	addi	a0,a0,1
 e3a:	04090003          	lb	zero,64(s2)
 e3e:	0100                	addi	s0,sp,128
 e40:	0e05                	addi	t3,t3,1
 e42:	0200                	addi	s0,sp,256
 e44:	0304                	addi	s1,sp,384
 e46:	04090503          	lb	a0,64(s2)
 e4a:	0100                	addi	s0,sp,128
 e4c:	2405                	addiw	s0,s0,1
 e4e:	0200                	addi	s0,sp,256
 e50:	0304                	addi	s1,sp,384
 e52:	08090203          	lb	tp,128(s2)
 e56:	0100                	addi	s0,sp,128
 e58:	0905                	addi	s2,s2,1
 e5a:	0200                	addi	s0,sp,256
 e5c:	0304                	addi	s1,sp,384
 e5e:	14090003          	lb	zero,320(s2)
 e62:	0100                	addi	s0,sp,128
 e64:	2205                	addiw	tp,tp,1
 e66:	0200                	addi	s0,sp,256
 e68:	0304                	addi	s1,sp,384
 e6a:	0c090103          	lb	sp,192(s2)
 e6e:	0100                	addi	s0,sp,128
 e70:	0905                	addi	s2,s2,1
 e72:	0200                	addi	s0,sp,256
 e74:	0304                	addi	s1,sp,384
 e76:	14090003          	lb	zero,320(s2)
 e7a:	0100                	addi	s0,sp,128
 e7c:	2105                	addiw	sp,sp,1
 e7e:	0200                	addi	s0,sp,256
 e80:	0304                	addi	s1,sp,384
 e82:	0c097803          	0xc097803
 e86:	0100                	addi	s0,sp,128
 e88:	0505                	addi	a0,a0,1
 e8a:	0200                	addi	s0,sp,256
 e8c:	0104                	addi	s1,sp,128
 e8e:	0c090003          	lb	zero,192(s2)
 e92:	0100                	addi	s0,sp,128
 e94:	0105                	addi	sp,sp,1
 e96:	10090b03          	lb	s6,256(s2)
 e9a:	0100                	addi	s0,sp,128
 e9c:	1809                	addi	a6,a6,-30
 e9e:	0000                	unimp
 ea0:	0101                	addi	sp,sp,0

Disassembly of section .debug_info:

0000000000000000 <.debug_info>:
   0:	001e                	c.slli	zero,0x7
   2:	0000                	unimp
   4:	0002                	c.slli64	zero
   6:	0000                	unimp
   8:	0000                	unimp
   a:	0108                	addi	a0,sp,128
	...
  18:	0031                	c.nop	12
  1a:	0000                	unimp
  1c:	005d                	c.nop	23
  1e:	0000                	unimp
  20:	8001                	c.srli64	s0
  22:	00d0                	addi	a2,sp,68
  24:	0000                	unimp
  26:	0004                	0x4
  28:	0012                	c.slli	zero,0x4
  2a:	0000                	unimp
  2c:	0108                	addi	a0,sp,128
  2e:	0072                	c.slli	zero,0x1c
  30:	0000                	unimp
  32:	310c                	fld	fa1,32(a0)
  34:	0001                	nop
  36:	3100                	fld	fs0,32(a0)
  38:	0000                	unimp
  3a:	b800                	fsd	fs0,48(s0)
  3c:	00800003          	lb	zero,8(zero) # 8 <_start-0x7ffffff8>
  40:	0000                	unimp
  42:	5800                	lw	s0,48(s0)
  44:	0000                	unimp
  46:	0000                	unimp
  48:	0000                	unimp
  4a:	f100                	sd	s0,32(a0)
  4c:	000a                	c.slli	zero,0x2
  4e:	0200                	addi	s0,sp,256
  50:	0601                	addi	a2,a2,0
  52:	0125                	addi	sp,sp,9
  54:	0000                	unimp
  56:	0202                	c.slli64	tp
  58:	5c05                	li	s8,-31
  5a:	0001                	nop
  5c:	0300                	addi	s0,sp,384
  5e:	0504                	addi	s1,sp,640
  60:	6e69                	lui	t3,0x1a
  62:	0074                	addi	a3,sp,12
  64:	0802                	c.slli64	a6
  66:	3b05                	addiw	s6,s6,-31
  68:	0001                	nop
  6a:	0400                	addi	s0,sp,512
  6c:	0000011b          	sext.w	sp,zero
  70:	2e02                	fld	ft8,0(sp)
  72:	5518                	lw	a4,40(a0)
  74:	0000                	unimp
  76:	0200                	addi	s0,sp,256
  78:	0801                	addi	a6,a6,0
  7a:	00000123          	sb	zero,2(zero) # 2 <_start-0x7ffffffe>
  7e:	0202                	c.slli64	tp
  80:	00014907          	flq	fs2,0(sp)
  84:	0200                	addi	s0,sp,256
  86:	0704                	addi	s1,sp,896
  88:	010e                	slli	sp,sp,0x3
  8a:	0000                	unimp
  8c:	0802                	c.slli64	a6
  8e:	00010907          	0x10907
  92:	0400                	addi	s0,sp,512
  94:	00ff                	0xff
  96:	0000                	unimp
  98:	5602                	lw	a2,32(sp)
  9a:	6a1a                	ld	s4,384(sp)
  9c:	0000                	unimp
  9e:	0500                	addi	s0,sp,640
  a0:	0049                	c.nop	18
  a2:	0000                	unimp
  a4:	008e                	slli	ra,ra,0x3
  a6:	0000                	unimp
  a8:	6a06                	ld	s4,64(sp)
  aa:	0000                	unimp
  ac:	ff00                	sd	s0,56(a4)
  ae:	6607000f          	0x6607000f
  b2:	0001                	nop
  b4:	0100                	addi	s0,sp,128
  b6:	1008                	addi	a0,sp,32
  b8:	007d                	c.nop	31
  ba:	0000                	unimp
  bc:	6908                	ld	a0,16(a0)
  be:	0000                	unimp
  c0:	0100                	addi	s0,sp,128
  c2:	060a                	slli	a2,a2,0x2
  c4:	03b8                	addi	a4,sp,456
  c6:	8000                	0x8000
  c8:	0000                	unimp
  ca:	0000                	unimp
  cc:	0058                	addi	a4,sp,4
  ce:	0000                	unimp
  d0:	0000                	unimp
  d2:	0000                	unimp
  d4:	9c01                	subw	s0,s0,s0
  d6:	fa09                	bnez	a2,ffffffffffffffe8 <secret+0xffffffff7f3fffe8>
  d8:	0000                	unimp
  da:	0100                	addi	s0,sp,128
  dc:	0f0c                	addi	a1,sp,912
  de:	0071                	c.nop	28
  e0:	0000                	unimp
  e2:	9102                	jalr	sp
  e4:	0968                	addi	a0,sp,156
  e6:	0144                	addi	s1,sp,132
  e8:	0000                	unimp
  ea:	0d01                	addi	s10,s10,0
  ec:	0000710f          	0x710f
  f0:	0200                	addi	s0,sp,256
  f2:	6091                	lui	ra,0x4
  f4:	0000                	unimp
  f6:	0292                	slli	t0,t0,0x4
  f8:	0000                	unimp
  fa:	0004                	0x4
  fc:	0099                	addi	ra,ra,6
  fe:	0000                	unimp
 100:	0108                	addi	a0,sp,128
 102:	0072                	c.slli	zero,0x1c
 104:	0000                	unimp
 106:	b60c                	fsd	fa1,40(a2)
 108:	0001                	nop
 10a:	3100                	fld	fs0,32(a0)
 10c:	0000                	unimp
 10e:	1000                	addi	s0,sp,32
 110:	0004                	0x4
 112:	0080                	addi	s0,sp,64
 114:	0000                	unimp
 116:	2400                	fld	fs0,8(s0)
 118:	0004                	0x4
 11a:	0000                	unimp
 11c:	0000                	unimp
 11e:	9400                	0x9400
 120:	0200000b          	0x200000b
 124:	0601                	addi	a2,a2,0
 126:	0125                	addi	sp,sp,9
 128:	0000                	unimp
 12a:	0202                	c.slli64	tp
 12c:	5c05                	li	s8,-31
 12e:	0001                	nop
 130:	0300                	addi	s0,sp,384
 132:	0504                	addi	s1,sp,640
 134:	6e69                	lui	t3,0x1a
 136:	0074                	addi	a3,sp,12
 138:	0802                	c.slli64	a6
 13a:	3b05                	addiw	s6,s6,-31
 13c:	0001                	nop
 13e:	0400                	addi	s0,sp,512
 140:	0000011b          	sext.w	sp,zero
 144:	2e02                	fld	ft8,0(sp)
 146:	5518                	lw	a4,40(a0)
 148:	0000                	unimp
 14a:	0200                	addi	s0,sp,256
 14c:	0801                	addi	a6,a6,0
 14e:	00000123          	sb	zero,2(zero) # 2 <_start-0x7ffffffe>
 152:	0202                	c.slli64	tp
 154:	00014907          	flq	fs2,0(sp)
 158:	0200                	addi	s0,sp,256
 15a:	0704                	addi	s1,sp,896
 15c:	010e                	slli	sp,sp,0x3
 15e:	0000                	unimp
 160:	7504                	ld	s1,40(a0)
 162:	0001                	nop
 164:	0200                	addi	s0,sp,256
 166:	00761937          	lui	s2,0x761
 16a:	0000                	unimp
 16c:	0802                	c.slli64	a6
 16e:	00010907          	0x10907
 172:	0400                	addi	s0,sp,512
 174:	00ff                	0xff
 176:	0000                	unimp
 178:	5602                	lw	a2,32(sp)
 17a:	761a                	ld	a2,416(sp)
 17c:	0000                	unimp
 17e:	0400                	addi	s0,sp,512
 180:	01d1                	addi	gp,gp,20
 182:	0000                	unimp
 184:	76171803          	lh	a6,1889(a4)
 188:	0000                	unimp
 18a:	0500                	addi	s0,sp,640
 18c:	0089                	addi	ra,ra,2
 18e:	0000                	unimp
 190:	00ac                	addi	a1,sp,72
 192:	0000                	unimp
 194:	7606                	ld	a2,96(sp)
 196:	0000                	unimp
 198:	0300                	addi	s0,sp,384
 19a:	00007607          	0x7607
 19e:	ff00                	sd	s0,56(a4)
 1a0:	0001                	nop
 1a2:	7008                	ld	a0,32(s0)
 1a4:	0074                	addi	a3,sp,12
 1a6:	1401                	addi	s0,s0,-32
 1a8:	00009507          	0x9507
 1ac:	0000                	unimp
 1ae:	0910                	addi	a2,sp,144
 1b0:	00100003          	lb	zero,1(zero) # 1 <_start-0x7fffffff>
 1b4:	0080                	addi	s0,sp,64
 1b6:	0000                	unimp
 1b8:	0500                	addi	s0,sp,640
 1ba:	0049                	c.nop	18
 1bc:	0000                	unimp
 1be:	00ce                	slli	ra,ra,0x13
 1c0:	0000                	unimp
 1c2:	0009                	c.nop	2
 1c4:	a90a                	fsd	ft2,144(sp)
 1c6:	0001                	nop
 1c8:	0100                	addi	s0,sp,128
 1ca:	1031                	c.nop	-20
 1cc:	000000c3          	fmadd.s	ft1,ft0,ft0,ft0,rne
 1d0:	4905                	li	s2,1
 1d2:	0000                	unimp
 1d4:	f100                	sd	s0,32(a0)
 1d6:	0000                	unimp
 1d8:	0600                	addi	s0,sp,768
 1da:	0076                	c.slli	zero,0x1d
 1dc:	0000                	unimp
 1de:	00760707          	0x760707
 1e2:	0000                	unimp
 1e4:	0fff                	0xfff
 1e6:	0a00                	addi	s0,sp,272
 1e8:	0195                	addi	gp,gp,5
 1ea:	0000                	unimp
 1ec:	3301                	addiw	t1,t1,-32
 1ee:	da10                	sw	a2,48(a2)
 1f0:	0000                	unimp
 1f2:	0500                	addi	s0,sp,640
 1f4:	0049                	c.nop	18
 1f6:	0000                	unimp
 1f8:	010e                	slli	sp,sp,0x3
 1fa:	0000                	unimp
 1fc:	00007607          	0x7607
 200:	ff00                	sd	s0,56(a4)
 202:	660a000f          	0x660a000f
 206:	0001                	nop
 208:	0100                	addi	s0,sp,128
 20a:	1034                	addi	a3,sp,40
 20c:	00fd                	addi	ra,ra,31
 20e:	0000                	unimp
 210:	0001af0b          	0x1af0b
 214:	0100                	addi	s0,sp,128
 216:	0686                	slli	a3,a3,0x1
 218:	074c                	addi	a1,sp,900
 21a:	8000                	0x8000
 21c:	0000                	unimp
 21e:	0000                	unimp
 220:	00e8                	addi	a0,sp,76
 222:	0000                	unimp
 224:	0000                	unimp
 226:	0000                	unimp
 228:	9c01                	subw	s0,s0,s0
 22a:	0176                	slli	sp,sp,0x1d
 22c:	0000                	unimp
 22e:	7e0c                	ld	a1,56(a2)
 230:	0001                	nop
 232:	0100                	addi	s0,sp,128
 234:	1686                	slli	a3,a3,0x21
 236:	006a                	c.slli	zero,0x1a
 238:	0000                	unimp
 23a:	9102                	jalr	sp
 23c:	0d58                	addi	a4,sp,660
 23e:	000001bf 6a0e8d01 	0x6a0e8d01000001bf
 246:	0000                	unimp
 248:	0200                	addi	s0,sp,256
 24a:	6091                	lui	ra,0x4
 24c:	b00e                	fsd	ft3,32(sp)
 24e:	00800007          	0x800007
 252:	0000                	unimp
 254:	6c00                	ld	s0,24(s0)
 256:	0000                	unimp
 258:	0000                	unimp
 25a:	0000                	unimp
 25c:	0f00                	addi	s0,sp,912
 25e:	0069                	c.nop	26
 260:	8e01                	sub	a2,a2,s0
 262:	3b0e                	fld	fs6,224(sp)
 264:	0000                	unimp
 266:	0200                	addi	s0,sp,256
 268:	6c91                	lui	s9,0x4
 26a:	0000                	unimp
 26c:	c410                	sw	a2,8(s0)
 26e:	0001                	nop
 270:	0100                	addi	s0,sp,128
 272:	067e                	slli	a2,a2,0x1f
 274:	06e0                	addi	s0,sp,844
 276:	8000                	0x8000
 278:	0000                	unimp
 27a:	0000                	unimp
 27c:	006c                	addi	a1,sp,12
 27e:	0000                	unimp
 280:	0000                	unimp
 282:	0000                	unimp
 284:	9c01                	subw	s0,s0,s0
 286:	01c2                	slli	gp,gp,0x10
 288:	0000                	unimp
 28a:	850c                	0x850c
 28c:	0001                	nop
 28e:	0100                	addi	s0,sp,128
 290:	1d7e                	slli	s10,s10,0x3f
 292:	007d                	c.nop	31
 294:	0000                	unimp
 296:	9102                	jalr	sp
 298:	0c58                	addi	a4,sp,532
 29a:	000001bf 6a2c7e01 	0x6a2c7e01000001bf
 2a2:	0000                	unimp
 2a4:	0200                	addi	s0,sp,256
 2a6:	5091                	li	ra,-28
 2a8:	7864690f          	0x7864690f
 2ac:	0100                	addi	s0,sp,128
 2ae:	0e7f                	0xe7f
 2b0:	006a                	c.slli	zero,0x1a
 2b2:	0000                	unimp
 2b4:	9102                	jalr	sp
 2b6:	0068                	addi	a0,sp,12
 2b8:	9a10                	0x9a10
 2ba:	0001                	nop
 2bc:	0100                	addi	s0,sp,128
 2be:	067c0677          	0x67c0677
 2c2:	8000                	0x8000
 2c4:	0000                	unimp
 2c6:	0000                	unimp
 2c8:	0064                	addi	s1,sp,12
 2ca:	0000                	unimp
 2cc:	0000                	unimp
 2ce:	0000                	unimp
 2d0:	9c01                	subw	s0,s0,s0
 2d2:	020e                	slli	tp,tp,0x3
 2d4:	0000                	unimp
 2d6:	850c                	0x850c
 2d8:	0001                	nop
 2da:	0100                	addi	s0,sp,128
 2dc:	007d1f77          	0x7d1f77
 2e0:	0000                	unimp
 2e2:	9102                	jalr	sp
 2e4:	0c58                	addi	a4,sp,532
 2e6:	000001bf 6a2e7701 	0x6a2e7701000001bf
 2ee:	0000                	unimp
 2f0:	0200                	addi	s0,sp,256
 2f2:	5091                	li	ra,-28
 2f4:	7864690f          	0x7864690f
 2f8:	0100                	addi	s0,sp,128
 2fa:	0e78                	addi	a4,sp,796
 2fc:	006a                	c.slli	zero,0x1a
 2fe:	0000                	unimp
 300:	9102                	jalr	sp
 302:	0068                	addi	a0,sp,12
 304:	6d11                	lui	s10,0x4
 306:	0001                	nop
 308:	0100                	addi	s0,sp,128
 30a:	0645                	addi	a2,a2,17
 30c:	045c                	addi	a5,sp,516
 30e:	8000                	0x8000
 310:	0000                	unimp
 312:	0000                	unimp
 314:	0220                	addi	s0,sp,264
 316:	0000                	unimp
 318:	0000                	unimp
 31a:	0000                	unimp
 31c:	9c01                	subw	s0,s0,s0
 31e:	025a                	slli	tp,tp,0x16
 320:	0000                	unimp
 322:	7e0d                	lui	t3,0xfffe3
 324:	0001                	nop
 326:	0100                	addi	s0,sp,128
 328:	0e5f 006a 0000      	0x6a0e5f
 32e:	9102                	jalr	sp
 330:	0d68                	addi	a0,sp,668
 332:	01de                	slli	gp,gp,0x17
 334:	0000                	unimp
 336:	6201                	0x6201
 338:	00007d0f          	0x7d0f
 33c:	0200                	addi	s0,sp,256
 33e:	6091                	lui	ra,0x4
 340:	8a0d                	andi	a2,a2,3
 342:	0001                	nop
 344:	0100                	addi	s0,sp,128
 346:	007d0f63          	beq	s10,t2,364 <_start-0x7ffffc9c>
 34a:	0000                	unimp
 34c:	9102                	jalr	sp
 34e:	0058                	addi	a4,sp,4
 350:	d712                	sw	tp,172(sp)
 352:	0001                	nop
 354:	0100                	addi	s0,sp,128
 356:	1140                	addi	s0,sp,164
 358:	006a                	c.slli	zero,0x1a
 35a:	0000                	unimp
 35c:	0410                	addi	a2,sp,512
 35e:	8000                	0x8000
 360:	0000                	unimp
 362:	0000                	unimp
 364:	004c                	addi	a1,sp,4
 366:	0000                	unimp
 368:	0000                	unimp
 36a:	0000                	unimp
 36c:	9c01                	subw	s0,s0,s0
 36e:	01007813          	andi	a6,zero,16
 372:	2140                	fld	fs0,128(a0)
 374:	006a                	c.slli	zero,0x1a
 376:	0000                	unimp
 378:	9102                	jalr	sp
 37a:	0f58                	addi	a4,sp,916
 37c:	6962                	ld	s2,24(sp)
 37e:	0074                	addi	a3,sp,12
 380:	4101                	li	sp,0
 382:	6a0e                	ld	s4,192(sp)
 384:	0000                	unimp
 386:	0200                	addi	s0,sp,256
 388:	6891                	lui	a7,0x4
	...

Disassembly of section .debug_abbrev:

0000000000000000 <.debug_abbrev>:
   0:	1101                	addi	sp,sp,-32
   2:	1000                	addi	s0,sp,32
   4:	5506                	lw	a0,96(sp)
   6:	0306                	slli	t1,t1,0x1
   8:	1b0e                	slli	s6,s6,0x23
   a:	250e                	fld	fa0,192(sp)
   c:	130e                	slli	t1,t1,0x23
   e:	0005                	c.nop	1
  10:	0000                	unimp
  12:	1101                	addi	sp,sp,-32
  14:	2501                	sext.w	a0,a0
  16:	130e                	slli	t1,t1,0x23
  18:	1b0e030b          	0x1b0e030b
  1c:	110e                	slli	sp,sp,0x23
  1e:	1201                	addi	tp,tp,-32
  20:	00171007          	0x171007
  24:	0200                	addi	s0,sp,256
  26:	0024                	addi	s1,sp,8
  28:	0b3e0b0b          	0xb3e0b0b
  2c:	00000e03          	lb	t3,0(zero) # 0 <_start-0x80000000>
  30:	0b002403          	lw	s0,176(zero) # b0 <_start-0x7fffff50>
  34:	030b3e0b          	0x30b3e0b
  38:	0008                	0x8
  3a:	0400                	addi	s0,sp,512
  3c:	0016                	c.slli	zero,0x5
  3e:	0b3a0e03          	lb	t3,179(s4)
  42:	0b390b3b          	0xb390b3b
  46:	1349                	addi	t1,t1,-14
  48:	0000                	unimp
  4a:	0105                	addi	sp,sp,1
  4c:	4901                	li	s2,0
  4e:	00130113          	addi	sp,t1,1 # ffffffffffffd001 <secret+0xffffffff7f3fd001>
  52:	0600                	addi	s0,sp,768
  54:	0021                	c.nop	8
  56:	1349                	addi	t1,t1,-14
  58:	0000052f          	0x52f
  5c:	03003407          	fld	fs0,48(zero) # 30 <_start-0x7fffffd0>
  60:	3a0e                	fld	fs4,224(sp)
  62:	390b3b0b          	0x390b3b0b
  66:	3f13490b          	0x3f13490b
  6a:	3c19                	addiw	s8,s8,-26
  6c:	0019                	c.nop	6
  6e:	0800                	addi	s0,sp,16
  70:	012e                	slli	sp,sp,0xb
  72:	0e03193f 0b3b0b3a 	0xb3b0b3a0e03193f
  7a:	0b39                	addi	s6,s6,14
  7c:	0111                	addi	sp,sp,4
  7e:	0712                	slli	a4,a4,0x4
  80:	1840                	addi	s0,sp,52
  82:	00194297          	auipc	t0,0x194
  86:	0900                	addi	s0,sp,144
  88:	0034                	addi	a3,sp,8
  8a:	0b3a0e03          	lb	t3,179(s4)
  8e:	0b390b3b          	0xb390b3b
  92:	1349                	addi	t1,t1,-14
  94:	1802                	slli	a6,a6,0x20
  96:	0000                	unimp
  98:	0100                	addi	s0,sp,128
  9a:	0111                	addi	sp,sp,4
  9c:	0e25                	addi	t3,t3,9
  9e:	0e030b13          	addi	s6,t1,224
  a2:	01110e1b          	addiw	t3,sp,17
  a6:	0712                	slli	a4,a4,0x4
  a8:	1710                	addi	a2,sp,928
  aa:	0000                	unimp
  ac:	2402                	fld	fs0,0(sp)
  ae:	0b00                	addi	s0,sp,400
  b0:	030b3e0b          	0x30b3e0b
  b4:	000e                	c.slli	zero,0x3
  b6:	0300                	addi	s0,sp,384
  b8:	0024                	addi	s1,sp,8
  ba:	0b3e0b0b          	0xb3e0b0b
  be:	00000803          	lb	a6,0(zero) # 0 <_start-0x80000000>
  c2:	1604                	addi	s1,sp,800
  c4:	0300                	addi	s0,sp,384
  c6:	3a0e                	fld	fs4,224(sp)
  c8:	390b3b0b          	0x390b3b0b
  cc:	0013490b          	0x13490b
  d0:	0500                	addi	s0,sp,640
  d2:	0101                	addi	sp,sp,0
  d4:	1349                	addi	t1,t1,-14
  d6:	1301                	addi	t1,t1,-32
  d8:	0000                	unimp
  da:	2106                	fld	ft2,64(sp)
  dc:	4900                	lw	s0,16(a0)
  de:	000b2f13          	slti	t5,s6,0
  e2:	0700                	addi	s0,sp,896
  e4:	0021                	c.nop	8
  e6:	1349                	addi	t1,t1,-14
  e8:	0000052f          	0x52f
  ec:	3408                	fld	fa0,40(s0)
  ee:	0300                	addi	s0,sp,384
  f0:	3a08                	fld	fa0,48(a2)
  f2:	390b3b0b          	0x390b3b0b
  f6:	3f13490b          	0x3f13490b
  fa:	8819                	andi	s0,s0,6
  fc:	0501                	addi	a0,a0,0
  fe:	1802                	slli	a6,a6,0x20
 100:	0000                	unimp
 102:	2109                	addiw	sp,sp,2
 104:	0000                	unimp
 106:	0a00                	addi	s0,sp,272
 108:	0034                	addi	a3,sp,8
 10a:	0b3a0e03          	lb	t3,179(s4)
 10e:	0b390b3b          	0xb390b3b
 112:	1349                	addi	t1,t1,-14
 114:	193c193f 2e0b0000 	0x2e0b0000193c193f
 11c:	3f01                	addiw	t5,t5,-32
 11e:	0319                	addi	t1,t1,6
 120:	3a0e                	fld	fs4,224(sp)
 122:	390b3b0b          	0x390b3b0b
 126:	1119270b          	0x1119270b
 12a:	1201                	addi	tp,tp,-32
 12c:	96184007          	flq	ft0,-1695(a6) # fffffffffffed961 <secret+0xffffffff7f3ed961>
 130:	1942                	slli	s2,s2,0x30
 132:	1301                	addi	t1,t1,-32
 134:	0000                	unimp
 136:	050c                	addi	a1,sp,640
 138:	0300                	addi	s0,sp,384
 13a:	3a0e                	fld	fs4,224(sp)
 13c:	390b3b0b          	0x390b3b0b
 140:	0213490b          	0x213490b
 144:	0018                	0x18
 146:	0d00                	addi	s0,sp,656
 148:	0034                	addi	a3,sp,8
 14a:	0b3a0e03          	lb	t3,179(s4)
 14e:	0b390b3b          	0xb390b3b
 152:	1349                	addi	t1,t1,-14
 154:	1802                	slli	a6,a6,0x20
 156:	0000                	unimp
 158:	0b0e                	slli	s6,s6,0x3
 15a:	1101                	addi	sp,sp,-32
 15c:	1201                	addi	tp,tp,-32
 15e:	0f000007          	0xf000007
 162:	0034                	addi	a3,sp,8
 164:	0b3a0803          	lb	a6,179(s4)
 168:	0b390b3b          	0xb390b3b
 16c:	1349                	addi	t1,t1,-14
 16e:	1802                	slli	a6,a6,0x20
 170:	0000                	unimp
 172:	2e10                	fld	fa2,24(a2)
 174:	3f01                	addiw	t5,t5,-32
 176:	0319                	addi	t1,t1,6
 178:	3a0e                	fld	fs4,224(sp)
 17a:	390b3b0b          	0x390b3b0b
 17e:	1119270b          	0x1119270b
 182:	1201                	addi	tp,tp,-32
 184:	97184007          	flq	ft0,-1679(a6)
 188:	1942                	slli	s2,s2,0x30
 18a:	1301                	addi	t1,t1,-32
 18c:	0000                	unimp
 18e:	2e11                	addiw	t3,t3,4
 190:	3f01                	addiw	t5,t5,-32
 192:	0319                	addi	t1,t1,6
 194:	3a0e                	fld	fs4,224(sp)
 196:	390b3b0b          	0x390b3b0b
 19a:	1201110b          	0x1201110b
 19e:	96184007          	flq	ft0,-1695(a6)
 1a2:	1942                	slli	s2,s2,0x30
 1a4:	1301                	addi	t1,t1,-32
 1a6:	0000                	unimp
 1a8:	2e12                	fld	ft8,256(sp)
 1aa:	0301                	addi	t1,t1,0
 1ac:	3a0e                	fld	fs4,224(sp)
 1ae:	390b3b0b          	0x390b3b0b
 1b2:	4919270b          	0x4919270b
 1b6:	12011113          	0x12011113
 1ba:	97184007          	flq	ft0,-1679(a6)
 1be:	1942                	slli	s2,s2,0x30
 1c0:	0000                	unimp
 1c2:	03000513          	li	a0,48
 1c6:	3a08                	fld	fa0,48(a2)
 1c8:	390b3b0b          	0x390b3b0b
 1cc:	0213490b          	0x213490b
 1d0:	0018                	0x18
	...

Disassembly of section .debug_aranges:

0000000000000000 <.debug_aranges>:
   0:	006c                	addi	a1,sp,12
   2:	0000                	unimp
   4:	0002                	c.slli64	zero
   6:	0000                	unimp
   8:	0000                	unimp
   a:	0008                	0x8
   c:	0000                	unimp
   e:	0000                	unimp
  10:	0000                	unimp
  12:	8000                	0x8000
  14:	0000                	unimp
  16:	0000                	unimp
  18:	03b8                	addi	a4,sp,456
	...
  22:	8020                	0x8020
  24:	0000                	unimp
  26:	0000                	unimp
  28:	00a4                	addi	s1,sp,72
	...
  32:	8040                	0x8040
  34:	0000                	unimp
  36:	0000                	unimp
  38:	0104                	addi	s1,sp,128
	...
  42:	8060                	0x8060
  44:	0000                	unimp
  46:	0000                	unimp
  48:	1118                	addi	a4,sp,160
	...
  52:	8080                	0x8080
  54:	0000                	unimp
  56:	0000                	unimp
  58:	0004                	0x4
	...
  6e:	0000                	unimp
  70:	002c                	addi	a1,sp,8
  72:	0000                	unimp
  74:	0002                	c.slli64	zero
  76:	0022                	c.slli	zero,0x8
  78:	0000                	unimp
  7a:	0008                	0x8
  7c:	0000                	unimp
  7e:	0000                	unimp
  80:	03b8                	addi	a4,sp,456
  82:	8000                	0x8000
  84:	0000                	unimp
  86:	0000                	unimp
  88:	0058                	addi	a4,sp,4
	...
  9e:	0000                	unimp
  a0:	002c                	addi	a1,sp,8
  a2:	0000                	unimp
  a4:	0002                	c.slli64	zero
  a6:	00f6                	slli	ra,ra,0x1d
  a8:	0000                	unimp
  aa:	0008                	0x8
  ac:	0000                	unimp
  ae:	0000                	unimp
  b0:	0410                	addi	a2,sp,512
  b2:	8000                	0x8000
  b4:	0000                	unimp
  b6:	0000                	unimp
  b8:	0424                	addi	s1,sp,520
	...

Disassembly of section .debug_str:

0000000000000000 <.debug_str>:
   0:	6f6f722f          	0x6f6f722f
   4:	2f74                	fld	fa3,216(a4)
   6:	63657073          	csrci	0x636,10
   a:	6f64                	ld	s1,216(a4)
   c:	726f7463          	bgeu	t5,t1,734 <_start-0x7ffff8cc>
  10:	7a75462f          	0x7a75462f
  14:	657a                	ld	a0,408(sp)
  16:	2f72                	fld	ft10,280(sp)
  18:	63657073          	csrci	0x636,10
  1c:	6f64                	ld	s1,216(a4)
  1e:	726f7463          	bgeu	t5,t1,746 <_start-0x7ffff8ba>
  22:	33742e2f          	0x33742e2f
  26:	695f 706e 7475      	0x7475706e695f
  2c:	305f 532e 2f00      	0x2f00532e305f
  32:	6f72                	ld	t5,280(sp)
  34:	732f746f          	jal	s0,f7766 <_start-0x7ff0889a>
  38:	6570                	ld	a2,200(a0)
  3a:	636f6463          	bltu	t5,s6,662 <_start-0x7ffff99e>
  3e:	6f74                	ld	a3,216(a4)
  40:	2f72                	fld	ft10,280(sp)
  42:	7546                	ld	a0,112(sp)
  44:	7a7a                	ld	s4,440(sp)
  46:	7265                	lui	tp,0xffff9
  48:	6570732f          	0x6570732f
  4c:	636f6463          	bltu	t5,s6,674 <_start-0x7ffff98c>
  50:	6f74                	ld	a3,216(a4)
  52:	2f72                	fld	ft10,280(sp)
  54:	6554                	ld	a3,136(a0)
  56:	706d                	c.lui	zero,0xffffb
  58:	616c                	ld	a1,192(a0)
  5a:	6574                	ld	a3,200(a0)
  5c:	4700                	lw	s0,8(a4)
  5e:	554e                	lw	a0,240(sp)
  60:	4120                	lw	s0,64(a0)
  62:	2e322053          	0x2e322053
  66:	70003433          	0x70003433
  6a:	706d                	c.lui	zero,0xffffb
  6c:	625f 6f6f 0074      	0x746f6f625f
  72:	20554e47          	fmsub.s	ft8,fa0,ft5,ft4,rmm
  76:	20393943          	fmadd.s	fs2,fs2,ft3,ft4,rup
  7a:	2e39                	addiw	t3,t3,14
  7c:	20302e33          	0x20302e33
  80:	6d2d                	lui	s10,0xb
  82:	646f6d63          	bltu	t5,t1,6dc <_start-0x7ffff924>
  86:	6c65                	lui	s8,0x19
  88:	6d3d                	lui	s10,0xf
  8a:	6465                	lui	s0,0x19
  8c:	6e61                	lui	t3,0x18
  8e:	2079                	0x2079
  90:	6d2d                	lui	s10,0xb
  92:	7261                	lui	tp,0xffff8
  94:	723d6863          	bltu	s10,gp,7c4 <_start-0x7ffff83c>
  98:	3676                	fld	fa2,376(sp)
  9a:	6734                	ld	a3,72(a4)
  9c:	2d20                	fld	fs0,88(a0)
  9e:	616d                	addi	sp,sp,240
  a0:	6962                	ld	s2,24(sp)
  a2:	6c3d                	lui	s8,0xf
  a4:	3670                	fld	fa2,232(a2)
  a6:	2034                	fld	fa3,64(s0)
  a8:	672d                	lui	a4,0xb
  aa:	2d20                	fld	fs0,88(a0)
  ac:	2d20304f          	0x2d20304f
  b0:	3d647473          	csrrci	s0,0x3d6,8
  b4:	39756e67          	0x39756e67
  b8:	2039                	0x2039
  ba:	662d                	lui	a2,0xb
  bc:	7266                	ld	tp,120(sp)
  be:	6565                	lui	a0,0x19
  c0:	6e617473          	csrrci	s0,0x6e6,2
  c4:	6964                	ld	s1,208(a0)
  c6:	676e                	ld	a4,216(sp)
  c8:	2d20                	fld	fs0,88(a0)
  ca:	7666                	ld	a2,120(sp)
  cc:	7369                	lui	t1,0xffffa
  ce:	6269                	lui	tp,0x1a
  d0:	6c69                	lui	s8,0x1a
  d2:	7469                	lui	s0,0xffffa
  d4:	3d79                	addiw	s10,s10,-2
  d6:	6968                	ld	a0,208(a0)
  d8:	6464                	ld	s1,200(s0)
  da:	6e65                	lui	t3,0x19
  dc:	2d20                	fld	fs0,88(a0)
  de:	6e66                	ld	t3,88(sp)
  e0:	657a2d6f          	jal	s10,a2f36 <_start-0x7ff5d0ca>
  e4:	6f72                	ld	t5,280(sp)
  e6:	692d                	lui	s2,0xb
  e8:	696e                	ld	s2,216(sp)
  ea:	6974                	ld	a3,208(a0)
  ec:	6c61                	lui	s8,0x18
  ee:	7a69                	lui	s4,0xffffa
  f0:	6465                	lui	s0,0x19
  f2:	692d                	lui	s2,0xb
  f4:	2d6e                	fld	fs10,216(sp)
  f6:	7362                	ld	t1,56(sp)
  f8:	6d700073          	0x6d700073
  fc:	6370                	ld	a2,192(a4)
  fe:	7500                	ld	s0,40(a0)
 100:	6e69                	lui	t3,0x1a
 102:	7074                	ld	a3,224(s0)
 104:	7274                	ld	a3,224(a2)
 106:	745f 6c00 6e6f      	0x6e6f6c00745f
 10c:	6e752067          	0x6e752067
 110:	6e676973          	csrrsi	s2,0x6e6,14
 114:	6465                	lui	s0,0x19
 116:	6920                	ld	s0,80(a0)
 118:	746e                	ld	s0,248(sp)
 11a:	7500                	ld	s0,40(a0)
 11c:	6e69                	lui	t3,0x1a
 11e:	3874                	fld	fa3,240(s0)
 120:	745f 7500 736e      	0x736e7500745f
 126:	6769                	lui	a4,0x1a
 128:	656e                	ld	a0,216(sp)
 12a:	2064                	fld	fs1,192(s0)
 12c:	72616863          	bltu	sp,t1,85c <_start-0x7ffff7a4>
 130:	7300                	ld	s0,32(a4)
 132:	6372                	ld	t1,280(sp)
 134:	706d702f          	0x706d702f
 138:	632e                	ld	t1,200(sp)
 13a:	6c00                	ld	s0,24(s0)
 13c:	20676e6f          	jal	t3,76342 <_start-0x7ff89cbe>
 140:	6e69                	lui	t3,0x1a
 142:	0074                	addi	a3,sp,12
 144:	6d70                	ld	a2,216(a0)
 146:	6170                	ld	a2,192(a0)
 148:	7300                	ld	s0,32(a4)
 14a:	6f68                	ld	a0,216(a4)
 14c:	7472                	ld	s0,312(sp)
 14e:	7520                	ld	s0,104(a0)
 150:	736e                	ld	t1,248(sp)
 152:	6769                	lui	a4,0x1a
 154:	656e                	ld	a0,216(sp)
 156:	2064                	fld	fs1,192(s0)
 158:	6e69                	lui	t3,0x1a
 15a:	0074                	addi	a3,sp,12
 15c:	726f6873          	csrrsi	a6,0x726,30
 160:	2074                	fld	fa3,192(s0)
 162:	6e69                	lui	t3,0x1a
 164:	0074                	addi	a3,sp,12
 166:	72636573          	csrrsi	a0,0x726,6
 16a:	7465                	lui	s0,0xffff9
 16c:	7600                	ld	s0,40(a2)
 16e:	5f6d                	li	t5,-5
 170:	6f62                	ld	t5,24(sp)
 172:	7500746f          	jal	s0,78c2 <_start-0x7fff873e>
 176:	6e69                	lui	t3,0x1a
 178:	3674                	fld	fa3,232(a2)
 17a:	5f34                	lw	a3,120(a4)
 17c:	0074                	addi	a3,sp,12
 17e:	6172                	ld	sp,280(sp)
 180:	646e                	ld	s0,216(sp)
 182:	61006d6f          	jal	s10,6792 <_start-0x7fff986e>
 186:	6464                	ld	s1,200(s0)
 188:	0072                	c.slli	zero,0x1c
 18a:	70746173          	csrrsi	sp,0x707,8
 18e:	765f 6c61 6575      	0x65756c61765f
 194:	6400                	ld	s0,8(s0)
 196:	7461                	lui	s0,0xffff8
 198:	0061                	c.nop	24
 19a:	5f746573          	csrrsi	a0,0x5f7,8
 19e:	7470                	ld	a2,232(s0)
 1a0:	5f65                	li	t5,-7
 1a2:	7461                	lui	s0,0xffff8
 1a4:	6174                	ld	a3,192(a0)
 1a6:	73006b63          	bltu	zero,a6,8dc <_start-0x7ffff724>
 1aa:	6470                	ld	a2,200(s0)
 1ac:	6300636f          	jal	t1,67dc <_start-0x7fff9824>
 1b0:	69666e6f          	jal	t3,66846 <_start-0x7ff997ba>
 1b4:	72730067          	jr	1831(t1) # ffffffffffffa727 <secret+0xffffffff7f3fa727>
 1b8:	6d762f63          	0x6d762f63
 1bc:	632e                	ld	t1,200(sp)
 1be:	6600                	ld	s0,8(a2)
 1c0:	616c                	ld	a1,192(a0)
 1c2:	65730067          	jr	1623(t1)
 1c6:	5f74                	lw	a3,124(a4)
 1c8:	7470                	ld	a2,232(s0)
 1ca:	5f65                	li	t5,-7
 1cc:	7375                	lui	t1,0xffffd
 1ce:	7265                	lui	tp,0xffff9
 1d0:	7000                	ld	s0,32(s0)
 1d2:	6574                	ld	a3,200(a0)
 1d4:	745f 6c00 7366      	0x73666c00745f
 1da:	3672                	fld	fa2,312(sp)
 1dc:	6d760033          	0x6d760033
 1e0:	635f 6f68 6369      	0x63696f68635f
 1e6:	0065                	c.nop	25

Disassembly of section .debug_ranges:

0000000000000000 <.debug_ranges>:
   0:	ffff                	0xffff
   2:	ffff                	0xffff
   4:	ffff                	0xffff
   6:	ffff                	0xffff
	...
  10:	0000                	unimp
  12:	8000                	0x8000
  14:	0000                	unimp
  16:	0000                	unimp
  18:	03b8                	addi	a4,sp,456
  1a:	8000                	0x8000
  1c:	0000                	unimp
  1e:	0000                	unimp
  20:	0000                	unimp
  22:	8020                	0x8020
  24:	0000                	unimp
  26:	0000                	unimp
  28:	00a4                	addi	s1,sp,72
  2a:	8020                	0x8020
  2c:	0000                	unimp
  2e:	0000                	unimp
  30:	0000                	unimp
  32:	8040                	0x8040
  34:	0000                	unimp
  36:	0000                	unimp
  38:	0104                	addi	s1,sp,128
  3a:	8040                	0x8040
  3c:	0000                	unimp
  3e:	0000                	unimp
  40:	0000                	unimp
  42:	8060                	0x8060
  44:	0000                	unimp
  46:	0000                	unimp
  48:	1118                	addi	a4,sp,160
  4a:	8060                	0x8060
  4c:	0000                	unimp
  4e:	0000                	unimp
  50:	0000                	unimp
  52:	8080                	0x8080
  54:	0000                	unimp
  56:	0000                	unimp
  58:	0004                	0x4
  5a:	8080                	0x8080
	...

Disassembly of section .debug_frame:

0000000000000000 <.debug_frame>:
   0:	000c                	0xc
   2:	0000                	unimp
   4:	ffff                	0xffff
   6:	ffff                	0xffff
   8:	7c010003          	lb	zero,1984(sp)
   c:	0d01                	addi	s10,s10,0
   e:	0002                	c.slli64	zero
  10:	002c                	addi	a1,sp,8
  12:	0000                	unimp
  14:	0000                	unimp
  16:	0000                	unimp
  18:	03b8                	addi	a4,sp,456
  1a:	8000                	0x8000
  1c:	0000                	unimp
  1e:	0000                	unimp
  20:	0058                	addi	a4,sp,4
  22:	0000                	unimp
  24:	0000                	unimp
  26:	0000                	unimp
  28:	0e44                	addi	s1,sp,788
  2a:	4420                	lw	s0,72(s0)
  2c:	0288                	addi	a0,sp,320
  2e:	0c44                	addi	s1,sp,532
  30:	0008                	0x8
  32:	4402                	lw	s0,0(sp)
  34:	0cc8                	addi	a0,sp,596
  36:	2002                	fld	ft0,0(sp)
  38:	0e44                	addi	s1,sp,788
  3a:	0000                	unimp
  3c:	0000                	unimp
  3e:	0000                	unimp
  40:	000c                	0xc
  42:	0000                	unimp
  44:	ffff                	0xffff
  46:	ffff                	0xffff
  48:	7c010003          	lb	zero,1984(sp)
  4c:	0d01                	addi	s10,s10,0
  4e:	0002                	c.slli64	zero
  50:	002c                	addi	a1,sp,8
  52:	0000                	unimp
  54:	0040                	addi	s0,sp,4
  56:	0000                	unimp
  58:	0410                	addi	a2,sp,512
  5a:	8000                	0x8000
  5c:	0000                	unimp
  5e:	0000                	unimp
  60:	004c                	addi	a1,sp,4
  62:	0000                	unimp
  64:	0000                	unimp
  66:	0000                	unimp
  68:	0e44                	addi	s1,sp,788
  6a:	4430                	lw	a2,72(s0)
  6c:	0288                	addi	a0,sp,320
  6e:	0c44                	addi	s1,sp,532
  70:	0008                	0x8
  72:	c878                	sw	a4,84(s0)
  74:	020c                	addi	a1,sp,256
  76:	4430                	lw	a2,72(s0)
  78:	000e                	c.slli	zero,0x3
  7a:	0000                	unimp
  7c:	0000                	unimp
  7e:	0000                	unimp
  80:	002c                	addi	a1,sp,8
  82:	0000                	unimp
  84:	0040                	addi	s0,sp,4
  86:	0000                	unimp
  88:	045c                	addi	a5,sp,516
  8a:	8000                	0x8000
  8c:	0000                	unimp
  8e:	0000                	unimp
  90:	0220                	addi	s0,sp,264
  92:	0000                	unimp
  94:	0000                	unimp
  96:	0000                	unimp
  98:	0e44                	addi	s1,sp,788
  9a:	4830                	lw	a2,80(s0)
  9c:	0281                	addi	t0,t0,0
  9e:	0488                	addi	a0,sp,576
  a0:	0c44                	addi	s1,sp,532
  a2:	0008                	0x8
  a4:	c1020403          	lb	s0,-1008(tp) # ffffffffffff8c10 <secret+0xffffffff7f3f8c10>
  a8:	c844                	sw	s1,20(s0)
  aa:	020c                	addi	a1,sp,256
  ac:	4430                	lw	a2,72(s0)
  ae:	000e                	c.slli	zero,0x3
  b0:	002c                	addi	a1,sp,8
  b2:	0000                	unimp
  b4:	0040                	addi	s0,sp,4
  b6:	0000                	unimp
  b8:	067c                	addi	a5,sp,780
  ba:	8000                	0x8000
  bc:	0000                	unimp
  be:	0000                	unimp
  c0:	0064                	addi	s1,sp,12
  c2:	0000                	unimp
  c4:	0000                	unimp
  c6:	0000                	unimp
  c8:	0e44                	addi	s1,sp,788
  ca:	4430                	lw	a2,72(s0)
  cc:	0288                	addi	a0,sp,320
  ce:	0c44                	addi	s1,sp,532
  d0:	0008                	0x8
  d2:	5002                	0x5002
  d4:	0cc8                	addi	a0,sp,596
  d6:	3002                	fld	ft0,32(sp)
  d8:	0e44                	addi	s1,sp,788
  da:	0000                	unimp
  dc:	0000                	unimp
  de:	0000                	unimp
  e0:	002c                	addi	a1,sp,8
  e2:	0000                	unimp
  e4:	0040                	addi	s0,sp,4
  e6:	0000                	unimp
  e8:	06e0                	addi	s0,sp,844
  ea:	8000                	0x8000
  ec:	0000                	unimp
  ee:	0000                	unimp
  f0:	006c                	addi	a1,sp,12
  f2:	0000                	unimp
  f4:	0000                	unimp
  f6:	0000                	unimp
  f8:	0e44                	addi	s1,sp,788
  fa:	4430                	lw	a2,72(s0)
  fc:	0288                	addi	a0,sp,320
  fe:	0c44                	addi	s1,sp,532
 100:	0008                	0x8
 102:	5802                	lw	a6,32(sp)
 104:	0cc8                	addi	a0,sp,596
 106:	3002                	fld	ft0,32(sp)
 108:	0e44                	addi	s1,sp,788
 10a:	0000                	unimp
 10c:	0000                	unimp
 10e:	0000                	unimp
 110:	002c                	addi	a1,sp,8
 112:	0000                	unimp
 114:	0040                	addi	s0,sp,4
 116:	0000                	unimp
 118:	074c                	addi	a1,sp,900
 11a:	8000                	0x8000
 11c:	0000                	unimp
 11e:	0000                	unimp
 120:	00e8                	addi	a0,sp,76
 122:	0000                	unimp
 124:	0000                	unimp
 126:	0000                	unimp
 128:	0e44                	addi	s1,sp,788
 12a:	4830                	lw	a2,80(s0)
 12c:	0281                	addi	t0,t0,0
 12e:	0488                	addi	a0,sp,576
 130:	0c44                	addi	s1,sp,532
 132:	0008                	0x8
 134:	cc02                	sw	zero,24(sp)
 136:	44c1                	li	s1,16
 138:	0cc8                	addi	a0,sp,596
 13a:	3002                	fld	ft0,32(sp)
 13c:	0e44                	addi	s1,sp,788
	...
